
debug/system.elf:     file format elf32-i386


Disassembly of section .text:

00000000 <G_page_dir>:
       0:	fc                   	cld    
       1:	66 b8 10 00          	mov    $0x10,%ax
       5:	8e d8                	mov    %eax,%ds
       7:	8e c0                	mov    %eax,%es
       9:	8e e0                	mov    %eax,%fs
       b:	8e e8                	mov    %eax,%gs
       d:	bc 00 00 40 00       	mov    $0x400000,%esp
      12:	e8 6d 00 00 00       	call   84 <setup_idt>
      17:	e8 98 00 00 00       	call   b4 <setup_gdt>
      1c:	b8 10 00 00 00       	mov    $0x10,%eax
      21:	8e d8                	mov    %eax,%ds
      23:	8e d0                	mov    %eax,%ss
      25:	8e c0                	mov    %eax,%es
      27:	8e e0                	mov    %eax,%fs
      29:	8e e8                	mov    %eax,%gs
      2b:	31 c0                	xor    %eax,%eax
      2d:	40                   	inc    %eax
      2e:	a3 00 00 00 00       	mov    %eax,0x0
      33:	39 05 00 00 10 00    	cmp    %eax,0x100000
      39:	74 f2                	je     2d <G_page_dir+0x2d>
      3b:	e9 c0 1f 00 00       	jmp    2000 <after_page_table>

00000040 <print_reg32>:
      40:	51                   	push   %ecx
      41:	53                   	push   %ebx
      42:	66 52                	push   %dx
      44:	06                   	push   %es
      45:	50                   	push   %eax
      46:	b8 10 00 00 00       	mov    $0x10,%eax
      4b:	8e c0                	mov    %eax,%es
      4d:	58                   	pop    %eax
      4e:	b9 08 00 00 00       	mov    $0x8,%ecx
      53:	bb 1e 80 0b 00       	mov    $0xb801e,%ebx
      58:	66 ba 0f 0f          	mov    $0xf0f,%dx

0000005c <l32_1>:
      5c:	20 c2                	and    %al,%dl
      5e:	80 fa 0a             	cmp    $0xa,%dl
      61:	7c 08                	jl     6b <l32_a>
      63:	80 ea 0a             	sub    $0xa,%dl
      66:	80 c2 41             	add    $0x41,%dl
      69:	eb 03                	jmp    6e <l32_pchar>

0000006b <l32_a>:
      6b:	80 c2 30             	add    $0x30,%dl

0000006e <l32_pchar>:
      6e:	26 66 89 13          	mov    %dx,%es:(%ebx)
      72:	c1 e8 04             	shr    $0x4,%eax
      75:	83 eb 02             	sub    $0x2,%ebx
      78:	66 ba 0f 0f          	mov    $0xf0f,%dx
      7c:	e2 de                	loop   5c <l32_1>
      7e:	07                   	pop    %es
      7f:	66 5a                	pop    %dx
      81:	5b                   	pop    %ebx
      82:	59                   	pop    %ecx
      83:	c3                   	ret    

00000084 <setup_idt>:
      84:	8d 15 3e 20 00 00    	lea    0x203e,%edx
      8a:	b8 00 00 08 00       	mov    $0x80000,%eax
      8f:	66 89 d0             	mov    %dx,%ax
      92:	66 ba 00 8e          	mov    $0x8e00,%dx
      96:	8d 3d fa 20 00 00    	lea    0x20fa,%edi
      9c:	b9 00 01 00 00       	mov    $0x100,%ecx

000000a1 <rp_sidt>:
      a1:	89 07                	mov    %eax,(%edi)
      a3:	89 57 04             	mov    %edx,0x4(%edi)
      a6:	83 c7 08             	add    $0x8,%edi
      a9:	49                   	dec    %ecx
      aa:	75 f5                	jne    a1 <rp_sidt>
      ac:	0f 01 1d ec 20 00 00 	lidtl  0x20ec
      b3:	c3                   	ret    

000000b4 <setup_gdt>:
      b4:	0f 01 15 f4 20 00 00 	lgdtl  0x20f4
      bb:	c3                   	ret    
	...

00001000 <pg0>:
	...

00002000 <after_page_table>:
    2000:	bc 00 00 40 00       	mov    $0x400000,%esp
    2005:	bd 00 00 40 00       	mov    $0x400000,%ebp
    200a:	e8 6f 00 00 00       	call   207e <setup_paging>
    200f:	e8 58 13 00 00       	call   336c <main>
    2014:	f4                   	hlt    

00002015 <shut_down_msg>:
    2015:	0a 0d 68 61 6c 74    	or     0x746c6168,%cl
    201b:	20 73 79             	and    %dh,0x79(%ebx)
    201e:	73 74                	jae    2094 <setup_paging+0x16>
    2020:	65                   	gs
    2021:	6d                   	insl   (%dx),%es:(%edi)
    2022:	2e 2e 2e 0a 0d 00 00 	or     %cs:0x6e550000,%cl
    2029:	55 6e 

00002029 <int_msg>:
    2029:	55                   	push   %ebp
    202a:	6e                   	outsb  %ds:(%esi),(%dx)
    202b:	6b 6e 6f 77          	imul   $0x77,0x6f(%esi),%ebp
    202f:	6e                   	outsb  %ds:(%esi),(%dx)
    2030:	20 69 6e             	and    %ch,0x6e(%ecx)
    2033:	74 65                	je     209a <setup_paging+0x1c>
    2035:	72 72                	jb     20a9 <setup_paging+0x2b>
    2037:	75 70                	jne    20a9 <setup_paging+0x2b>
    2039:	74 0a                	je     2045 <ignore_int+0x7>
    203b:	0d 00 00 fc 50       	or     $0x50fc0000,%eax

0000203e <ignore_int>:
    203e:	fc                   	cld    
    203f:	50                   	push   %eax
    2040:	51                   	push   %ecx
    2041:	52                   	push   %edx
    2042:	1e                   	push   %ds
    2043:	06                   	push   %es
    2044:	0f a0                	push   %fs
    2046:	b8 10 00 00 00       	mov    $0x10,%eax
    204b:	8e d8                	mov    %eax,%ds
    204d:	8e c0                	mov    %eax,%es
    204f:	8e e0                	mov    %eax,%fs
    2051:	68 29 20 00 00       	push   $0x2029
    2056:	e8 e9 54 00 00       	call   7544 <printf>
    205b:	58                   	pop    %eax
    205c:	0f a1                	pop    %fs
    205e:	07                   	pop    %es
    205f:	1f                   	pop    %ds
    2060:	5a                   	pop    %edx
    2061:	59                   	pop    %ecx
    2062:	58                   	pop    %eax
    2063:	cf                   	iret   

00002064 <setup_mtrr>:
    2064:	31 d2                	xor    %edx,%edx
    2066:	31 c0                	xor    %eax,%eax
    2068:	b9 50 02 00 00       	mov    $0x250,%ecx
    206d:	0f 30                	wrmsr  
    206f:	b9 58 02 00 00       	mov    $0x258,%ecx
    2074:	0f 30                	wrmsr  
    2076:	b9 59 02 00 00       	mov    $0x259,%ecx
    207b:	0f 30                	wrmsr  
    207d:	c3                   	ret    

0000207e <setup_paging>:
    207e:	c7 05 00 00 00 00 87 	movl   $0x87,0x0
    2085:	00 00 00 
    2088:	c7 05 04 00 00 00 87 	movl   $0x400087,0x4
    208f:	00 40 00 
    2092:	0f 20 e0             	mov    %cr4,%eax
    2095:	83 c8 10             	or     $0x10,%eax
    2098:	0f 22 e0             	mov    %eax,%cr4
    209b:	b8 00 00 00 00       	mov    $0x0,%eax
    20a0:	0f 22 d8             	mov    %eax,%cr3
    20a3:	0f 20 c0             	mov    %cr0,%eax
    20a6:	0d 00 00 00 80       	or     $0x80000000,%eax
    20ab:	0f 22 c0             	mov    %eax,%cr0
    20ae:	57                   	push   %edi
    20af:	56                   	push   %esi
    20b0:	b9 00 00 40 00       	mov    $0x400000,%ecx
    20b5:	be 00 00 00 00       	mov    $0x0,%esi
    20ba:	bf 00 00 40 00       	mov    $0x400000,%edi
    20bf:	fc                   	cld    
    20c0:	f3 a4                	rep movsb %ds:(%esi),%es:(%edi)
    20c2:	5e                   	pop    %esi
    20c3:	5f                   	pop    %edi
    20c4:	b8 00 00 40 00       	mov    $0x400000,%eax
    20c9:	0f 22 d8             	mov    %eax,%cr3
    20cc:	c7 05 00 00 40 00 87 	movl   $0x400087,0x400000
    20d3:	00 40 00 
    20d6:	c7 05 04 00 00 00 97 	movl   $0x97,0x4
    20dd:	00 00 00 
    20e0:	b8 00 00 40 00       	mov    $0x400000,%eax
    20e5:	0f 22 d8             	mov    %eax,%cr3
    20e8:	c3                   	ret    
    20e9:	90                   	nop
	...

000020ec <idt_descr>:
    20ec:	ff 07                	incl   (%edi)
    20ee:	fa                   	cli    
    20ef:	20 00                	and    %al,(%eax)
    20f1:	00 00                	add    %al,(%eax)
	...

000020f4 <gdt_descr>:
    20f4:	ff 07                	incl   (%edi)
    20f6:	fa                   	cli    
    20f7:	28 00                	sub    %al,(%eax)
	...

000020fa <G_idt>:
	...

000028fa <G_gdt>:
	...
    2902:	ff                   	(bad)  
    2903:	ff 00                	incl   (%eax)
    2905:	00 00                	add    %al,(%eax)
    2907:	9a cf 00 ff ff 00 00 	lcall  $0x0,$0xffff00cf
    290e:	00 92 cf 00 00 00    	add    %dl,0xcf(%edx)
	...
    30f0:	00 00                	add    %al,(%eax)
    30f2:	90                   	nop
    30f3:	90                   	nop
    30f4:	90                   	nop
    30f5:	90                   	nop
    30f6:	90                   	nop
    30f7:	90                   	nop
    30f8:	90                   	nop
    30f9:	90                   	nop
    30fa:	90                   	nop
    30fb:	90                   	nop
    30fc:	90                   	nop
    30fd:	90                   	nop
    30fe:	90                   	nop
    30ff:	90                   	nop

00003100 <console_init>:
    3100:	55                   	push   %ebp
    3101:	89 e5                	mov    %esp,%ebp
    3103:	53                   	push   %ebx
    3104:	83 3d 54 96 00 00 01 	cmpl   $0x1,0x9654
    310b:	0f 84 b2 00 00 00    	je     31c3 <console_init+0xc3>
    3111:	66 f7 05 0a 00 09 00 	testw  $0xff00,0x9000a
    3118:	00 ff 
    311a:	74 15                	je     3131 <console_init+0x31>
    311c:	66 c7 05 58 96 00 00 	movw   $0x0,0x9658
    3123:	00 00 
    3125:	c7 05 5c 96 00 00 00 	movl   $0x4b0000,0x965c
    312c:	00 4b 00 
    312f:	eb 13                	jmp    3144 <console_init+0x44>
    3131:	66 c7 05 58 96 00 00 	movw   $0x1,0x9658
    3138:	01 00 
    313a:	c7 05 5c 96 00 00 00 	movl   $0x4b8000,0x965c
    3141:	80 4b 00 
    3144:	0f b6 0d 00 00 09 00 	movzbl 0x90000,%ecx
    314b:	88 0d 40 96 00 00    	mov    %cl,0x9640
    3151:	0f b6 1d 01 00 09 00 	movzbl 0x90001,%ebx
    3158:	88 1d 41 96 00 00    	mov    %bl,0x9641
    315e:	0f b7 05 06 00 09 00 	movzwl 0x90006,%eax
    3165:	89 c2                	mov    %eax,%edx
    3167:	66 c1 ea 08          	shr    $0x8,%dx
    316b:	0f b6 db             	movzbl %bl,%ebx
    316e:	0f af da             	imul   %edx,%ebx
    3171:	0f b6 c9             	movzbl %cl,%ecx
    3174:	8d 0c 0b             	lea    (%ebx,%ecx,1),%ecx
    3177:	66 89 0d 42 96 00 00 	mov    %cx,0x9642
    317e:	66 89 15 46 96 00 00 	mov    %dx,0x9646
    3185:	66 c7 05 48 96 00 00 	movw   $0x19,0x9648
    318c:	19 00 
    318e:	66 25 ff 00          	and    $0xff,%ax
    3192:	66 a3 4a 96 00 00    	mov    %ax,0x964a
    3198:	0f b7 05 04 00 09 00 	movzwl 0x90004,%eax
    319f:	66 a3 4c 96 00 00    	mov    %ax,0x964c
    31a5:	0f b7 c0             	movzwl %ax,%eax
    31a8:	83 e8 07             	sub    $0x7,%eax
    31ab:	c1 e0 0c             	shl    $0xc,%eax
    31ae:	03 05 5c 96 00 00    	add    0x965c,%eax
    31b4:	a3 50 96 00 00       	mov    %eax,0x9650
    31b9:	c7 05 54 96 00 00 01 	movl   $0x1,0x9654
    31c0:	00 00 00 
    31c3:	5b                   	pop    %ebx
    31c4:	5d                   	pop    %ebp
    31c5:	c3                   	ret    

000031c6 <scroll_down>:
    31c6:	55                   	push   %ebp
    31c7:	89 e5                	mov    %esp,%ebp
    31c9:	83 ec 10             	sub    $0x10,%esp
    31cc:	89 5d f4             	mov    %ebx,-0xc(%ebp)
    31cf:	89 75 f8             	mov    %esi,-0x8(%ebp)
    31d2:	89 7d fc             	mov    %edi,-0x4(%ebp)
    31d5:	8b 5d 08             	mov    0x8(%ebp),%ebx
    31d8:	a1 50 96 00 00       	mov    0x9650,%eax
    31dd:	0f b7 15 46 96 00 00 	movzwl 0x9646,%edx
    31e4:	01 d2                	add    %edx,%edx
    31e6:	0f af d3             	imul   %ebx,%edx
    31e9:	01 c2                	add    %eax,%edx
    31eb:	89 55 f0             	mov    %edx,-0x10(%ebp)
    31ee:	73 24                	jae    3214 <scroll_down+0x4e>
    31f0:	89 c6                	mov    %eax,%esi
    31f2:	89 d1                	mov    %edx,%ecx
    31f4:	89 c2                	mov    %eax,%edx
    31f6:	29 ca                	sub    %ecx,%edx
    31f8:	81 fa ff 0f 00 00    	cmp    $0xfff,%edx
    31fe:	77 14                	ja     3214 <scroll_down+0x4e>
    3200:	8d 3c 10             	lea    (%eax,%edx,1),%edi
    3203:	29 c1                	sub    %eax,%ecx
    3205:	81 c1 00 10 00 00    	add    $0x1000,%ecx
    320b:	56                   	push   %esi
    320c:	57                   	push   %edi
    320d:	fc                   	cld    
    320e:	f3 a4                	rep movsb %ds:(%esi),%es:(%edi)
    3210:	5f                   	pop    %edi
    3211:	5e                   	pop    %esi
    3212:	eb 05                	jmp    3219 <scroll_down+0x53>
    3214:	ba 00 10 00 00       	mov    $0x1000,%edx
    3219:	89 c7                	mov    %eax,%edi
    321b:	8b 75 f0             	mov    -0x10(%ebp),%esi
    321e:	89 d1                	mov    %edx,%ecx
    3220:	56                   	push   %esi
    3221:	57                   	push   %edi
    3222:	fc                   	cld    
    3223:	f3 a4                	rep movsb %ds:(%esi),%es:(%edi)
    3225:	5f                   	pop    %edi
    3226:	5e                   	pop    %esi
    3227:	28 1d 41 96 00 00    	sub    %bl,0x9641
    322d:	66 0f af 1d 46 96 00 	imul   0x9646,%bx
    3234:	00 
    3235:	66 29 1d 42 96 00 00 	sub    %bx,0x9642
    323c:	8b 5d f4             	mov    -0xc(%ebp),%ebx
    323f:	8b 75 f8             	mov    -0x8(%ebp),%esi
    3242:	8b 7d fc             	mov    -0x4(%ebp),%edi
    3245:	89 ec                	mov    %ebp,%esp
    3247:	5d                   	pop    %ebp
    3248:	c3                   	ret    

00003249 <console_print>:
    3249:	55                   	push   %ebp
    324a:	89 e5                	mov    %esp,%ebp
    324c:	57                   	push   %edi
    324d:	56                   	push   %esi
    324e:	53                   	push   %ebx
    324f:	83 ec 04             	sub    $0x4,%esp
    3252:	8b 15 50 96 00 00    	mov    0x9650,%edx
    3258:	0f b6 0d 41 96 00 00 	movzbl 0x9641,%ecx
    325f:	0f b7 35 46 96 00 00 	movzwl 0x9646,%esi
    3266:	0f b6 3d 40 96 00 00 	movzbl 0x9640,%edi
    326d:	8b 5d 08             	mov    0x8(%ebp),%ebx
    3270:	0f b6 03             	movzbl (%ebx),%eax
    3273:	bb 00 00 00 00       	mov    $0x0,%ebx
    3278:	84 c0                	test   %al,%al
    327a:	0f 84 c3 00 00 00    	je     3343 <console_print+0xfa>
    3280:	0f b7 f6             	movzwl %si,%esi
    3283:	0f b6 c9             	movzbl %cl,%ecx
    3286:	0f af ce             	imul   %esi,%ecx
    3289:	81 e7 ff 00 00 00    	and    $0xff,%edi
    328f:	8d 3c 39             	lea    (%ecx,%edi,1),%edi
    3292:	8d 34 7a             	lea    (%edx,%edi,2),%esi
    3295:	bf 41 96 00 00       	mov    $0x9641,%edi
    329a:	3c 0a                	cmp    $0xa,%al
    329c:	74 14                	je     32b2 <console_print+0x69>
    329e:	3c 0d                	cmp    $0xd,%al
    32a0:	74 2d                	je     32cf <console_print+0x86>
    32a2:	84 c0                	test   %al,%al
    32a4:	75 3a                	jne    32e0 <console_print+0x97>
    32a6:	e8 95 cd ff ff       	call   40 <print_reg32>
    32ab:	90                   	nop
    32ac:	8d 74 26 00          	lea    0x0(%esi,%eiz,1),%esi
    32b0:	eb 5b                	jmp    330d <console_print+0xc4>
    32b2:	80 07 01             	addb   $0x1,(%edi)
    32b5:	b8 46 96 00 00       	mov    $0x9646,%eax
    32ba:	0f b7 08             	movzwl (%eax),%ecx
    32bd:	b8 40 96 00 00       	mov    $0x9640,%eax
    32c2:	0f b6 10             	movzbl (%eax),%edx
    32c5:	29 d1                	sub    %edx,%ecx
    32c7:	8d 34 4e             	lea    (%esi,%ecx,2),%esi
    32ca:	c6 00 00             	movb   $0x0,(%eax)
    32cd:	eb 3e                	jmp    330d <console_print+0xc4>
    32cf:	b8 40 96 00 00       	mov    $0x9640,%eax
    32d4:	0f b6 10             	movzbl (%eax),%edx
    32d7:	01 d2                	add    %edx,%edx
    32d9:	29 d6                	sub    %edx,%esi
    32db:	c6 00 00             	movb   $0x0,(%eax)
    32de:	eb 2d                	jmp    330d <console_print+0xc4>
    32e0:	b9 40 96 00 00       	mov    $0x9640,%ecx
    32e5:	0f b6 11             	movzbl (%ecx),%edx
    32e8:	83 c2 01             	add    $0x1,%edx
    32eb:	88 11                	mov    %dl,(%ecx)
    32ed:	0f b6 d2             	movzbl %dl,%edx
    32f0:	b9 46 96 00 00       	mov    $0x9646,%ecx
    32f5:	66 3b 11             	cmp    (%ecx),%dx
    32f8:	72 0a                	jb     3304 <console_print+0xbb>
    32fa:	c6 05 40 96 00 00 00 	movb   $0x0,0x9640
    3301:	80 07 01             	addb   $0x1,(%edi)
    3304:	88 06                	mov    %al,(%esi)
    3306:	c6 46 01 0f          	movb   $0xf,0x1(%esi)
    330a:	83 c6 02             	add    $0x2,%esi
    330d:	0f b6 07             	movzbl (%edi),%eax
    3310:	66 3b 05 48 96 00 00 	cmp    0x9648,%ax
    3317:	72 18                	jb     3331 <console_print+0xe8>
    3319:	c7 04 24 01 00 00 00 	movl   $0x1,(%esp)
    3320:	e8 a1 fe ff ff       	call   31c6 <scroll_down>
    3325:	ba 46 96 00 00       	mov    $0x9646,%edx
    332a:	0f b7 02             	movzwl (%edx),%eax
    332d:	01 c0                	add    %eax,%eax
    332f:	29 c6                	sub    %eax,%esi
    3331:	83 c3 01             	add    $0x1,%ebx
    3334:	8b 4d 08             	mov    0x8(%ebp),%ecx
    3337:	0f b6 04 19          	movzbl (%ecx,%ebx,1),%eax
    333b:	84 c0                	test   %al,%al
    333d:	0f 85 57 ff ff ff    	jne    329a <console_print+0x51>
    3343:	0f b6 05 41 96 00 00 	movzbl 0x9641,%eax
    334a:	66 0f af 05 46 96 00 	imul   0x9646,%ax
    3351:	00 
    3352:	0f b6 15 40 96 00 00 	movzbl 0x9640,%edx
    3359:	01 d0                	add    %edx,%eax
    335b:	66 a3 42 96 00 00    	mov    %ax,0x9642
    3361:	89 d8                	mov    %ebx,%eax
    3363:	83 c4 04             	add    $0x4,%esp
    3366:	5b                   	pop    %ebx
    3367:	5e                   	pop    %esi
    3368:	5f                   	pop    %edi
    3369:	5d                   	pop    %ebp
    336a:	c3                   	ret    
    336b:	90                   	nop

0000336c <main>:
    336c:	55                   	push   %ebp
    336d:	89 e5                	mov    %esp,%ebp
    336f:	83 e4 f0             	and    $0xfffffff0,%esp
    3372:	56                   	push   %esi
    3373:	53                   	push   %ebx
    3374:	81 ec 28 04 00 00    	sub    $0x428,%esp
    337a:	e8 81 fd ff ff       	call   3100 <console_init>
    337f:	c7 04 24 80 7c 00 00 	movl   $0x7c80,(%esp)
    3386:	e8 b9 41 00 00       	call   7544 <printf>
    338b:	e8 68 01 00 00       	call   34f8 <kscm_init_proc>
    3390:	c7 04 24 9a 7c 00 00 	movl   $0x7c9a,(%esp)
    3397:	e8 a8 41 00 00       	call   7544 <printf>
    339c:	e8 66 43 00 00       	call   7707 <kscm_init_paging>
    33a1:	c7 04 24 b0 7c 00 00 	movl   $0x7cb0,(%esp)
    33a8:	e8 97 41 00 00       	call   7544 <printf>
    33ad:	e8 0e 3d 00 00       	call   70c0 <kscm_init_heap>
    33b2:	c7 04 24 b4 7c 00 00 	movl   $0x7cb4,(%esp)
    33b9:	e8 86 41 00 00       	call   7544 <printf>
    33be:	e8 ca 3a 00 00       	call   6e8d <scheme_init>
    33c3:	c7 04 24 ce 7c 00 00 	movl   $0x7cce,(%esp)
    33ca:	e8 4e 1d 00 00       	call   511d <scheme_make_char_input_stream>
    33cf:	89 04 24             	mov    %eax,(%esp)
    33d2:	e8 e8 19 00 00       	call   4dbf <scheme_read>
    33d7:	89 c6                	mov    %eax,%esi
    33d9:	89 44 24 04          	mov    %eax,0x4(%esp)
    33dd:	8d 5c 24 20          	lea    0x20(%esp),%ebx
    33e1:	89 1c 24             	mov    %ebx,(%esp)
    33e4:	e8 67 29 00 00       	call   5d50 <scheme_obj_to_string>
    33e9:	89 5c 24 04          	mov    %ebx,0x4(%esp)
    33ed:	c7 04 24 d6 7c 00 00 	movl   $0x7cd6,(%esp)
    33f4:	e8 4b 41 00 00       	call   7544 <printf>
    33f9:	c7 44 24 04 70 ce 12 	movl   $0x12ce70,0x4(%esp)
    3400:	00 
    3401:	89 34 24             	mov    %esi,(%esp)
    3404:	e8 66 36 00 00       	call   6a6f <scheme_eval>
    3409:	89 c6                	mov    %eax,%esi
    340b:	89 44 24 04          	mov    %eax,0x4(%esp)
    340f:	89 1c 24             	mov    %ebx,(%esp)
    3412:	e8 39 29 00 00       	call   5d50 <scheme_obj_to_string>
    3417:	89 5c 24 04          	mov    %ebx,0x4(%esp)
    341b:	c7 04 24 e2 7c 00 00 	movl   $0x7ce2,(%esp)
    3422:	e8 1d 41 00 00       	call   7544 <printf>
    3427:	c7 04 24 b0 7c 00 00 	movl   $0x7cb0,(%esp)
    342e:	e8 11 41 00 00       	call   7544 <printf>
    3433:	c7 44 24 14 00 00 00 	movl   $0x0,0x14(%esp)
    343a:	00 
    343b:	c7 44 24 10 ed 7c 00 	movl   $0x7ced,0x10(%esp)
    3442:	00 
    3443:	c7 44 24 0c 40 79 00 	movl   $0x7940,0xc(%esp)
    344a:	00 
    344b:	c7 44 24 08 6e 00 00 	movl   $0x6e,0x8(%esp)
    3452:	00 
    3453:	c7 44 24 04 ef 7c 00 	movl   $0x7cef,0x4(%esp)
    345a:	00 
    345b:	c7 04 24 fc 80 00 00 	movl   $0x80fc,(%esp)
    3462:	e8 dd 40 00 00       	call   7544 <printf>
    3467:	89 74 24 14          	mov    %esi,0x14(%esp)
    346b:	c7 44 24 10 f7 7c 00 	movl   $0x7cf7,0x10(%esp)
    3472:	00 
    3473:	c7 44 24 0c 40 79 00 	movl   $0x7940,0xc(%esp)
    347a:	00 
    347b:	c7 44 24 08 6f 00 00 	movl   $0x6f,0x8(%esp)
    3482:	00 
    3483:	c7 44 24 04 ef 7c 00 	movl   $0x7cef,0x4(%esp)
    348a:	00 
    348b:	c7 04 24 28 81 00 00 	movl   $0x8128,(%esp)
    3492:	e8 ad 40 00 00       	call   7544 <printf>
    3497:	8d 5c 24 20          	lea    0x20(%esp),%ebx
    349b:	c7 04 24 fb 7c 00 00 	movl   $0x7cfb,(%esp)
    34a2:	e8 9d 40 00 00       	call   7544 <printf>
    34a7:	a1 08 be 12 00       	mov    0x12be08,%eax
    34ac:	89 04 24             	mov    %eax,(%esp)
    34af:	e8 0b 19 00 00       	call   4dbf <scheme_read>
    34b4:	3d 40 ce 12 00       	cmp    $0x12ce40,%eax
    34b9:	75 0e                	jne    34c9 <main+0x15d>
    34bb:	c7 04 24 03 7d 00 00 	movl   $0x7d03,(%esp)
    34c2:	e8 7d 40 00 00       	call   7544 <printf>
    34c7:	eb d2                	jmp    349b <main+0x12f>
    34c9:	c7 44 24 04 70 ce 12 	movl   $0x12ce70,0x4(%esp)
    34d0:	00 
    34d1:	89 04 24             	mov    %eax,(%esp)
    34d4:	e8 96 35 00 00       	call   6a6f <scheme_eval>
    34d9:	89 44 24 04          	mov    %eax,0x4(%esp)
    34dd:	89 1c 24             	mov    %ebx,(%esp)
    34e0:	e8 6b 28 00 00       	call   5d50 <scheme_obj_to_string>
    34e5:	89 5c 24 04          	mov    %ebx,0x4(%esp)
    34e9:	c7 04 24 20 7d 00 00 	movl   $0x7d20,(%esp)
    34f0:	e8 4f 40 00 00       	call   7544 <printf>
    34f5:	eb a4                	jmp    349b <main+0x12f>
    34f7:	90                   	nop

000034f8 <kscm_init_proc>:
    34f8:	55                   	push   %ebp
    34f9:	89 e5                	mov    %esp,%ebp
    34fb:	c7 05 3c ce 12 00 00 	movl   $0x12be00,0x12ce3c
    3502:	be 12 00 
    3505:	5d                   	pop    %ebp
    3506:	c3                   	ret    
    3507:	90                   	nop

00003508 <key_map>:
    3508:	00 1b                	add    %bl,(%ebx)
    350a:	31 32                	xor    %esi,(%edx)
    350c:	33 34 35 36 37 38 39 	xor    0x39383736(,%esi,1),%esi
    3513:	30 2d 3d 7f 09 71    	xor    %ch,0x71097f3d
    3519:	77 65                	ja     3580 <shift_map+0x17>
    351b:	72 74                	jb     3591 <shift_map+0x28>
    351d:	79 75                	jns    3594 <shift_map+0x2b>
    351f:	69 6f 70 5b 5d 0d 00 	imul   $0xd5d5b,0x70(%edi),%ebp
    3526:	61                   	popa   
    3527:	73 64                	jae    358d <shift_map+0x24>
    3529:	66 67 68 6a 6b       	addr16 pushw $0x6b6a
    352e:	6c                   	insb   (%dx),%es:(%edi)
    352f:	3b 27                	cmp    (%edi),%esp
    3531:	60                   	pusha  
    3532:	00 5c 7a 78          	add    %bl,0x78(%edx,%edi,2)
    3536:	63 76 62             	arpl   %si,0x62(%esi)
    3539:	6e                   	outsb  %ds:(%esi),(%dx)
    353a:	6d                   	insl   (%dx),%es:(%edi)
    353b:	2c 2e                	sub    $0x2e,%al
    353d:	2f                   	das    
    353e:	00 2a                	add    %ch,(%edx)
    3540:	00 20                	add    %ah,(%eax)
	...
    3552:	2d 00 00 00 2b       	sub    $0x2b000000,%eax
    3557:	00 00                	add    %al,(%eax)
    3559:	00 00                	add    %al,(%eax)
    355b:	00 00                	add    %al,(%eax)
    355d:	00 3c 00             	add    %bh,(%eax,%eax,1)
	...

00003569 <shift_map>:
    3569:	00 1b                	add    %bl,(%ebx)
    356b:	21 40 23             	and    %eax,0x23(%eax)
    356e:	24 25                	and    $0x25,%al
    3570:	5e                   	pop    %esi
    3571:	26 2a 28             	sub    %es:(%eax),%ch
    3574:	29 5f 2b             	sub    %ebx,0x2b(%edi)
    3577:	7f 09                	jg     3582 <shift_map+0x19>
    3579:	51                   	push   %ecx
    357a:	57                   	push   %edi
    357b:	45                   	inc    %ebp
    357c:	52                   	push   %edx
    357d:	54                   	push   %esp
    357e:	59                   	pop    %ecx
    357f:	55                   	push   %ebp
    3580:	49                   	dec    %ecx
    3581:	4f                   	dec    %edi
    3582:	50                   	push   %eax
    3583:	7b 7d                	jnp    3602 <alt_map+0x38>
    3585:	0d 00 41 53 44       	or     $0x44534100,%eax
    358a:	46                   	inc    %esi
    358b:	47                   	inc    %edi
    358c:	48                   	dec    %eax
    358d:	4a                   	dec    %edx
    358e:	4b                   	dec    %ebx
    358f:	4c                   	dec    %esp
    3590:	3a 22                	cmp    (%edx),%ah
    3592:	7e 00                	jle    3594 <shift_map+0x2b>
    3594:	7c 5a                	jl     35f0 <alt_map+0x26>
    3596:	58                   	pop    %eax
    3597:	43                   	inc    %ebx
    3598:	56                   	push   %esi
    3599:	42                   	inc    %edx
    359a:	4e                   	dec    %esi
    359b:	4d                   	dec    %ebp
    359c:	3c 3e                	cmp    $0x3e,%al
    359e:	3f                   	aas    
    359f:	00 2a                	add    %ch,(%edx)
    35a1:	00 20                	add    %ah,(%eax)
	...
    35b3:	2d 00 00 00 2b       	sub    $0x2b000000,%eax
    35b8:	00 00                	add    %al,(%eax)
    35ba:	00 00                	add    %al,(%eax)
    35bc:	00 00                	add    %al,(%eax)
    35be:	00 3e                	add    %bh,(%esi)
	...

000035ca <alt_map>:
    35ca:	00 00                	add    %al,(%eax)
    35cc:	00 40 00             	add    %al,0x0(%eax)
    35cf:	24 00                	and    $0x0,%al
    35d1:	00 7b 5b             	add    %bh,0x5b(%ebx)
    35d4:	5d                   	pop    %ebp
    35d5:	7d 5c                	jge    3633 <boolean_p+0x13>
	...
    35e3:	00 00                	add    %al,(%eax)
    35e5:	7e 0d                	jle    35f4 <alt_map+0x2a>
	...
    3617:	00 00                	add    %al,(%eax)
    3619:	90                   	nop
    361a:	90                   	nop
    361b:	90                   	nop
    361c:	90                   	nop
    361d:	90                   	nop
    361e:	90                   	nop
    361f:	90                   	nop

00003620 <boolean_p>:
    3620:	55                   	push   %ebp
    3621:	89 e5                	mov    %esp,%ebp
    3623:	8b 45 0c             	mov    0xc(%ebp),%eax
    3626:	8b 10                	mov    (%eax),%edx
    3628:	81 fa 94 ce 12 00    	cmp    $0x12ce94,%edx
    362e:	74 09                	je     3639 <boolean_p+0x19>
    3630:	b8 80 ce 12 00       	mov    $0x12ce80,%eax
    3635:	39 c2                	cmp    %eax,%edx
    3637:	75 05                	jne    363e <boolean_p+0x1e>
    3639:	b8 94 ce 12 00       	mov    $0x12ce94,%eax
    363e:	5d                   	pop    %ebp
    363f:	c3                   	ret    

00003640 <true_p>:
    3640:	55                   	push   %ebp
    3641:	89 e5                	mov    %esp,%ebp
    3643:	b8 80 ce 12 00       	mov    $0x12ce80,%eax
    3648:	8b 55 0c             	mov    0xc(%ebp),%edx
    364b:	39 02                	cmp    %eax,(%edx)
    364d:	74 05                	je     3654 <true_p+0x14>
    364f:	b8 94 ce 12 00       	mov    $0x12ce94,%eax
    3654:	5d                   	pop    %ebp
    3655:	c3                   	ret    

00003656 <not>:
    3656:	55                   	push   %ebp
    3657:	89 e5                	mov    %esp,%ebp
    3659:	b8 94 ce 12 00       	mov    $0x12ce94,%eax
    365e:	8b 55 0c             	mov    0xc(%ebp),%edx
    3661:	81 3a 80 ce 12 00    	cmpl   $0x12ce80,(%edx)
    3667:	74 05                	je     366e <not+0x18>
    3669:	b8 80 ce 12 00       	mov    $0x12ce80,%eax
    366e:	5d                   	pop    %ebp
    366f:	c3                   	ret    

00003670 <scheme_init_bool>:
    3670:	55                   	push   %ebp
    3671:	89 e5                	mov    %esp,%ebp
    3673:	53                   	push   %ebx
    3674:	83 ec 24             	sub    $0x24,%esp
    3677:	8b 5d 08             	mov    0x8(%ebp),%ebx
    367a:	66 c7 05 94 ce 12 00 	movw   $0x19,0x12ce94
    3681:	19 00 
    3683:	c7 05 98 ce 12 00 00 	movl   $0x0,0x12ce98
    368a:	00 00 00 
    368d:	66 c7 05 80 ce 12 00 	movw   $0x19,0x12ce80
    3694:	19 00 
    3696:	c7 05 84 ce 12 00 01 	movl   $0x1,0x12ce84
    369d:	00 00 00 
    36a0:	89 5c 24 10          	mov    %ebx,0x10(%esp)
    36a4:	c7 44 24 0c 01 00 00 	movl   $0x1,0xc(%esp)
    36ab:	00 
    36ac:	c7 44 24 08 01 00 00 	movl   $0x1,0x8(%esp)
    36b3:	00 
    36b4:	c7 44 24 04 20 36 00 	movl   $0x3620,0x4(%esp)
    36bb:	00 
    36bc:	c7 04 24 2e 7d 00 00 	movl   $0x7d2e,(%esp)
    36c3:	e8 12 2a 00 00       	call   60da <scheme_register_primitive>
    36c8:	89 5c 24 10          	mov    %ebx,0x10(%esp)
    36cc:	c7 44 24 0c 01 00 00 	movl   $0x1,0xc(%esp)
    36d3:	00 
    36d4:	c7 44 24 08 01 00 00 	movl   $0x1,0x8(%esp)
    36db:	00 
    36dc:	c7 44 24 04 40 36 00 	movl   $0x3640,0x4(%esp)
    36e3:	00 
    36e4:	c7 04 24 37 7d 00 00 	movl   $0x7d37,(%esp)
    36eb:	e8 ea 29 00 00       	call   60da <scheme_register_primitive>
    36f0:	89 5c 24 10          	mov    %ebx,0x10(%esp)
    36f4:	c7 44 24 0c 01 00 00 	movl   $0x1,0xc(%esp)
    36fb:	00 
    36fc:	c7 44 24 08 01 00 00 	movl   $0x1,0x8(%esp)
    3703:	00 
    3704:	c7 44 24 04 56 36 00 	movl   $0x3656,0x4(%esp)
    370b:	00 
    370c:	c7 04 24 3d 7d 00 00 	movl   $0x7d3d,(%esp)
    3713:	e8 c2 29 00 00       	call   60da <scheme_register_primitive>
    3718:	83 c4 24             	add    $0x24,%esp
    371b:	5b                   	pop    %ebx
    371c:	5d                   	pop    %ebp
    371d:	c3                   	ret    
    371e:	90                   	nop
    371f:	90                   	nop

00003720 <string_p>:
    3720:	55                   	push   %ebp
    3721:	89 e5                	mov    %esp,%ebp
    3723:	8b 45 0c             	mov    0xc(%ebp),%eax
    3726:	8b 10                	mov    (%eax),%edx
    3728:	f6 c2 01             	test   $0x1,%dl
    372b:	75 0b                	jne    3738 <string_p+0x18>
    372d:	b8 94 ce 12 00       	mov    $0x12ce94,%eax
    3732:	66 83 3a 11          	cmpw   $0x11,(%edx)
    3736:	74 05                	je     373d <string_p+0x1d>
    3738:	b8 80 ce 12 00       	mov    $0x12ce80,%eax
    373d:	5d                   	pop    %ebp
    373e:	c3                   	ret    

0000373f <string_ref>:
    373f:	55                   	push   %ebp
    3740:	89 e5                	mov    %esp,%ebp
    3742:	8b 45 0c             	mov    0xc(%ebp),%eax
    3745:	8b 50 04             	mov    0x4(%eax),%edx
    3748:	8b 52 04             	mov    0x4(%edx),%edx
    374b:	8b 08                	mov    (%eax),%ecx
    374d:	b8 40 ce 12 00       	mov    $0x12ce40,%eax
    3752:	3b 51 08             	cmp    0x8(%ecx),%edx
    3755:	7d 0c                	jge    3763 <string_ref+0x24>
    3757:	8b 41 04             	mov    0x4(%ecx),%eax
    375a:	0f be 04 10          	movsbl (%eax,%edx,1),%eax
    375e:	01 c0                	add    %eax,%eax
    3760:	83 c8 01             	or     $0x1,%eax
    3763:	5d                   	pop    %ebp
    3764:	c3                   	ret    

00003765 <string_set>:
    3765:	55                   	push   %ebp
    3766:	89 e5                	mov    %esp,%ebp
    3768:	8b 45 0c             	mov    0xc(%ebp),%eax
    376b:	8b 50 04             	mov    0x4(%eax),%edx
    376e:	8b 52 04             	mov    0x4(%edx),%edx
    3771:	8b 08                	mov    (%eax),%ecx
    3773:	3b 51 08             	cmp    0x8(%ecx),%edx
    3776:	7d 0b                	jge    3783 <string_set+0x1e>
    3778:	8b 49 04             	mov    0x4(%ecx),%ecx
    377b:	8b 40 08             	mov    0x8(%eax),%eax
    377e:	d1 f8                	sar    %eax
    3780:	88 04 11             	mov    %al,(%ecx,%edx,1)
    3783:	b8 40 ce 12 00       	mov    $0x12ce40,%eax
    3788:	5d                   	pop    %ebp
    3789:	c3                   	ret    

0000378a <string_eq>:
    378a:	55                   	push   %ebp
    378b:	89 e5                	mov    %esp,%ebp
    378d:	56                   	push   %esi
    378e:	53                   	push   %ebx
    378f:	8b 45 0c             	mov    0xc(%ebp),%eax
    3792:	8b 50 04             	mov    0x4(%eax),%edx
    3795:	8b 72 04             	mov    0x4(%edx),%esi
    3798:	8b 00                	mov    (%eax),%eax
    379a:	8b 58 04             	mov    0x4(%eax),%ebx
    379d:	b8 00 00 00 00       	mov    $0x0,%eax
    37a2:	0f b6 14 03          	movzbl (%ebx,%eax,1),%edx
    37a6:	84 d2                	test   %dl,%dl
    37a8:	74 16                	je     37c0 <string_eq+0x36>
    37aa:	0f b6 0c 06          	movzbl (%esi,%eax,1),%ecx
    37ae:	84 c9                	test   %cl,%cl
    37b0:	74 0e                	je     37c0 <string_eq+0x36>
    37b2:	83 c0 01             	add    $0x1,%eax
    37b5:	38 ca                	cmp    %cl,%dl
    37b7:	74 e9                	je     37a2 <string_eq+0x18>
    37b9:	b8 80 ce 12 00       	mov    $0x12ce80,%eax
    37be:	eb 05                	jmp    37c5 <string_eq+0x3b>
    37c0:	b8 94 ce 12 00       	mov    $0x12ce94,%eax
    37c5:	5b                   	pop    %ebx
    37c6:	5e                   	pop    %esi
    37c7:	5d                   	pop    %ebp
    37c8:	c3                   	ret    

000037c9 <string_ci_eq>:
    37c9:	55                   	push   %ebp
    37ca:	89 e5                	mov    %esp,%ebp
    37cc:	57                   	push   %edi
    37cd:	56                   	push   %esi
    37ce:	53                   	push   %ebx
    37cf:	83 ec 04             	sub    $0x4,%esp
    37d2:	8b 45 0c             	mov    0xc(%ebp),%eax
    37d5:	8b 50 04             	mov    0x4(%eax),%edx
    37d8:	8b 72 04             	mov    0x4(%edx),%esi
    37db:	8b 00                	mov    (%eax),%eax
    37dd:	8b 58 04             	mov    0x4(%eax),%ebx
    37e0:	0f b6 03             	movzbl (%ebx),%eax
    37e3:	84 c0                	test   %al,%al
    37e5:	74 46                	je     382d <string_ci_eq+0x64>
    37e7:	0f b6 16             	movzbl (%esi),%edx
    37ea:	84 d2                	test   %dl,%dl
    37ec:	74 3f                	je     382d <string_ci_eq+0x64>
    37ee:	0f be c0             	movsbl %al,%eax
    37f1:	0f be d2             	movsbl %dl,%edx
    37f4:	29 d0                	sub    %edx,%eax
    37f6:	89 c2                	mov    %eax,%edx
    37f8:	75 2c                	jne    3826 <string_ci_eq+0x5d>
    37fa:	89 c7                	mov    %eax,%edi
    37fc:	b8 00 00 00 00       	mov    $0x0,%eax
    3801:	89 55 f0             	mov    %edx,-0x10(%ebp)
    3804:	0f b6 54 03 01       	movzbl 0x1(%ebx,%eax,1),%edx
    3809:	84 d2                	test   %dl,%dl
    380b:	74 15                	je     3822 <string_ci_eq+0x59>
    380d:	0f b6 4c 06 01       	movzbl 0x1(%esi,%eax,1),%ecx
    3812:	84 c9                	test   %cl,%cl
    3814:	74 0c                	je     3822 <string_ci_eq+0x59>
    3816:	83 c0 01             	add    $0x1,%eax
    3819:	38 ca                	cmp    %cl,%dl
    381b:	75 09                	jne    3826 <string_ci_eq+0x5d>
    381d:	8b 7d f0             	mov    -0x10(%ebp),%edi
    3820:	eb e2                	jmp    3804 <string_ci_eq+0x3b>
    3822:	85 ff                	test   %edi,%edi
    3824:	74 07                	je     382d <string_ci_eq+0x64>
    3826:	b8 80 ce 12 00       	mov    $0x12ce80,%eax
    382b:	eb 05                	jmp    3832 <string_ci_eq+0x69>
    382d:	b8 94 ce 12 00       	mov    $0x12ce94,%eax
    3832:	83 c4 04             	add    $0x4,%esp
    3835:	5b                   	pop    %ebx
    3836:	5e                   	pop    %esi
    3837:	5f                   	pop    %edi
    3838:	5d                   	pop    %ebp
    3839:	c3                   	ret    

0000383a <string_lt>:
    383a:	55                   	push   %ebp
    383b:	89 e5                	mov    %esp,%ebp
    383d:	b8 40 ce 12 00       	mov    $0x12ce40,%eax
    3842:	5d                   	pop    %ebp
    3843:	c3                   	ret    

00003844 <string_gt>:
    3844:	55                   	push   %ebp
    3845:	89 e5                	mov    %esp,%ebp
    3847:	b8 40 ce 12 00       	mov    $0x12ce40,%eax
    384c:	5d                   	pop    %ebp
    384d:	c3                   	ret    

0000384e <string_lt_eq>:
    384e:	55                   	push   %ebp
    384f:	89 e5                	mov    %esp,%ebp
    3851:	b8 40 ce 12 00       	mov    $0x12ce40,%eax
    3856:	5d                   	pop    %ebp
    3857:	c3                   	ret    

00003858 <string_gt_eq>:
    3858:	55                   	push   %ebp
    3859:	89 e5                	mov    %esp,%ebp
    385b:	b8 40 ce 12 00       	mov    $0x12ce40,%eax
    3860:	5d                   	pop    %ebp
    3861:	c3                   	ret    

00003862 <string_ci_lt>:
    3862:	55                   	push   %ebp
    3863:	89 e5                	mov    %esp,%ebp
    3865:	b8 40 ce 12 00       	mov    $0x12ce40,%eax
    386a:	5d                   	pop    %ebp
    386b:	c3                   	ret    

0000386c <string_ci_gt>:
    386c:	55                   	push   %ebp
    386d:	89 e5                	mov    %esp,%ebp
    386f:	b8 40 ce 12 00       	mov    $0x12ce40,%eax
    3874:	5d                   	pop    %ebp
    3875:	c3                   	ret    

00003876 <string_ci_lt_eq>:
    3876:	55                   	push   %ebp
    3877:	89 e5                	mov    %esp,%ebp
    3879:	b8 40 ce 12 00       	mov    $0x12ce40,%eax
    387e:	5d                   	pop    %ebp
    387f:	c3                   	ret    

00003880 <string_ci_gt_eq>:
    3880:	55                   	push   %ebp
    3881:	89 e5                	mov    %esp,%ebp
    3883:	b8 40 ce 12 00       	mov    $0x12ce40,%eax
    3888:	5d                   	pop    %ebp
    3889:	c3                   	ret    

0000388a <substring>:
    388a:	55                   	push   %ebp
    388b:	89 e5                	mov    %esp,%ebp
    388d:	b8 40 ce 12 00       	mov    $0x12ce40,%eax
    3892:	5d                   	pop    %ebp
    3893:	c3                   	ret    

00003894 <string_append>:
    3894:	55                   	push   %ebp
    3895:	89 e5                	mov    %esp,%ebp
    3897:	b8 40 ce 12 00       	mov    $0x12ce40,%eax
    389c:	5d                   	pop    %ebp
    389d:	c3                   	ret    

0000389e <string_to_list>:
    389e:	55                   	push   %ebp
    389f:	89 e5                	mov    %esp,%ebp
    38a1:	b8 40 ce 12 00       	mov    $0x12ce40,%eax
    38a6:	5d                   	pop    %ebp
    38a7:	c3                   	ret    

000038a8 <list_to_string>:
    38a8:	55                   	push   %ebp
    38a9:	89 e5                	mov    %esp,%ebp
    38ab:	b8 40 ce 12 00       	mov    $0x12ce40,%eax
    38b0:	5d                   	pop    %ebp
    38b1:	c3                   	ret    

000038b2 <string_fill>:
    38b2:	55                   	push   %ebp
    38b3:	89 e5                	mov    %esp,%ebp
    38b5:	b8 40 ce 12 00       	mov    $0x12ce40,%eax
    38ba:	5d                   	pop    %ebp
    38bb:	c3                   	ret    

000038bc <string_length>:
    38bc:	55                   	push   %ebp
    38bd:	89 e5                	mov    %esp,%ebp
    38bf:	83 ec 18             	sub    $0x18,%esp
    38c2:	c7 04 24 10 00 00 00 	movl   $0x10,(%esp)
    38c9:	e8 86 38 00 00       	call   7154 <kmalloc>
    38ce:	85 c0                	test   %eax,%eax
    38d0:	75 07                	jne    38d9 <string_length+0x1d>
    38d2:	b8 40 ce 12 00       	mov    $0x12ce40,%eax
    38d7:	eb 0b                	jmp    38e4 <string_length+0x28>
    38d9:	8b 55 0c             	mov    0xc(%ebp),%edx
    38dc:	8b 12                	mov    (%edx),%edx
    38de:	8b 52 08             	mov    0x8(%edx),%edx
    38e1:	89 50 04             	mov    %edx,0x4(%eax)
    38e4:	c9                   	leave  
    38e5:	c3                   	ret    

000038e6 <scheme_alloc_string>:
    38e6:	55                   	push   %ebp
    38e7:	89 e5                	mov    %esp,%ebp
    38e9:	83 ec 18             	sub    $0x18,%esp
    38ec:	89 5d f8             	mov    %ebx,-0x8(%ebp)
    38ef:	89 75 fc             	mov    %esi,-0x4(%ebp)
    38f2:	8b 75 08             	mov    0x8(%ebp),%esi
    38f5:	c7 04 24 10 00 00 00 	movl   $0x10,(%esp)
    38fc:	e8 53 38 00 00       	call   7154 <kmalloc>
    3901:	89 c3                	mov    %eax,%ebx
    3903:	8d 46 01             	lea    0x1(%esi),%eax
    3906:	89 04 24             	mov    %eax,(%esp)
    3909:	e8 46 38 00 00       	call   7154 <kmalloc>
    390e:	66 c7 03 11 00       	movw   $0x11,(%ebx)
    3913:	89 43 04             	mov    %eax,0x4(%ebx)
    3916:	89 73 08             	mov    %esi,0x8(%ebx)
    3919:	89 d8                	mov    %ebx,%eax
    391b:	8b 5d f8             	mov    -0x8(%ebp),%ebx
    391e:	8b 75 fc             	mov    -0x4(%ebp),%esi
    3921:	89 ec                	mov    %ebp,%esp
    3923:	5d                   	pop    %ebp
    3924:	c3                   	ret    

00003925 <scheme_make_string>:
    3925:	55                   	push   %ebp
    3926:	89 e5                	mov    %esp,%ebp
    3928:	57                   	push   %edi
    3929:	56                   	push   %esi
    392a:	53                   	push   %ebx
    392b:	83 ec 2c             	sub    $0x2c,%esp
    392e:	8b 75 08             	mov    0x8(%ebp),%esi
    3931:	bb 00 00 00 00       	mov    $0x0,%ebx
    3936:	80 3e 00             	cmpb   $0x0,(%esi)
    3939:	74 09                	je     3944 <scheme_make_string+0x1f>
    393b:	83 c3 01             	add    $0x1,%ebx
    393e:	80 3c 1e 00          	cmpb   $0x0,(%esi,%ebx,1)
    3942:	75 f7                	jne    393b <scheme_make_string+0x16>
    3944:	c7 04 24 10 00 00 00 	movl   $0x10,(%esp)
    394b:	e8 04 38 00 00       	call   7154 <kmalloc>
    3950:	89 c7                	mov    %eax,%edi
    3952:	8d 43 01             	lea    0x1(%ebx),%eax
    3955:	89 04 24             	mov    %eax,(%esp)
    3958:	e8 f7 37 00 00       	call   7154 <kmalloc>
    395d:	89 45 e4             	mov    %eax,-0x1c(%ebp)
    3960:	ba 00 00 00 00       	mov    $0x0,%edx
    3965:	0f b6 0c 16          	movzbl (%esi,%edx,1),%ecx
    3969:	88 0c 10             	mov    %cl,(%eax,%edx,1)
    396c:	83 c2 01             	add    $0x1,%edx
    396f:	84 c9                	test   %cl,%cl
    3971:	75 f2                	jne    3965 <scheme_make_string+0x40>
    3973:	66 c7 07 11 00       	movw   $0x11,(%edi)
    3978:	8b 45 e4             	mov    -0x1c(%ebp),%eax
    397b:	89 47 04             	mov    %eax,0x4(%edi)
    397e:	89 5f 08             	mov    %ebx,0x8(%edi)
    3981:	89 f8                	mov    %edi,%eax
    3983:	83 c4 2c             	add    $0x2c,%esp
    3986:	5b                   	pop    %ebx
    3987:	5e                   	pop    %esi
    3988:	5f                   	pop    %edi
    3989:	5d                   	pop    %ebp
    398a:	c3                   	ret    

0000398b <string_copy>:
    398b:	55                   	push   %ebp
    398c:	89 e5                	mov    %esp,%ebp
    398e:	83 ec 28             	sub    $0x28,%esp
    3991:	89 5d f4             	mov    %ebx,-0xc(%ebp)
    3994:	89 75 f8             	mov    %esi,-0x8(%ebp)
    3997:	89 7d fc             	mov    %edi,-0x4(%ebp)
    399a:	8b 55 0c             	mov    0xc(%ebp),%edx
    399d:	8b 02                	mov    (%edx),%eax
    399f:	a8 01                	test   $0x1,%al
    39a1:	75 61                	jne    3a04 <string_copy+0x79>
    39a3:	66 83 38 11          	cmpw   $0x11,(%eax)
    39a7:	75 5b                	jne    3a04 <string_copy+0x79>
    39a9:	c7 04 24 10 00 00 00 	movl   $0x10,(%esp)
    39b0:	e8 9f 37 00 00       	call   7154 <kmalloc>
    39b5:	89 c3                	mov    %eax,%ebx
    39b7:	8b 55 0c             	mov    0xc(%ebp),%edx
    39ba:	8b 02                	mov    (%edx),%eax
    39bc:	8b 40 08             	mov    0x8(%eax),%eax
    39bf:	89 04 24             	mov    %eax,(%esp)
    39c2:	e8 8d 37 00 00       	call   7154 <kmalloc>
    39c7:	89 c7                	mov    %eax,%edi
    39c9:	85 db                	test   %ebx,%ebx
    39cb:	74 04                	je     39d1 <string_copy+0x46>
    39cd:	85 c0                	test   %eax,%eax
    39cf:	75 17                	jne    39e8 <string_copy+0x5d>
    39d1:	89 1c 24             	mov    %ebx,(%esp)
    39d4:	e8 12 37 00 00       	call   70eb <kfree>
    39d9:	89 3c 24             	mov    %edi,(%esp)
    39dc:	e8 0a 37 00 00       	call   70eb <kfree>
    39e1:	bb 40 ce 12 00       	mov    $0x12ce40,%ebx
    39e6:	eb 21                	jmp    3a09 <string_copy+0x7e>
    39e8:	8b 55 0c             	mov    0xc(%ebp),%edx
    39eb:	8b 02                	mov    (%edx),%eax
    39ed:	8b 70 04             	mov    0x4(%eax),%esi
    39f0:	8b 48 08             	mov    0x8(%eax),%ecx
    39f3:	56                   	push   %esi
    39f4:	57                   	push   %edi
    39f5:	fc                   	cld    
    39f6:	f3 a4                	rep movsb %ds:(%esi),%es:(%edi)
    39f8:	5f                   	pop    %edi
    39f9:	5e                   	pop    %esi
    39fa:	8b 02                	mov    (%edx),%eax
    39fc:	8b 40 08             	mov    0x8(%eax),%eax
    39ff:	89 43 08             	mov    %eax,0x8(%ebx)
    3a02:	eb 05                	jmp    3a09 <string_copy+0x7e>
    3a04:	bb 40 ce 12 00       	mov    $0x12ce40,%ebx
    3a09:	89 d8                	mov    %ebx,%eax
    3a0b:	8b 5d f4             	mov    -0xc(%ebp),%ebx
    3a0e:	8b 75 f8             	mov    -0x8(%ebp),%esi
    3a11:	8b 7d fc             	mov    -0x4(%ebp),%edi
    3a14:	89 ec                	mov    %ebp,%esp
    3a16:	5d                   	pop    %ebp
    3a17:	c3                   	ret    

00003a18 <string>:
    3a18:	55                   	push   %ebp
    3a19:	89 e5                	mov    %esp,%ebp
    3a1b:	57                   	push   %edi
    3a1c:	56                   	push   %esi
    3a1d:	53                   	push   %ebx
    3a1e:	83 ec 2c             	sub    $0x2c,%esp
    3a21:	8b 75 08             	mov    0x8(%ebp),%esi
    3a24:	8b 7d 0c             	mov    0xc(%ebp),%edi
    3a27:	c7 04 24 10 00 00 00 	movl   $0x10,(%esp)
    3a2e:	e8 21 37 00 00       	call   7154 <kmalloc>
    3a33:	89 45 e4             	mov    %eax,-0x1c(%ebp)
    3a36:	8d 46 01             	lea    0x1(%esi),%eax
    3a39:	89 04 24             	mov    %eax,(%esp)
    3a3c:	e8 13 37 00 00       	call   7154 <kmalloc>
    3a41:	89 c3                	mov    %eax,%ebx
    3a43:	83 7d e4 00          	cmpl   $0x0,-0x1c(%ebp)
    3a47:	74 04                	je     3a4d <string+0x35>
    3a49:	85 c0                	test   %eax,%eax
    3a4b:	75 1c                	jne    3a69 <string+0x51>
    3a4d:	8b 45 e4             	mov    -0x1c(%ebp),%eax
    3a50:	89 04 24             	mov    %eax,(%esp)
    3a53:	e8 93 36 00 00       	call   70eb <kfree>
    3a58:	89 1c 24             	mov    %ebx,(%esp)
    3a5b:	e8 8b 36 00 00       	call   70eb <kfree>
    3a60:	c7 45 e4 40 ce 12 00 	movl   $0x12ce40,-0x1c(%ebp)
    3a67:	eb 50                	jmp    3ab9 <string+0xa1>
    3a69:	8b 45 e4             	mov    -0x1c(%ebp),%eax
    3a6c:	66 c7 00 11 00       	movw   $0x11,(%eax)
    3a71:	89 58 04             	mov    %ebx,0x4(%eax)
    3a74:	89 70 08             	mov    %esi,0x8(%eax)
    3a77:	85 f6                	test   %esi,%esi
    3a79:	7e 3b                	jle    3ab6 <string+0x9e>
    3a7b:	8b 07                	mov    (%edi),%eax
    3a7d:	a8 01                	test   $0x1,%al
    3a7f:	75 27                	jne    3aa8 <string+0x90>
    3a81:	eb 09                	jmp    3a8c <string+0x74>
    3a83:	83 c7 04             	add    $0x4,%edi
    3a86:	8b 07                	mov    (%edi),%eax
    3a88:	a8 01                	test   $0x1,%al
    3a8a:	75 1c                	jne    3aa8 <string+0x90>
    3a8c:	8b 45 e4             	mov    -0x1c(%ebp),%eax
    3a8f:	89 04 24             	mov    %eax,(%esp)
    3a92:	e8 54 36 00 00       	call   70eb <kfree>
    3a97:	89 1c 24             	mov    %ebx,(%esp)
    3a9a:	e8 4c 36 00 00       	call   70eb <kfree>
    3a9f:	c7 45 e4 40 ce 12 00 	movl   $0x12ce40,-0x1c(%ebp)
    3aa6:	eb 11                	jmp    3ab9 <string+0xa1>
    3aa8:	d1 f8                	sar    %eax
    3aaa:	88 03                	mov    %al,(%ebx)
    3aac:	83 c3 01             	add    $0x1,%ebx
    3aaf:	83 ee 01             	sub    $0x1,%esi
    3ab2:	85 f6                	test   %esi,%esi
    3ab4:	7f cd                	jg     3a83 <string+0x6b>
    3ab6:	c6 03 00             	movb   $0x0,(%ebx)
    3ab9:	8b 45 e4             	mov    -0x1c(%ebp),%eax
    3abc:	83 c4 2c             	add    $0x2c,%esp
    3abf:	5b                   	pop    %ebx
    3ac0:	5e                   	pop    %esi
    3ac1:	5f                   	pop    %edi
    3ac2:	5d                   	pop    %ebp
    3ac3:	c3                   	ret    

00003ac4 <make_string>:
    3ac4:	55                   	push   %ebp
    3ac5:	89 e5                	mov    %esp,%ebp
    3ac7:	83 ec 38             	sub    $0x38,%esp
    3aca:	89 5d f4             	mov    %ebx,-0xc(%ebp)
    3acd:	89 75 f8             	mov    %esi,-0x8(%ebp)
    3ad0:	89 7d fc             	mov    %edi,-0x4(%ebp)
    3ad3:	8b 75 0c             	mov    0xc(%ebp),%esi
    3ad6:	8b 06                	mov    (%esi),%eax
    3ad8:	a8 01                	test   $0x1,%al
    3ada:	0f 85 85 00 00 00    	jne    3b65 <make_string+0xa1>
    3ae0:	66 83 38 0a          	cmpw   $0xa,(%eax)
    3ae4:	75 7f                	jne    3b65 <make_string+0xa1>
    3ae6:	c6 45 d8 61          	movb   $0x61,-0x28(%ebp)
    3aea:	83 7d 08 01          	cmpl   $0x1,0x8(%ebp)
    3aee:	74 11                	je     3b01 <make_string+0x3d>
    3af0:	8b 46 04             	mov    0x4(%esi),%eax
    3af3:	bb 40 ce 12 00       	mov    $0x12ce40,%ebx
    3af8:	a8 01                	test   $0x1,%al
    3afa:	74 6e                	je     3b6a <make_string+0xa6>
    3afc:	d1 e8                	shr    %eax
    3afe:	88 45 d8             	mov    %al,-0x28(%ebp)
    3b01:	c7 04 24 10 00 00 00 	movl   $0x10,(%esp)
    3b08:	e8 47 36 00 00       	call   7154 <kmalloc>
    3b0d:	89 c3                	mov    %eax,%ebx
    3b0f:	8b 06                	mov    (%esi),%eax
    3b11:	8b 70 04             	mov    0x4(%eax),%esi
    3b14:	8d 46 01             	lea    0x1(%esi),%eax
    3b17:	89 04 24             	mov    %eax,(%esp)
    3b1a:	e8 35 36 00 00       	call   7154 <kmalloc>
    3b1f:	89 c7                	mov    %eax,%edi
    3b21:	85 db                	test   %ebx,%ebx
    3b23:	74 04                	je     3b29 <make_string+0x65>
    3b25:	85 c0                	test   %eax,%eax
    3b27:	75 17                	jne    3b40 <make_string+0x7c>
    3b29:	89 1c 24             	mov    %ebx,(%esp)
    3b2c:	e8 ba 35 00 00       	call   70eb <kfree>
    3b31:	89 3c 24             	mov    %edi,(%esp)
    3b34:	e8 b2 35 00 00       	call   70eb <kfree>
    3b39:	bb 40 ce 12 00       	mov    $0x12ce40,%ebx
    3b3e:	eb 2a                	jmp    3b6a <make_string+0xa6>
    3b40:	89 74 24 08          	mov    %esi,0x8(%esp)
    3b44:	0f be 45 d8          	movsbl -0x28(%ebp),%eax
    3b48:	89 44 24 04          	mov    %eax,0x4(%esp)
    3b4c:	89 3c 24             	mov    %edi,(%esp)
    3b4f:	e8 54 38 00 00       	call   73a8 <memset>
    3b54:	c6 04 37 00          	movb   $0x0,(%edi,%esi,1)
    3b58:	66 c7 03 11 00       	movw   $0x11,(%ebx)
    3b5d:	89 7b 04             	mov    %edi,0x4(%ebx)
    3b60:	89 73 08             	mov    %esi,0x8(%ebx)
    3b63:	eb 05                	jmp    3b6a <make_string+0xa6>
    3b65:	bb 40 ce 12 00       	mov    $0x12ce40,%ebx
    3b6a:	89 d8                	mov    %ebx,%eax
    3b6c:	8b 5d f4             	mov    -0xc(%ebp),%ebx
    3b6f:	8b 75 f8             	mov    -0x8(%ebp),%esi
    3b72:	8b 7d fc             	mov    -0x4(%ebp),%edi
    3b75:	89 ec                	mov    %ebp,%esp
    3b77:	5d                   	pop    %ebp
    3b78:	c3                   	ret    

00003b79 <scheme_init_string>:
    3b79:	55                   	push   %ebp
    3b7a:	89 e5                	mov    %esp,%ebp
    3b7c:	53                   	push   %ebx
    3b7d:	83 ec 24             	sub    $0x24,%esp
    3b80:	8b 5d 08             	mov    0x8(%ebp),%ebx
    3b83:	89 5c 24 10          	mov    %ebx,0x10(%esp)
    3b87:	c7 44 24 0c 02 00 00 	movl   $0x2,0xc(%esp)
    3b8e:	00 
    3b8f:	c7 44 24 08 01 00 00 	movl   $0x1,0x8(%esp)
    3b96:	00 
    3b97:	c7 44 24 04 c4 3a 00 	movl   $0x3ac4,0x4(%esp)
    3b9e:	00 
    3b9f:	c7 04 24 41 7d 00 00 	movl   $0x7d41,(%esp)
    3ba6:	e8 2f 25 00 00       	call   60da <scheme_register_primitive>
    3bab:	89 5c 24 10          	mov    %ebx,0x10(%esp)
    3baf:	c7 44 24 0c ff ff ff 	movl   $0xffffffff,0xc(%esp)
    3bb6:	ff 
    3bb7:	c7 44 24 08 01 00 00 	movl   $0x1,0x8(%esp)
    3bbe:	00 
    3bbf:	c7 44 24 04 18 3a 00 	movl   $0x3a18,0x4(%esp)
    3bc6:	00 
    3bc7:	c7 04 24 46 7d 00 00 	movl   $0x7d46,(%esp)
    3bce:	e8 07 25 00 00       	call   60da <scheme_register_primitive>
    3bd3:	89 5c 24 10          	mov    %ebx,0x10(%esp)
    3bd7:	c7 44 24 0c 01 00 00 	movl   $0x1,0xc(%esp)
    3bde:	00 
    3bdf:	c7 44 24 08 01 00 00 	movl   $0x1,0x8(%esp)
    3be6:	00 
    3be7:	c7 44 24 04 20 37 00 	movl   $0x3720,0x4(%esp)
    3bee:	00 
    3bef:	c7 04 24 4d 7d 00 00 	movl   $0x7d4d,(%esp)
    3bf6:	e8 df 24 00 00       	call   60da <scheme_register_primitive>
    3bfb:	89 5c 24 10          	mov    %ebx,0x10(%esp)
    3bff:	c7 44 24 0c 01 00 00 	movl   $0x1,0xc(%esp)
    3c06:	00 
    3c07:	c7 44 24 08 01 00 00 	movl   $0x1,0x8(%esp)
    3c0e:	00 
    3c0f:	c7 44 24 04 bc 38 00 	movl   $0x38bc,0x4(%esp)
    3c16:	00 
    3c17:	c7 04 24 55 7d 00 00 	movl   $0x7d55,(%esp)
    3c1e:	e8 b7 24 00 00       	call   60da <scheme_register_primitive>
    3c23:	89 5c 24 10          	mov    %ebx,0x10(%esp)
    3c27:	c7 44 24 0c 02 00 00 	movl   $0x2,0xc(%esp)
    3c2e:	00 
    3c2f:	c7 44 24 08 02 00 00 	movl   $0x2,0x8(%esp)
    3c36:	00 
    3c37:	c7 44 24 04 3f 37 00 	movl   $0x373f,0x4(%esp)
    3c3e:	00 
    3c3f:	c7 04 24 63 7d 00 00 	movl   $0x7d63,(%esp)
    3c46:	e8 8f 24 00 00       	call   60da <scheme_register_primitive>
    3c4b:	89 5c 24 10          	mov    %ebx,0x10(%esp)
    3c4f:	c7 44 24 0c 03 00 00 	movl   $0x3,0xc(%esp)
    3c56:	00 
    3c57:	c7 44 24 08 03 00 00 	movl   $0x3,0x8(%esp)
    3c5e:	00 
    3c5f:	c7 44 24 04 65 37 00 	movl   $0x3765,0x4(%esp)
    3c66:	00 
    3c67:	c7 04 24 6e 7d 00 00 	movl   $0x7d6e,(%esp)
    3c6e:	e8 67 24 00 00       	call   60da <scheme_register_primitive>
    3c73:	89 5c 24 10          	mov    %ebx,0x10(%esp)
    3c77:	c7 44 24 0c 02 00 00 	movl   $0x2,0xc(%esp)
    3c7e:	00 
    3c7f:	c7 44 24 08 02 00 00 	movl   $0x2,0x8(%esp)
    3c86:	00 
    3c87:	c7 44 24 04 8a 37 00 	movl   $0x378a,0x4(%esp)
    3c8e:	00 
    3c8f:	c7 04 24 7a 7d 00 00 	movl   $0x7d7a,(%esp)
    3c96:	e8 3f 24 00 00       	call   60da <scheme_register_primitive>
    3c9b:	89 5c 24 10          	mov    %ebx,0x10(%esp)
    3c9f:	c7 44 24 0c 02 00 00 	movl   $0x2,0xc(%esp)
    3ca6:	00 
    3ca7:	c7 44 24 08 02 00 00 	movl   $0x2,0x8(%esp)
    3cae:	00 
    3caf:	c7 44 24 04 c9 37 00 	movl   $0x37c9,0x4(%esp)
    3cb6:	00 
    3cb7:	c7 04 24 83 7d 00 00 	movl   $0x7d83,(%esp)
    3cbe:	e8 17 24 00 00       	call   60da <scheme_register_primitive>
    3cc3:	89 5c 24 10          	mov    %ebx,0x10(%esp)
    3cc7:	c7 44 24 0c 02 00 00 	movl   $0x2,0xc(%esp)
    3cce:	00 
    3ccf:	c7 44 24 08 02 00 00 	movl   $0x2,0x8(%esp)
    3cd6:	00 
    3cd7:	c7 44 24 04 3a 38 00 	movl   $0x383a,0x4(%esp)
    3cde:	00 
    3cdf:	c7 04 24 8f 7d 00 00 	movl   $0x7d8f,(%esp)
    3ce6:	e8 ef 23 00 00       	call   60da <scheme_register_primitive>
    3ceb:	89 5c 24 10          	mov    %ebx,0x10(%esp)
    3cef:	c7 44 24 0c 02 00 00 	movl   $0x2,0xc(%esp)
    3cf6:	00 
    3cf7:	c7 44 24 08 02 00 00 	movl   $0x2,0x8(%esp)
    3cfe:	00 
    3cff:	c7 44 24 04 44 38 00 	movl   $0x3844,0x4(%esp)
    3d06:	00 
    3d07:	c7 04 24 98 7d 00 00 	movl   $0x7d98,(%esp)
    3d0e:	e8 c7 23 00 00       	call   60da <scheme_register_primitive>
    3d13:	89 5c 24 10          	mov    %ebx,0x10(%esp)
    3d17:	c7 44 24 0c 02 00 00 	movl   $0x2,0xc(%esp)
    3d1e:	00 
    3d1f:	c7 44 24 08 02 00 00 	movl   $0x2,0x8(%esp)
    3d26:	00 
    3d27:	c7 44 24 04 4e 38 00 	movl   $0x384e,0x4(%esp)
    3d2e:	00 
    3d2f:	c7 04 24 a1 7d 00 00 	movl   $0x7da1,(%esp)
    3d36:	e8 9f 23 00 00       	call   60da <scheme_register_primitive>
    3d3b:	89 5c 24 10          	mov    %ebx,0x10(%esp)
    3d3f:	c7 44 24 0c 02 00 00 	movl   $0x2,0xc(%esp)
    3d46:	00 
    3d47:	c7 44 24 08 02 00 00 	movl   $0x2,0x8(%esp)
    3d4e:	00 
    3d4f:	c7 44 24 04 58 38 00 	movl   $0x3858,0x4(%esp)
    3d56:	00 
    3d57:	c7 04 24 ab 7d 00 00 	movl   $0x7dab,(%esp)
    3d5e:	e8 77 23 00 00       	call   60da <scheme_register_primitive>
    3d63:	89 5c 24 10          	mov    %ebx,0x10(%esp)
    3d67:	c7 44 24 0c 02 00 00 	movl   $0x2,0xc(%esp)
    3d6e:	00 
    3d6f:	c7 44 24 08 02 00 00 	movl   $0x2,0x8(%esp)
    3d76:	00 
    3d77:	c7 44 24 04 62 38 00 	movl   $0x3862,0x4(%esp)
    3d7e:	00 
    3d7f:	c7 04 24 b5 7d 00 00 	movl   $0x7db5,(%esp)
    3d86:	e8 4f 23 00 00       	call   60da <scheme_register_primitive>
    3d8b:	89 5c 24 10          	mov    %ebx,0x10(%esp)
    3d8f:	c7 44 24 0c 02 00 00 	movl   $0x2,0xc(%esp)
    3d96:	00 
    3d97:	c7 44 24 08 02 00 00 	movl   $0x2,0x8(%esp)
    3d9e:	00 
    3d9f:	c7 44 24 04 6c 38 00 	movl   $0x386c,0x4(%esp)
    3da6:	00 
    3da7:	c7 04 24 c1 7d 00 00 	movl   $0x7dc1,(%esp)
    3dae:	e8 27 23 00 00       	call   60da <scheme_register_primitive>
    3db3:	89 5c 24 10          	mov    %ebx,0x10(%esp)
    3db7:	c7 44 24 0c 02 00 00 	movl   $0x2,0xc(%esp)
    3dbe:	00 
    3dbf:	c7 44 24 08 02 00 00 	movl   $0x2,0x8(%esp)
    3dc6:	00 
    3dc7:	c7 44 24 04 76 38 00 	movl   $0x3876,0x4(%esp)
    3dce:	00 
    3dcf:	c7 04 24 cd 7d 00 00 	movl   $0x7dcd,(%esp)
    3dd6:	e8 ff 22 00 00       	call   60da <scheme_register_primitive>
    3ddb:	89 5c 24 10          	mov    %ebx,0x10(%esp)
    3ddf:	c7 44 24 0c 02 00 00 	movl   $0x2,0xc(%esp)
    3de6:	00 
    3de7:	c7 44 24 08 02 00 00 	movl   $0x2,0x8(%esp)
    3dee:	00 
    3def:	c7 44 24 04 80 38 00 	movl   $0x3880,0x4(%esp)
    3df6:	00 
    3df7:	c7 04 24 da 7d 00 00 	movl   $0x7dda,(%esp)
    3dfe:	e8 d7 22 00 00       	call   60da <scheme_register_primitive>
    3e03:	89 5c 24 10          	mov    %ebx,0x10(%esp)
    3e07:	c7 44 24 0c 03 00 00 	movl   $0x3,0xc(%esp)
    3e0e:	00 
    3e0f:	c7 44 24 08 03 00 00 	movl   $0x3,0x8(%esp)
    3e16:	00 
    3e17:	c7 44 24 04 8a 38 00 	movl   $0x388a,0x4(%esp)
    3e1e:	00 
    3e1f:	c7 04 24 e7 7d 00 00 	movl   $0x7de7,(%esp)
    3e26:	e8 af 22 00 00       	call   60da <scheme_register_primitive>
    3e2b:	89 5c 24 10          	mov    %ebx,0x10(%esp)
    3e2f:	c7 44 24 0c ff ff ff 	movl   $0xffffffff,0xc(%esp)
    3e36:	ff 
    3e37:	c7 44 24 08 01 00 00 	movl   $0x1,0x8(%esp)
    3e3e:	00 
    3e3f:	c7 44 24 04 94 38 00 	movl   $0x3894,0x4(%esp)
    3e46:	00 
    3e47:	c7 04 24 f1 7d 00 00 	movl   $0x7df1,(%esp)
    3e4e:	e8 87 22 00 00       	call   60da <scheme_register_primitive>
    3e53:	89 5c 24 10          	mov    %ebx,0x10(%esp)
    3e57:	c7 44 24 0c 01 00 00 	movl   $0x1,0xc(%esp)
    3e5e:	00 
    3e5f:	c7 44 24 08 01 00 00 	movl   $0x1,0x8(%esp)
    3e66:	00 
    3e67:	c7 44 24 04 9e 38 00 	movl   $0x389e,0x4(%esp)
    3e6e:	00 
    3e6f:	c7 04 24 ff 7d 00 00 	movl   $0x7dff,(%esp)
    3e76:	e8 5f 22 00 00       	call   60da <scheme_register_primitive>
    3e7b:	89 5c 24 10          	mov    %ebx,0x10(%esp)
    3e7f:	c7 44 24 0c 01 00 00 	movl   $0x1,0xc(%esp)
    3e86:	00 
    3e87:	c7 44 24 08 01 00 00 	movl   $0x1,0x8(%esp)
    3e8e:	00 
    3e8f:	c7 44 24 04 a8 38 00 	movl   $0x38a8,0x4(%esp)
    3e96:	00 
    3e97:	c7 04 24 0c 7e 00 00 	movl   $0x7e0c,(%esp)
    3e9e:	e8 37 22 00 00       	call   60da <scheme_register_primitive>
    3ea3:	89 5c 24 10          	mov    %ebx,0x10(%esp)
    3ea7:	c7 44 24 0c 01 00 00 	movl   $0x1,0xc(%esp)
    3eae:	00 
    3eaf:	c7 44 24 08 01 00 00 	movl   $0x1,0x8(%esp)
    3eb6:	00 
    3eb7:	c7 44 24 04 8b 39 00 	movl   $0x398b,0x4(%esp)
    3ebe:	00 
    3ebf:	c7 04 24 19 7e 00 00 	movl   $0x7e19,(%esp)
    3ec6:	e8 0f 22 00 00       	call   60da <scheme_register_primitive>
    3ecb:	89 5c 24 10          	mov    %ebx,0x10(%esp)
    3ecf:	c7 44 24 0c 02 00 00 	movl   $0x2,0xc(%esp)
    3ed6:	00 
    3ed7:	c7 44 24 08 02 00 00 	movl   $0x2,0x8(%esp)
    3ede:	00 
    3edf:	c7 44 24 04 b2 38 00 	movl   $0x38b2,0x4(%esp)
    3ee6:	00 
    3ee7:	c7 04 24 26 7e 00 00 	movl   $0x7e26,(%esp)
    3eee:	e8 e7 21 00 00       	call   60da <scheme_register_primitive>
    3ef3:	83 c4 24             	add    $0x24,%esp
    3ef6:	5b                   	pop    %ebx
    3ef7:	5d                   	pop    %ebp
    3ef8:	c3                   	ret    
    3ef9:	90                   	nop
    3efa:	90                   	nop
    3efb:	90                   	nop
    3efc:	90                   	nop
    3efd:	90                   	nop
    3efe:	90                   	nop
    3eff:	90                   	nop

00003f00 <car>:
    3f00:	55                   	push   %ebp
    3f01:	89 e5                	mov    %esp,%ebp
    3f03:	8b 45 0c             	mov    0xc(%ebp),%eax
    3f06:	8b 00                	mov    (%eax),%eax
    3f08:	8b 40 04             	mov    0x4(%eax),%eax
    3f0b:	5d                   	pop    %ebp
    3f0c:	c3                   	ret    

00003f0d <cdr>:
    3f0d:	55                   	push   %ebp
    3f0e:	89 e5                	mov    %esp,%ebp
    3f10:	8b 45 0c             	mov    0xc(%ebp),%eax
    3f13:	8b 00                	mov    (%eax),%eax
    3f15:	8b 40 08             	mov    0x8(%eax),%eax
    3f18:	5d                   	pop    %ebp
    3f19:	c3                   	ret    

00003f1a <set_car>:
    3f1a:	55                   	push   %ebp
    3f1b:	89 e5                	mov    %esp,%ebp
    3f1d:	8b 45 0c             	mov    0xc(%ebp),%eax
    3f20:	8b 10                	mov    (%eax),%edx
    3f22:	8b 40 04             	mov    0x4(%eax),%eax
    3f25:	89 42 04             	mov    %eax,0x4(%edx)
    3f28:	b8 40 ce 12 00       	mov    $0x12ce40,%eax
    3f2d:	5d                   	pop    %ebp
    3f2e:	c3                   	ret    

00003f2f <set_cdr>:
    3f2f:	55                   	push   %ebp
    3f30:	89 e5                	mov    %esp,%ebp
    3f32:	8b 45 0c             	mov    0xc(%ebp),%eax
    3f35:	8b 10                	mov    (%eax),%edx
    3f37:	8b 40 04             	mov    0x4(%eax),%eax
    3f3a:	89 42 08             	mov    %eax,0x8(%edx)
    3f3d:	b8 40 ce 12 00       	mov    $0x12ce40,%eax
    3f42:	5d                   	pop    %ebp
    3f43:	c3                   	ret    

00003f44 <null_p>:
    3f44:	55                   	push   %ebp
    3f45:	89 e5                	mov    %esp,%ebp
    3f47:	b8 94 ce 12 00       	mov    $0x12ce94,%eax
    3f4c:	8b 55 0c             	mov    0xc(%ebp),%edx
    3f4f:	81 3a 50 ce 12 00    	cmpl   $0x12ce50,(%edx)
    3f55:	74 05                	je     3f5c <null_p+0x18>
    3f57:	b8 80 ce 12 00       	mov    $0x12ce80,%eax
    3f5c:	5d                   	pop    %ebp
    3f5d:	c3                   	ret    

00003f5e <list_p>:
    3f5e:	55                   	push   %ebp
    3f5f:	89 e5                	mov    %esp,%ebp
    3f61:	8b 45 0c             	mov    0xc(%ebp),%eax
    3f64:	8b 10                	mov    (%eax),%edx
    3f66:	eb 03                	jmp    3f6b <list_p+0xd>
    3f68:	8b 52 08             	mov    0x8(%edx),%edx
    3f6b:	f6 c2 01             	test   $0x1,%dl
    3f6e:	75 06                	jne    3f76 <list_p+0x18>
    3f70:	66 83 3a 14          	cmpw   $0x14,(%edx)
    3f74:	74 f2                	je     3f68 <list_p+0xa>
    3f76:	b8 94 ce 12 00       	mov    $0x12ce94,%eax
    3f7b:	81 fa 50 ce 12 00    	cmp    $0x12ce50,%edx
    3f81:	74 05                	je     3f88 <list_p+0x2a>
    3f83:	b8 80 ce 12 00       	mov    $0x12ce80,%eax
    3f88:	5d                   	pop    %ebp
    3f89:	c3                   	ret    

00003f8a <reverse>:
    3f8a:	55                   	push   %ebp
    3f8b:	89 e5                	mov    %esp,%ebp
    3f8d:	b8 00 00 00 00       	mov    $0x0,%eax
    3f92:	5d                   	pop    %ebp
    3f93:	c3                   	ret    

00003f94 <length>:
    3f94:	55                   	push   %ebp
    3f95:	89 e5                	mov    %esp,%ebp
    3f97:	53                   	push   %ebx
    3f98:	83 ec 14             	sub    $0x14,%esp
    3f9b:	8b 45 0c             	mov    0xc(%ebp),%eax
    3f9e:	8b 10                	mov    (%eax),%edx
    3fa0:	bb 00 00 00 00       	mov    $0x0,%ebx
    3fa5:	eb 06                	jmp    3fad <length+0x19>
    3fa7:	83 c3 01             	add    $0x1,%ebx
    3faa:	8b 52 08             	mov    0x8(%edx),%edx
    3fad:	f6 c2 01             	test   $0x1,%dl
    3fb0:	75 06                	jne    3fb8 <length+0x24>
    3fb2:	66 83 3a 14          	cmpw   $0x14,(%edx)
    3fb6:	74 ef                	je     3fa7 <length+0x13>
    3fb8:	b8 40 ce 12 00       	mov    $0x12ce40,%eax
    3fbd:	81 fa 50 ce 12 00    	cmp    $0x12ce50,%edx
    3fc3:	75 1b                	jne    3fe0 <length+0x4c>
    3fc5:	c7 04 24 10 00 00 00 	movl   $0x10,(%esp)
    3fcc:	e8 83 31 00 00       	call   7154 <kmalloc>
    3fd1:	3d 40 ce 12 00       	cmp    $0x12ce40,%eax
    3fd6:	74 08                	je     3fe0 <length+0x4c>
    3fd8:	66 c7 00 0a 00       	movw   $0xa,(%eax)
    3fdd:	89 58 04             	mov    %ebx,0x4(%eax)
    3fe0:	83 c4 14             	add    $0x14,%esp
    3fe3:	5b                   	pop    %ebx
    3fe4:	5d                   	pop    %ebp
    3fe5:	c3                   	ret    

00003fe6 <cons>:
    3fe6:	55                   	push   %ebp
    3fe7:	89 e5                	mov    %esp,%ebp
    3fe9:	53                   	push   %ebx
    3fea:	83 ec 14             	sub    $0x14,%esp
    3fed:	8b 5d 0c             	mov    0xc(%ebp),%ebx
    3ff0:	c7 04 24 10 00 00 00 	movl   $0x10,(%esp)
    3ff7:	e8 58 31 00 00       	call   7154 <kmalloc>
    3ffc:	3d 40 ce 12 00       	cmp    $0x12ce40,%eax
    4001:	74 10                	je     4013 <cons+0x2d>
    4003:	66 c7 00 14 00       	movw   $0x14,(%eax)
    4008:	8b 13                	mov    (%ebx),%edx
    400a:	89 50 04             	mov    %edx,0x4(%eax)
    400d:	8b 53 04             	mov    0x4(%ebx),%edx
    4010:	89 50 08             	mov    %edx,0x8(%eax)
    4013:	83 c4 14             	add    $0x14,%esp
    4016:	5b                   	pop    %ebx
    4017:	5d                   	pop    %ebp
    4018:	c3                   	ret    

00004019 <scheme_make_pair>:
    4019:	55                   	push   %ebp
    401a:	89 e5                	mov    %esp,%ebp
    401c:	83 ec 18             	sub    $0x18,%esp
    401f:	c7 04 24 10 00 00 00 	movl   $0x10,(%esp)
    4026:	e8 29 31 00 00       	call   7154 <kmalloc>
    402b:	66 c7 00 14 00       	movw   $0x14,(%eax)
    4030:	8b 55 08             	mov    0x8(%ebp),%edx
    4033:	89 50 04             	mov    %edx,0x4(%eax)
    4036:	8b 55 0c             	mov    0xc(%ebp),%edx
    4039:	89 50 08             	mov    %edx,0x8(%eax)
    403c:	c9                   	leave  
    403d:	c3                   	ret    

0000403e <append>:
    403e:	55                   	push   %ebp
    403f:	89 e5                	mov    %esp,%ebp
    4041:	57                   	push   %edi
    4042:	56                   	push   %esi
    4043:	53                   	push   %ebx
    4044:	83 ec 2c             	sub    $0x2c,%esp
    4047:	8b 75 08             	mov    0x8(%ebp),%esi
    404a:	8b 45 0c             	mov    0xc(%ebp),%eax
    404d:	8b 18                	mov    (%eax),%ebx
    404f:	bf 50 ce 12 00       	mov    $0x12ce50,%edi
    4054:	89 7d e4             	mov    %edi,-0x1c(%ebp)
    4057:	83 fe 01             	cmp    $0x1,%esi
    405a:	0f 8e af 00 00 00    	jle    410f <append+0xd1>
    4060:	f6 c3 01             	test   $0x1,%bl
    4063:	75 06                	jne    406b <append+0x2d>
    4065:	66 83 3b 14          	cmpw   $0x14,(%ebx)
    4069:	74 21                	je     408c <append+0x4e>
    406b:	81 fb 50 ce 12 00    	cmp    $0x12ce50,%ebx
    4071:	0f 85 88 00 00 00    	jne    40ff <append+0xc1>
    4077:	83 ee 01             	sub    $0x1,%esi
    407a:	8b 45 0c             	mov    0xc(%ebp),%eax
    407d:	8b 18                	mov    (%eax),%ebx
    407f:	83 c0 04             	add    $0x4,%eax
    4082:	89 45 0c             	mov    %eax,0xc(%ebp)
    4085:	89 d8                	mov    %ebx,%eax
    4087:	83 fe 01             	cmp    $0x1,%esi
    408a:	7e 56                	jle    40e2 <append+0xa4>
    408c:	c7 04 24 10 00 00 00 	movl   $0x10,(%esp)
    4093:	e8 bc 30 00 00       	call   7154 <kmalloc>
    4098:	3d 40 ce 12 00       	cmp    $0x12ce40,%eax
    409d:	75 2a                	jne    40c9 <append+0x8b>
    409f:	c7 47 08 50 ce 12 00 	movl   $0x12ce50,0x8(%edi)
    40a6:	81 7d e4 50 ce 12 00 	cmpl   $0x12ce50,-0x1c(%ebp)
    40ad:	74 59                	je     4108 <append+0xca>
    40af:	8b 45 e4             	mov    -0x1c(%ebp),%eax
    40b2:	8b 58 08             	mov    0x8(%eax),%ebx
    40b5:	89 04 24             	mov    %eax,(%esp)
    40b8:	e8 2e 30 00 00       	call   70eb <kfree>
    40bd:	81 fb 50 ce 12 00    	cmp    $0x12ce50,%ebx
    40c3:	74 43                	je     4108 <append+0xca>
    40c5:	89 d8                	mov    %ebx,%eax
    40c7:	eb e9                	jmp    40b2 <append+0x74>
    40c9:	8b 13                	mov    (%ebx),%edx
    40cb:	89 10                	mov    %edx,(%eax)
    40cd:	8b 53 04             	mov    0x4(%ebx),%edx
    40d0:	89 50 04             	mov    %edx,0x4(%eax)
    40d3:	8b 53 08             	mov    0x8(%ebx),%edx
    40d6:	89 50 08             	mov    %edx,0x8(%eax)
    40d9:	8b 53 0c             	mov    0xc(%ebx),%edx
    40dc:	89 50 0c             	mov    %edx,0xc(%eax)
    40df:	8b 5b 08             	mov    0x8(%ebx),%ebx
    40e2:	81 7d e4 50 ce 12 00 	cmpl   $0x12ce50,-0x1c(%ebp)
    40e9:	75 05                	jne    40f0 <append+0xb2>
    40eb:	89 45 e4             	mov    %eax,-0x1c(%ebp)
    40ee:	eb 03                	jmp    40f3 <append+0xb5>
    40f0:	89 47 08             	mov    %eax,0x8(%edi)
    40f3:	83 fe 01             	cmp    $0x1,%esi
    40f6:	7e 17                	jle    410f <append+0xd1>
    40f8:	89 c7                	mov    %eax,%edi
    40fa:	e9 61 ff ff ff       	jmp    4060 <append+0x22>
    40ff:	c7 45 e4 40 ce 12 00 	movl   $0x12ce40,-0x1c(%ebp)
    4106:	eb 07                	jmp    410f <append+0xd1>
    4108:	c7 45 e4 40 ce 12 00 	movl   $0x12ce40,-0x1c(%ebp)
    410f:	8b 45 e4             	mov    -0x1c(%ebp),%eax
    4112:	83 c4 2c             	add    $0x2c,%esp
    4115:	5b                   	pop    %ebx
    4116:	5e                   	pop    %esi
    4117:	5f                   	pop    %edi
    4118:	5d                   	pop    %ebp
    4119:	c3                   	ret    

0000411a <list>:
    411a:	55                   	push   %ebp
    411b:	89 e5                	mov    %esp,%ebp
    411d:	57                   	push   %edi
    411e:	56                   	push   %esi
    411f:	53                   	push   %ebx
    4120:	83 ec 2c             	sub    $0x2c,%esp
    4123:	8b 75 08             	mov    0x8(%ebp),%esi
    4126:	8b 5d 0c             	mov    0xc(%ebp),%ebx
    4129:	c7 45 e4 50 ce 12 00 	movl   $0x12ce50,-0x1c(%ebp)
    4130:	bf 50 ce 12 00       	mov    $0x12ce50,%edi
    4135:	85 f6                	test   %esi,%esi
    4137:	7e 6d                	jle    41a6 <list+0x8c>
    4139:	c7 04 24 10 00 00 00 	movl   $0x10,(%esp)
    4140:	e8 0f 30 00 00       	call   7154 <kmalloc>
    4145:	3d 40 ce 12 00       	cmp    $0x12ce40,%eax
    414a:	75 29                	jne    4175 <list+0x5b>
    414c:	8b 45 e4             	mov    -0x1c(%ebp),%eax
    414f:	c7 40 08 50 ce 12 00 	movl   $0x12ce50,0x8(%eax)
    4156:	81 ff 50 ce 12 00    	cmp    $0x12ce50,%edi
    415c:	74 43                	je     41a1 <list+0x87>
    415e:	8b 5f 08             	mov    0x8(%edi),%ebx
    4161:	89 3c 24             	mov    %edi,(%esp)
    4164:	e8 82 2f 00 00       	call   70eb <kfree>
    4169:	81 fb 50 ce 12 00    	cmp    $0x12ce50,%ebx
    416f:	74 30                	je     41a1 <list+0x87>
    4171:	89 df                	mov    %ebx,%edi
    4173:	eb e9                	jmp    415e <list+0x44>
    4175:	81 ff 50 ce 12 00    	cmp    $0x12ce50,%edi
    417b:	75 05                	jne    4182 <list+0x68>
    417d:	89 c7                	mov    %eax,%edi
    417f:	90                   	nop
    4180:	eb 06                	jmp    4188 <list+0x6e>
    4182:	8b 55 e4             	mov    -0x1c(%ebp),%edx
    4185:	89 42 08             	mov    %eax,0x8(%edx)
    4188:	66 c7 00 14 00       	movw   $0x14,(%eax)
    418d:	8b 13                	mov    (%ebx),%edx
    418f:	89 50 04             	mov    %edx,0x4(%eax)
    4192:	83 ee 01             	sub    $0x1,%esi
    4195:	85 f6                	test   %esi,%esi
    4197:	7e 0d                	jle    41a6 <list+0x8c>
    4199:	83 c3 04             	add    $0x4,%ebx
    419c:	89 45 e4             	mov    %eax,-0x1c(%ebp)
    419f:	eb 98                	jmp    4139 <list+0x1f>
    41a1:	bf 40 ce 12 00       	mov    $0x12ce40,%edi
    41a6:	89 f8                	mov    %edi,%eax
    41a8:	83 c4 2c             	add    $0x2c,%esp
    41ab:	5b                   	pop    %ebx
    41ac:	5e                   	pop    %esi
    41ad:	5f                   	pop    %edi
    41ae:	5d                   	pop    %ebp
    41af:	c3                   	ret    

000041b0 <scheme_list_to_string>:
    41b0:	55                   	push   %ebp
    41b1:	89 e5                	mov    %esp,%ebp
    41b3:	57                   	push   %edi
    41b4:	56                   	push   %esi
    41b5:	53                   	push   %ebx
    41b6:	83 ec 1c             	sub    $0x1c,%esp
    41b9:	8b 7d 08             	mov    0x8(%ebp),%edi
    41bc:	c6 07 28             	movb   $0x28,(%edi)
    41bf:	8d 77 01             	lea    0x1(%edi),%esi
    41c2:	8b 5d 0c             	mov    0xc(%ebp),%ebx
    41c5:	eb 34                	jmp    41fb <scheme_list_to_string+0x4b>
    41c7:	8b 43 04             	mov    0x4(%ebx),%eax
    41ca:	a8 01                	test   $0x1,%al
    41cc:	75 16                	jne    41e4 <scheme_list_to_string+0x34>
    41ce:	66 83 38 14          	cmpw   $0x14,(%eax)
    41d2:	75 10                	jne    41e4 <scheme_list_to_string+0x34>
    41d4:	89 44 24 04          	mov    %eax,0x4(%esp)
    41d8:	89 34 24             	mov    %esi,(%esp)
    41db:	e8 d0 ff ff ff       	call   41b0 <scheme_list_to_string>
    41e0:	01 c6                	add    %eax,%esi
    41e2:	eb 0e                	jmp    41f2 <scheme_list_to_string+0x42>
    41e4:	89 44 24 04          	mov    %eax,0x4(%esp)
    41e8:	89 34 24             	mov    %esi,(%esp)
    41eb:	e8 60 1b 00 00       	call   5d50 <scheme_obj_to_string>
    41f0:	01 c6                	add    %eax,%esi
    41f2:	c6 06 20             	movb   $0x20,(%esi)
    41f5:	83 c6 01             	add    $0x1,%esi
    41f8:	8b 5b 08             	mov    0x8(%ebx),%ebx
    41fb:	f6 c3 01             	test   $0x1,%bl
    41fe:	75 06                	jne    4206 <scheme_list_to_string+0x56>
    4200:	66 83 3b 14          	cmpw   $0x14,(%ebx)
    4204:	74 c1                	je     41c7 <scheme_list_to_string+0x17>
    4206:	81 fb 50 ce 12 00    	cmp    $0x12ce50,%ebx
    420c:	74 1e                	je     422c <scheme_list_to_string+0x7c>
    420e:	c6 06 2e             	movb   $0x2e,(%esi)
    4211:	c6 46 01 20          	movb   $0x20,0x1(%esi)
    4215:	8d 76 02             	lea    0x2(%esi),%esi
    4218:	89 5c 24 04          	mov    %ebx,0x4(%esp)
    421c:	89 34 24             	mov    %esi,(%esp)
    421f:	e8 2c 1b 00 00       	call   5d50 <scheme_obj_to_string>
    4224:	01 c6                	add    %eax,%esi
    4226:	c6 06 20             	movb   $0x20,(%esi)
    4229:	83 c6 01             	add    $0x1,%esi
    422c:	c6 46 ff 29          	movb   $0x29,-0x1(%esi)
    4230:	c6 06 00             	movb   $0x0,(%esi)
    4233:	89 f0                	mov    %esi,%eax
    4235:	29 f8                	sub    %edi,%eax
    4237:	83 c4 1c             	add    $0x1c,%esp
    423a:	5b                   	pop    %ebx
    423b:	5e                   	pop    %esi
    423c:	5f                   	pop    %edi
    423d:	5d                   	pop    %ebp
    423e:	c3                   	ret    

0000423f <scheme_init_list>:
    423f:	55                   	push   %ebp
    4240:	89 e5                	mov    %esp,%ebp
    4242:	53                   	push   %ebx
    4243:	83 ec 24             	sub    $0x24,%esp
    4246:	8b 5d 08             	mov    0x8(%ebp),%ebx
    4249:	66 c7 05 50 ce 12 00 	movw   $0x13,0x12ce50
    4250:	13 00 
    4252:	89 5c 24 10          	mov    %ebx,0x10(%esp)
    4256:	c7 44 24 0c 02 00 00 	movl   $0x2,0xc(%esp)
    425d:	00 
    425e:	c7 44 24 08 02 00 00 	movl   $0x2,0x8(%esp)
    4265:	00 
    4266:	c7 44 24 04 e6 3f 00 	movl   $0x3fe6,0x4(%esp)
    426d:	00 
    426e:	c7 04 24 43 7e 00 00 	movl   $0x7e43,(%esp)
    4275:	e8 60 1e 00 00       	call   60da <scheme_register_primitive>
    427a:	89 5c 24 10          	mov    %ebx,0x10(%esp)
    427e:	c7 44 24 0c 01 00 00 	movl   $0x1,0xc(%esp)
    4285:	00 
    4286:	c7 44 24 08 01 00 00 	movl   $0x1,0x8(%esp)
    428d:	00 
    428e:	c7 44 24 04 00 3f 00 	movl   $0x3f00,0x4(%esp)
    4295:	00 
    4296:	c7 04 24 48 7e 00 00 	movl   $0x7e48,(%esp)
    429d:	e8 38 1e 00 00       	call   60da <scheme_register_primitive>
    42a2:	89 5c 24 10          	mov    %ebx,0x10(%esp)
    42a6:	c7 44 24 0c 01 00 00 	movl   $0x1,0xc(%esp)
    42ad:	00 
    42ae:	c7 44 24 08 01 00 00 	movl   $0x1,0x8(%esp)
    42b5:	00 
    42b6:	c7 44 24 04 0d 3f 00 	movl   $0x3f0d,0x4(%esp)
    42bd:	00 
    42be:	c7 04 24 4c 7e 00 00 	movl   $0x7e4c,(%esp)
    42c5:	e8 10 1e 00 00       	call   60da <scheme_register_primitive>
    42ca:	89 5c 24 10          	mov    %ebx,0x10(%esp)
    42ce:	c7 44 24 0c 02 00 00 	movl   $0x2,0xc(%esp)
    42d5:	00 
    42d6:	c7 44 24 08 02 00 00 	movl   $0x2,0x8(%esp)
    42dd:	00 
    42de:	c7 44 24 04 1a 3f 00 	movl   $0x3f1a,0x4(%esp)
    42e5:	00 
    42e6:	c7 04 24 50 7e 00 00 	movl   $0x7e50,(%esp)
    42ed:	e8 e8 1d 00 00       	call   60da <scheme_register_primitive>
    42f2:	89 5c 24 10          	mov    %ebx,0x10(%esp)
    42f6:	c7 44 24 0c 02 00 00 	movl   $0x2,0xc(%esp)
    42fd:	00 
    42fe:	c7 44 24 08 02 00 00 	movl   $0x2,0x8(%esp)
    4305:	00 
    4306:	c7 44 24 04 2f 3f 00 	movl   $0x3f2f,0x4(%esp)
    430d:	00 
    430e:	c7 04 24 59 7e 00 00 	movl   $0x7e59,(%esp)
    4315:	e8 c0 1d 00 00       	call   60da <scheme_register_primitive>
    431a:	89 5c 24 10          	mov    %ebx,0x10(%esp)
    431e:	c7 44 24 0c 01 00 00 	movl   $0x1,0xc(%esp)
    4325:	00 
    4326:	c7 44 24 08 01 00 00 	movl   $0x1,0x8(%esp)
    432d:	00 
    432e:	c7 44 24 04 44 3f 00 	movl   $0x3f44,0x4(%esp)
    4335:	00 
    4336:	c7 04 24 62 7e 00 00 	movl   $0x7e62,(%esp)
    433d:	e8 98 1d 00 00       	call   60da <scheme_register_primitive>
    4342:	89 5c 24 10          	mov    %ebx,0x10(%esp)
    4346:	c7 44 24 0c 01 00 00 	movl   $0x1,0xc(%esp)
    434d:	00 
    434e:	c7 44 24 08 01 00 00 	movl   $0x1,0x8(%esp)
    4355:	00 
    4356:	c7 44 24 04 5e 3f 00 	movl   $0x3f5e,0x4(%esp)
    435d:	00 
    435e:	c7 04 24 68 7e 00 00 	movl   $0x7e68,(%esp)
    4365:	e8 70 1d 00 00       	call   60da <scheme_register_primitive>
    436a:	89 5c 24 10          	mov    %ebx,0x10(%esp)
    436e:	c7 44 24 0c ff ff ff 	movl   $0xffffffff,0xc(%esp)
    4375:	ff 
    4376:	c7 44 24 08 00 00 00 	movl   $0x0,0x8(%esp)
    437d:	00 
    437e:	c7 44 24 04 1a 41 00 	movl   $0x411a,0x4(%esp)
    4385:	00 
    4386:	c7 04 24 07 7e 00 00 	movl   $0x7e07,(%esp)
    438d:	e8 48 1d 00 00       	call   60da <scheme_register_primitive>
    4392:	89 5c 24 10          	mov    %ebx,0x10(%esp)
    4396:	c7 44 24 0c 01 00 00 	movl   $0x1,0xc(%esp)
    439d:	00 
    439e:	c7 44 24 08 01 00 00 	movl   $0x1,0x8(%esp)
    43a5:	00 
    43a6:	c7 44 24 04 94 3f 00 	movl   $0x3f94,0x4(%esp)
    43ad:	00 
    43ae:	c7 04 24 5c 7d 00 00 	movl   $0x7d5c,(%esp)
    43b5:	e8 20 1d 00 00       	call   60da <scheme_register_primitive>
    43ba:	89 5c 24 10          	mov    %ebx,0x10(%esp)
    43be:	c7 44 24 0c ff ff ff 	movl   $0xffffffff,0xc(%esp)
    43c5:	ff 
    43c6:	c7 44 24 08 00 00 00 	movl   $0x0,0x8(%esp)
    43cd:	00 
    43ce:	c7 44 24 04 3e 40 00 	movl   $0x403e,0x4(%esp)
    43d5:	00 
    43d6:	c7 04 24 f8 7d 00 00 	movl   $0x7df8,(%esp)
    43dd:	e8 f8 1c 00 00       	call   60da <scheme_register_primitive>
    43e2:	89 5c 24 10          	mov    %ebx,0x10(%esp)
    43e6:	c7 44 24 0c 01 00 00 	movl   $0x1,0xc(%esp)
    43ed:	00 
    43ee:	c7 44 24 08 01 00 00 	movl   $0x1,0x8(%esp)
    43f5:	00 
    43f6:	c7 44 24 04 8a 3f 00 	movl   $0x3f8a,0x4(%esp)
    43fd:	00 
    43fe:	c7 04 24 6e 7e 00 00 	movl   $0x7e6e,(%esp)
    4405:	e8 d0 1c 00 00       	call   60da <scheme_register_primitive>
    440a:	83 c4 24             	add    $0x24,%esp
    440d:	5b                   	pop    %ebx
    440e:	5d                   	pop    %ebp
    440f:	c3                   	ret    

00004410 <scheme_init_vector>:
    4410:	55                   	push   %ebp
    4411:	89 e5                	mov    %esp,%ebp
    4413:	5d                   	pop    %ebp
    4414:	c3                   	ret    

00004415 <scheme_vector_to_string>:
    4415:	55                   	push   %ebp
    4416:	89 e5                	mov    %esp,%ebp
    4418:	57                   	push   %edi
    4419:	56                   	push   %esi
    441a:	53                   	push   %ebx
    441b:	83 ec 1c             	sub    $0x1c,%esp
    441e:	8b 45 0c             	mov    0xc(%ebp),%eax
    4421:	8b 55 08             	mov    0x8(%ebp),%edx
    4424:	c6 02 23             	movb   $0x23,(%edx)
    4427:	c6 42 01 28          	movb   $0x28,0x1(%edx)
    442b:	89 d3                	mov    %edx,%ebx
    442d:	83 c3 02             	add    $0x2,%ebx
    4430:	8b 78 04             	mov    0x4(%eax),%edi
    4433:	8b 70 08             	mov    0x8(%eax),%esi
    4436:	85 f6                	test   %esi,%esi
    4438:	7e 3c                	jle    4476 <scheme_vector_to_string+0x61>
    443a:	8b 07                	mov    (%edi),%eax
    443c:	a8 01                	test   $0x1,%al
    443e:	75 16                	jne    4456 <scheme_vector_to_string+0x41>
    4440:	66 83 38 15          	cmpw   $0x15,(%eax)
    4444:	75 10                	jne    4456 <scheme_vector_to_string+0x41>
    4446:	89 44 24 04          	mov    %eax,0x4(%esp)
    444a:	89 1c 24             	mov    %ebx,(%esp)
    444d:	e8 c3 ff ff ff       	call   4415 <scheme_vector_to_string>
    4452:	01 c3                	add    %eax,%ebx
    4454:	eb 0e                	jmp    4464 <scheme_vector_to_string+0x4f>
    4456:	89 44 24 04          	mov    %eax,0x4(%esp)
    445a:	89 1c 24             	mov    %ebx,(%esp)
    445d:	e8 ee 18 00 00       	call   5d50 <scheme_obj_to_string>
    4462:	01 c3                	add    %eax,%ebx
    4464:	c6 03 20             	movb   $0x20,(%ebx)
    4467:	83 c3 01             	add    $0x1,%ebx
    446a:	83 ee 01             	sub    $0x1,%esi
    446d:	85 f6                	test   %esi,%esi
    446f:	7e 05                	jle    4476 <scheme_vector_to_string+0x61>
    4471:	83 c7 04             	add    $0x4,%edi
    4474:	eb c4                	jmp    443a <scheme_vector_to_string+0x25>
    4476:	c6 43 ff 29          	movb   $0x29,-0x1(%ebx)
    447a:	c6 03 00             	movb   $0x0,(%ebx)
    447d:	89 d8                	mov    %ebx,%eax
    447f:	2b 45 08             	sub    0x8(%ebp),%eax
    4482:	83 c4 1c             	add    $0x1c,%esp
    4485:	5b                   	pop    %ebx
    4486:	5e                   	pop    %esi
    4487:	5f                   	pop    %edi
    4488:	5d                   	pop    %ebp
    4489:	c3                   	ret    

0000448a <scheme_make_vector>:
    448a:	55                   	push   %ebp
    448b:	89 e5                	mov    %esp,%ebp
    448d:	57                   	push   %edi
    448e:	56                   	push   %esi
    448f:	53                   	push   %ebx
    4490:	83 ec 1c             	sub    $0x1c,%esp
    4493:	8b 75 08             	mov    0x8(%ebp),%esi
    4496:	8b 5d 0c             	mov    0xc(%ebp),%ebx
    4499:	c7 04 24 10 00 00 00 	movl   $0x10,(%esp)
    44a0:	e8 af 2c 00 00       	call   7154 <kmalloc>
    44a5:	89 c7                	mov    %eax,%edi
    44a7:	8d 04 b5 00 00 00 00 	lea    0x0(,%esi,4),%eax
    44ae:	89 04 24             	mov    %eax,(%esp)
    44b1:	e8 9e 2c 00 00       	call   7154 <kmalloc>
    44b6:	66 c7 07 15 00       	movw   $0x15,(%edi)
    44bb:	89 47 04             	mov    %eax,0x4(%edi)
    44be:	89 77 08             	mov    %esi,0x8(%edi)
    44c1:	85 f6                	test   %esi,%esi
    44c3:	7e 0d                	jle    44d2 <scheme_make_vector+0x48>
    44c5:	89 18                	mov    %ebx,(%eax)
    44c7:	83 c0 04             	add    $0x4,%eax
    44ca:	83 c3 10             	add    $0x10,%ebx
    44cd:	83 ee 01             	sub    $0x1,%esi
    44d0:	75 f3                	jne    44c5 <scheme_make_vector+0x3b>
    44d2:	89 f8                	mov    %edi,%eax
    44d4:	83 c4 1c             	add    $0x1c,%esp
    44d7:	5b                   	pop    %ebx
    44d8:	5e                   	pop    %esi
    44d9:	5f                   	pop    %edi
    44da:	5d                   	pop    %ebp
    44db:	c3                   	ret    
    44dc:	90                   	nop
    44dd:	90                   	nop
    44de:	90                   	nop
    44df:	90                   	nop

000044e0 <char_ready_p>:
    44e0:	55                   	push   %ebp
    44e1:	89 e5                	mov    %esp,%ebp
    44e3:	b8 94 ce 12 00       	mov    $0x12ce94,%eax
    44e8:	5d                   	pop    %ebp
    44e9:	c3                   	ret    

000044ea <eof_object_p>:
    44ea:	55                   	push   %ebp
    44eb:	89 e5                	mov    %esp,%ebp
    44ed:	83 ec 18             	sub    $0x18,%esp
    44f0:	8b 45 0c             	mov    0xc(%ebp),%eax
    44f3:	8b 00                	mov    (%eax),%eax
    44f5:	89 04 24             	mov    %eax,(%esp)
    44f8:	e8 53 0a 00 00       	call   4f50 <scheme_port_peek_char>
    44fd:	89 c2                	mov    %eax,%edx
    44ff:	b8 94 ce 12 00       	mov    $0x12ce94,%eax
    4504:	80 fa ff             	cmp    $0xff,%dl
    4507:	74 05                	je     450e <eof_object_p+0x24>
    4509:	b8 80 ce 12 00       	mov    $0x12ce80,%eax
    450e:	c9                   	leave  
    450f:	c3                   	ret    

00004510 <peek_char>:
    4510:	55                   	push   %ebp
    4511:	89 e5                	mov    %esp,%ebp
    4513:	83 ec 18             	sub    $0x18,%esp
    4516:	8b 45 0c             	mov    0xc(%ebp),%eax
    4519:	8b 00                	mov    (%eax),%eax
    451b:	89 04 24             	mov    %eax,(%esp)
    451e:	e8 2d 0a 00 00       	call   4f50 <scheme_port_peek_char>
    4523:	0f be c0             	movsbl %al,%eax
    4526:	01 c0                	add    %eax,%eax
    4528:	83 c8 01             	or     $0x1,%eax
    452b:	c9                   	leave  
    452c:	c3                   	ret    

0000452d <read_char>:
    452d:	55                   	push   %ebp
    452e:	89 e5                	mov    %esp,%ebp
    4530:	83 ec 18             	sub    $0x18,%esp
    4533:	8b 45 0c             	mov    0xc(%ebp),%eax
    4536:	8b 00                	mov    (%eax),%eax
    4538:	89 04 24             	mov    %eax,(%esp)
    453b:	e8 bd 0a 00 00       	call   4ffd <scheme_port_get_char>
    4540:	0f be c0             	movsbl %al,%eax
    4543:	01 c0                	add    %eax,%eax
    4545:	83 c8 01             	or     $0x1,%eax
    4548:	c9                   	leave  
    4549:	c3                   	ret    

0000454a <_token_to_obj>:
    454a:	55                   	push   %ebp
    454b:	89 e5                	mov    %esp,%ebp
    454d:	83 ec 18             	sub    $0x18,%esp
    4550:	8b 10                	mov    (%eax),%edx
    4552:	83 ea 11             	sub    $0x11,%edx
    4555:	83 fa 07             	cmp    $0x7,%edx
    4558:	77 51                	ja     45ab <_token_to_obj+0x61>
    455a:	ff 24 95 60 79 00 00 	jmp    *0x7960(,%edx,4)
    4561:	b8 80 ce 12 00       	mov    $0x12ce80,%eax
    4566:	eb 48                	jmp    45b0 <_token_to_obj+0x66>
    4568:	b8 94 ce 12 00       	mov    $0x12ce94,%eax
    456d:	eb 41                	jmp    45b0 <_token_to_obj+0x66>
    456f:	8b 40 04             	mov    0x4(%eax),%eax
    4572:	89 04 24             	mov    %eax,(%esp)
    4575:	e8 c6 15 00 00       	call   5b40 <scheme_make_symbol>
    457a:	eb 34                	jmp    45b0 <_token_to_obj+0x66>
    457c:	8b 40 04             	mov    0x4(%eax),%eax
    457f:	89 04 24             	mov    %eax,(%esp)
    4582:	e8 15 2b 00 00       	call   709c <atoi>
    4587:	89 04 24             	mov    %eax,(%esp)
    458a:	e8 bd 11 00 00       	call   574c <scheme_make_integer_numb>
    458f:	eb 1f                	jmp    45b0 <_token_to_obj+0x66>
    4591:	8b 40 04             	mov    0x4(%eax),%eax
    4594:	0f be 00             	movsbl (%eax),%eax
    4597:	01 c0                	add    %eax,%eax
    4599:	83 c8 01             	or     $0x1,%eax
    459c:	eb 12                	jmp    45b0 <_token_to_obj+0x66>
    459e:	8b 40 04             	mov    0x4(%eax),%eax
    45a1:	89 04 24             	mov    %eax,(%esp)
    45a4:	e8 7c f3 ff ff       	call   3925 <scheme_make_string>
    45a9:	eb 05                	jmp    45b0 <_token_to_obj+0x66>
    45ab:	b8 40 ce 12 00       	mov    $0x12ce40,%eax
    45b0:	c9                   	leave  
    45b1:	c3                   	ret    

000045b2 <_create_vector>:
    45b2:	55                   	push   %ebp
    45b3:	89 e5                	mov    %esp,%ebp
    45b5:	57                   	push   %edi
    45b6:	56                   	push   %esi
    45b7:	53                   	push   %ebx
    45b8:	83 ec 2c             	sub    $0x2c,%esp
    45bb:	89 c3                	mov    %eax,%ebx
    45bd:	8b 10                	mov    (%eax),%edx
    45bf:	8b 02                	mov    (%edx),%eax
    45c1:	b9 00 00 00 00       	mov    $0x0,%ecx
    45c6:	bf 00 00 00 00       	mov    $0x0,%edi
    45cb:	83 f8 ff             	cmp    $0xffffffff,%eax
    45ce:	74 3b                	je     460b <_create_vector+0x59>
    45d0:	83 f8 04             	cmp    $0x4,%eax
    45d3:	74 12                	je     45e7 <_create_vector+0x35>
    45d5:	83 f8 05             	cmp    $0x5,%eax
    45d8:	74 18                	je     45f2 <_create_vector+0x40>
    45da:	83 f8 03             	cmp    $0x3,%eax
    45dd:	8d 76 00             	lea    0x0(%esi),%esi
    45e0:	75 15                	jne    45f7 <_create_vector+0x45>
    45e2:	83 c1 01             	add    $0x1,%ecx
    45e5:	eb 16                	jmp    45fd <_create_vector+0x4b>
    45e7:	83 e9 01             	sub    $0x1,%ecx
    45ea:	83 f9 01             	cmp    $0x1,%ecx
    45ed:	83 d7 00             	adc    $0x0,%edi
    45f0:	eb 0b                	jmp    45fd <_create_vector+0x4b>
    45f2:	83 c1 01             	add    $0x1,%ecx
    45f5:	eb 06                	jmp    45fd <_create_vector+0x4b>
    45f7:	83 f9 01             	cmp    $0x1,%ecx
    45fa:	83 d7 00             	adc    $0x0,%edi
    45fd:	83 c2 08             	add    $0x8,%edx
    4600:	8b 02                	mov    (%edx),%eax
    4602:	83 f8 ff             	cmp    $0xffffffff,%eax
    4605:	74 04                	je     460b <_create_vector+0x59>
    4607:	85 c9                	test   %ecx,%ecx
    4609:	79 c5                	jns    45d0 <_create_vector+0x1e>
    460b:	c7 04 24 10 00 00 00 	movl   $0x10,(%esp)
    4612:	e8 3d 2b 00 00       	call   7154 <kmalloc>
    4617:	89 45 e4             	mov    %eax,-0x1c(%ebp)
    461a:	8d 04 bd 00 00 00 00 	lea    0x0(,%edi,4),%eax
    4621:	89 04 24             	mov    %eax,(%esp)
    4624:	e8 2b 2b 00 00       	call   7154 <kmalloc>
    4629:	8b 55 e4             	mov    -0x1c(%ebp),%edx
    462c:	66 c7 02 15 00       	movw   $0x15,(%edx)
    4631:	89 42 04             	mov    %eax,0x4(%edx)
    4634:	89 7a 08             	mov    %edi,0x8(%edx)
    4637:	8d 70 04             	lea    0x4(%eax),%esi
    463a:	eb 3e                	jmp    467a <_create_vector+0xc8>
    463c:	83 fa 03             	cmp    $0x3,%edx
    463f:	74 09                	je     464a <_create_vector+0x98>
    4641:	83 fa 05             	cmp    $0x5,%edx
    4644:	75 26                	jne    466c <_create_vector+0xba>
    4646:	66 90                	xchg   %ax,%ax
    4648:	eb 11                	jmp    465b <_create_vector+0xa9>
    464a:	83 c0 08             	add    $0x8,%eax
    464d:	89 03                	mov    %eax,(%ebx)
    464f:	89 d8                	mov    %ebx,%eax
    4651:	e8 42 00 00 00       	call   4698 <_create_list>
    4656:	89 46 fc             	mov    %eax,-0x4(%esi)
    4659:	eb 1c                	jmp    4677 <_create_vector+0xc5>
    465b:	83 c0 08             	add    $0x8,%eax
    465e:	89 03                	mov    %eax,(%ebx)
    4660:	89 d8                	mov    %ebx,%eax
    4662:	e8 4b ff ff ff       	call   45b2 <_create_vector>
    4667:	89 46 fc             	mov    %eax,-0x4(%esi)
    466a:	eb 0b                	jmp    4677 <_create_vector+0xc5>
    466c:	e8 d9 fe ff ff       	call   454a <_token_to_obj>
    4671:	89 46 fc             	mov    %eax,-0x4(%esi)
    4674:	83 03 08             	addl   $0x8,(%ebx)
    4677:	83 c6 04             	add    $0x4,%esi
    467a:	8b 03                	mov    (%ebx),%eax
    467c:	8b 10                	mov    (%eax),%edx
    467e:	83 fa ff             	cmp    $0xffffffff,%edx
    4681:	74 05                	je     4688 <_create_vector+0xd6>
    4683:	83 fa 04             	cmp    $0x4,%edx
    4686:	75 b4                	jne    463c <_create_vector+0x8a>
    4688:	83 c0 08             	add    $0x8,%eax
    468b:	89 03                	mov    %eax,(%ebx)
    468d:	8b 45 e4             	mov    -0x1c(%ebp),%eax
    4690:	83 c4 2c             	add    $0x2c,%esp
    4693:	5b                   	pop    %ebx
    4694:	5e                   	pop    %esi
    4695:	5f                   	pop    %edi
    4696:	5d                   	pop    %ebp
    4697:	c3                   	ret    

00004698 <_create_list>:
    4698:	55                   	push   %ebp
    4699:	89 e5                	mov    %esp,%ebp
    469b:	57                   	push   %edi
    469c:	56                   	push   %esi
    469d:	53                   	push   %ebx
    469e:	83 ec 2c             	sub    $0x2c,%esp
    46a1:	89 c3                	mov    %eax,%ebx
    46a3:	be 50 ce 12 00       	mov    $0x12ce50,%esi
    46a8:	89 75 e4             	mov    %esi,-0x1c(%ebp)
    46ab:	bf 00 00 00 00       	mov    $0x0,%edi
    46b0:	e9 c7 00 00 00       	jmp    477c <_create_list+0xe4>
    46b5:	83 fa 05             	cmp    $0x5,%edx
    46b8:	74 38                	je     46f2 <_create_list+0x5a>
    46ba:	83 fa 05             	cmp    $0x5,%edx
    46bd:	77 0b                	ja     46ca <_create_list+0x32>
    46bf:	83 fa 03             	cmp    $0x3,%edx
    46c2:	75 67                	jne    472b <_create_list+0x93>
    46c4:	8d 74 26 00          	lea    0x0(%esi,%eiz,1),%esi
    46c8:	eb 18                	jmp    46e2 <_create_list+0x4a>
    46ca:	83 fa 06             	cmp    $0x6,%edx
    46cd:	8d 76 00             	lea    0x0(%esi),%esi
    46d0:	74 30                	je     4702 <_create_list+0x6a>
    46d2:	83 fa 0b             	cmp    $0xb,%edx
    46d5:	8d 76 00             	lea    0x0(%esi),%esi
    46d8:	75 51                	jne    472b <_create_list+0x93>
    46da:	8d b6 00 00 00 00    	lea    0x0(%esi),%esi
    46e0:	eb 30                	jmp    4712 <_create_list+0x7a>
    46e2:	83 c0 08             	add    $0x8,%eax
    46e5:	89 03                	mov    %eax,(%ebx)
    46e7:	89 d8                	mov    %ebx,%eax
    46e9:	e8 aa ff ff ff       	call   4698 <_create_list>
    46ee:	66 90                	xchg   %ax,%ax
    46f0:	eb 41                	jmp    4733 <_create_list+0x9b>
    46f2:	83 c0 08             	add    $0x8,%eax
    46f5:	89 03                	mov    %eax,(%ebx)
    46f7:	89 d8                	mov    %ebx,%eax
    46f9:	e8 b4 fe ff ff       	call   45b2 <_create_vector>
    46fe:	66 90                	xchg   %ax,%ax
    4700:	eb 31                	jmp    4733 <_create_list+0x9b>
    4702:	83 c0 08             	add    $0x8,%eax
    4705:	89 03                	mov    %eax,(%ebx)
    4707:	89 d8                	mov    %ebx,%eax
    4709:	e8 99 00 00 00       	call   47a7 <_create_quoted>
    470e:	66 90                	xchg   %ax,%ax
    4710:	eb 21                	jmp    4733 <_create_list+0x9b>
    4712:	83 c0 08             	add    $0x8,%eax
    4715:	89 03                	mov    %eax,(%ebx)
    4717:	85 ff                	test   %edi,%edi
    4719:	74 09                	je     4724 <_create_list+0x8c>
    471b:	c7 45 e4 40 ce 12 00 	movl   $0x12ce40,-0x1c(%ebp)
    4722:	eb 78                	jmp    479c <_create_list+0x104>
    4724:	bf 01 00 00 00       	mov    $0x1,%edi
    4729:	eb 51                	jmp    477c <_create_list+0xe4>
    472b:	e8 1a fe ff ff       	call   454a <_token_to_obj>
    4730:	83 03 08             	addl   $0x8,(%ebx)
    4733:	85 ff                	test   %edi,%edi
    4735:	75 20                	jne    4757 <_create_list+0xbf>
    4737:	c7 44 24 04 50 ce 12 	movl   $0x12ce50,0x4(%esp)
    473e:	00 
    473f:	89 04 24             	mov    %eax,(%esp)
    4742:	e8 d2 f8 ff ff       	call   4019 <scheme_make_pair>
    4747:	81 7d e4 50 ce 12 00 	cmpl   $0x12ce50,-0x1c(%ebp)
    474e:	75 19                	jne    4769 <_create_list+0xd1>
    4750:	89 c6                	mov    %eax,%esi
    4752:	89 45 e4             	mov    %eax,-0x1c(%ebp)
    4755:	eb 25                	jmp    477c <_create_list+0xe4>
    4757:	81 7d e4 50 ce 12 00 	cmpl   $0x12ce50,-0x1c(%ebp)
    475e:	75 09                	jne    4769 <_create_list+0xd1>
    4760:	c7 45 e4 40 ce 12 00 	movl   $0x12ce40,-0x1c(%ebp)
    4767:	eb 33                	jmp    479c <_create_list+0x104>
    4769:	f7 c6 01 00 00 00    	test   $0x1,%esi
    476f:	75 24                	jne    4795 <_create_list+0xfd>
    4771:	66 83 3e 14          	cmpw   $0x14,(%esi)
    4775:	75 1e                	jne    4795 <_create_list+0xfd>
    4777:	89 46 08             	mov    %eax,0x8(%esi)
    477a:	89 c6                	mov    %eax,%esi
    477c:	8b 03                	mov    (%ebx),%eax
    477e:	8b 10                	mov    (%eax),%edx
    4780:	83 fa ff             	cmp    $0xffffffff,%edx
    4783:	74 09                	je     478e <_create_list+0xf6>
    4785:	83 fa 04             	cmp    $0x4,%edx
    4788:	0f 85 27 ff ff ff    	jne    46b5 <_create_list+0x1d>
    478e:	83 c0 08             	add    $0x8,%eax
    4791:	89 03                	mov    %eax,(%ebx)
    4793:	eb 07                	jmp    479c <_create_list+0x104>
    4795:	c7 45 e4 40 ce 12 00 	movl   $0x12ce40,-0x1c(%ebp)
    479c:	8b 45 e4             	mov    -0x1c(%ebp),%eax
    479f:	83 c4 2c             	add    $0x2c,%esp
    47a2:	5b                   	pop    %ebx
    47a3:	5e                   	pop    %esi
    47a4:	5f                   	pop    %edi
    47a5:	5d                   	pop    %ebp
    47a6:	c3                   	ret    

000047a7 <_create_quoted>:
    47a7:	55                   	push   %ebp
    47a8:	89 e5                	mov    %esp,%ebp
    47aa:	53                   	push   %ebx
    47ab:	83 ec 14             	sub    $0x14,%esp
    47ae:	89 c3                	mov    %eax,%ebx
    47b0:	8b 08                	mov    (%eax),%ecx
    47b2:	8b 11                	mov    (%ecx),%edx
    47b4:	b8 40 ce 12 00       	mov    $0x12ce40,%eax
    47b9:	83 fa 04             	cmp    $0x4,%edx
    47bc:	0f 84 86 00 00 00    	je     4848 <_create_quoted+0xa1>
    47c2:	83 fa 04             	cmp    $0x4,%edx
    47c5:	77 0b                	ja     47d2 <_create_quoted+0x2b>
    47c7:	83 fa 03             	cmp    $0x3,%edx
    47ca:	75 48                	jne    4814 <_create_quoted+0x6d>
    47cc:	8d 74 26 00          	lea    0x0(%esi,%eiz,1),%esi
    47d0:	eb 18                	jmp    47ea <_create_quoted+0x43>
    47d2:	83 fa 05             	cmp    $0x5,%edx
    47d5:	8d 76 00             	lea    0x0(%esi),%esi
    47d8:	74 1e                	je     47f8 <_create_quoted+0x51>
    47da:	83 fa 06             	cmp    $0x6,%edx
    47dd:	8d 76 00             	lea    0x0(%esi),%esi
    47e0:	75 32                	jne    4814 <_create_quoted+0x6d>
    47e2:	8d b6 00 00 00 00    	lea    0x0(%esi),%esi
    47e8:	eb 1c                	jmp    4806 <_create_quoted+0x5f>
    47ea:	83 c1 08             	add    $0x8,%ecx
    47ed:	89 0b                	mov    %ecx,(%ebx)
    47ef:	89 d8                	mov    %ebx,%eax
    47f1:	e8 a2 fe ff ff       	call   4698 <_create_list>
    47f6:	eb 26                	jmp    481e <_create_quoted+0x77>
    47f8:	83 c1 08             	add    $0x8,%ecx
    47fb:	89 0b                	mov    %ecx,(%ebx)
    47fd:	89 d8                	mov    %ebx,%eax
    47ff:	e8 ae fd ff ff       	call   45b2 <_create_vector>
    4804:	eb 18                	jmp    481e <_create_quoted+0x77>
    4806:	83 c1 08             	add    $0x8,%ecx
    4809:	89 0b                	mov    %ecx,(%ebx)
    480b:	89 d8                	mov    %ebx,%eax
    480d:	e8 95 ff ff ff       	call   47a7 <_create_quoted>
    4812:	eb 0a                	jmp    481e <_create_quoted+0x77>
    4814:	89 c8                	mov    %ecx,%eax
    4816:	e8 2f fd ff ff       	call   454a <_token_to_obj>
    481b:	83 03 08             	addl   $0x8,(%ebx)
    481e:	c7 44 24 04 50 ce 12 	movl   $0x12ce50,0x4(%esp)
    4825:	00 
    4826:	89 04 24             	mov    %eax,(%esp)
    4829:	e8 eb f7 ff ff       	call   4019 <scheme_make_pair>
    482e:	89 c3                	mov    %eax,%ebx
    4830:	c7 04 24 f4 80 00 00 	movl   $0x80f4,(%esp)
    4837:	e8 04 13 00 00       	call   5b40 <scheme_make_symbol>
    483c:	89 5c 24 04          	mov    %ebx,0x4(%esp)
    4840:	89 04 24             	mov    %eax,(%esp)
    4843:	e8 d1 f7 ff ff       	call   4019 <scheme_make_pair>
    4848:	83 c4 14             	add    $0x14,%esp
    484b:	5b                   	pop    %ebx
    484c:	5d                   	pop    %ebp
    484d:	c3                   	ret    

0000484e <read>:
    484e:	55                   	push   %ebp
    484f:	89 e5                	mov    %esp,%ebp
    4851:	57                   	push   %edi
    4852:	56                   	push   %esi
    4853:	53                   	push   %ebx
    4854:	83 ec 3c             	sub    $0x3c,%esp
    4857:	83 7d 08 00          	cmpl   $0x0,0x8(%ebp)
    485b:	75 08                	jne    4865 <read+0x17>
    485d:	8b 1d 08 be 12 00    	mov    0x12be08,%ebx
    4863:	eb 05                	jmp    486a <read+0x1c>
    4865:	8b 45 0c             	mov    0xc(%ebp),%eax
    4868:	8b 18                	mov    (%eax),%ebx
    486a:	bf 60 96 00 00       	mov    $0x9660,%edi
    486f:	c7 45 c8 00 00 00 00 	movl   $0x0,-0x38(%ebp)
    4876:	c7 45 d0 00 00 00 00 	movl   $0x0,-0x30(%ebp)
    487d:	c7 45 cc 00 00 00 00 	movl   $0x0,-0x34(%ebp)
    4884:	c7 45 d4 00 00 00 00 	movl   $0x0,-0x2c(%ebp)
    488b:	e9 68 04 00 00       	jmp    4cf8 <read+0x4aa>
    4890:	3c 20                	cmp    $0x20,%al
    4892:	74 32                	je     48c6 <read+0x78>
    4894:	3c 0a                	cmp    $0xa,%al
    4896:	74 2e                	je     48c6 <read+0x78>
    4898:	3c 0d                	cmp    $0xd,%al
    489a:	74 2a                	je     48c6 <read+0x78>
    489c:	3c 0c                	cmp    $0xc,%al
    489e:	66 90                	xchg   %ax,%ax
    48a0:	75 55                	jne    48f7 <read+0xa9>
    48a2:	8d b6 00 00 00 00    	lea    0x0(%esi),%esi
    48a8:	eb 1c                	jmp    48c6 <read+0x78>
    48aa:	3c 20                	cmp    $0x20,%al
    48ac:	8d 74 26 00          	lea    0x0(%esi,%eiz,1),%esi
    48b0:	74 14                	je     48c6 <read+0x78>
    48b2:	3c 0a                	cmp    $0xa,%al
    48b4:	8d 74 26 00          	lea    0x0(%esi,%eiz,1),%esi
    48b8:	74 0c                	je     48c6 <read+0x78>
    48ba:	83 c6 08             	add    $0x8,%esi
    48bd:	3c 0d                	cmp    $0xd,%al
    48bf:	90                   	nop
    48c0:	74 04                	je     48c6 <read+0x78>
    48c2:	3c 0c                	cmp    $0xc,%al
    48c4:	75 3b                	jne    4901 <read+0xb3>
    48c6:	83 7d d0 01          	cmpl   $0x1,-0x30(%ebp)
    48ca:	0f 85 28 04 00 00    	jne    4cf8 <read+0x4aa>
    48d0:	c6 07 00             	movb   $0x0,(%edi)
    48d3:	83 45 d4 01          	addl   $0x1,-0x2c(%ebp)
    48d7:	83 7d cc 00          	cmpl   $0x0,-0x34(%ebp)
    48db:	0f 84 50 04 00 00    	je     4d31 <read+0x4e3>
    48e1:	83 c7 01             	add    $0x1,%edi
    48e4:	c7 45 c8 00 00 00 00 	movl   $0x0,-0x38(%ebp)
    48eb:	c7 45 d0 00 00 00 00 	movl   $0x0,-0x30(%ebp)
    48f2:	e9 01 04 00 00       	jmp    4cf8 <read+0x4aa>
    48f7:	8b 55 d4             	mov    -0x2c(%ebp),%edx
    48fa:	8d 34 d5 60 96 01 00 	lea    0x19660(,%edx,8),%esi
    4901:	8d 50 de             	lea    -0x22(%eax),%edx
    4904:	80 fa 3e             	cmp    $0x3e,%dl
    4907:	0f 87 5c 03 00 00    	ja     4c69 <read+0x41b>
    490d:	0f b6 d2             	movzbl %dl,%edx
    4910:	ff 24 95 80 79 00 00 	jmp    *0x7980(,%edx,4)
    4917:	8b 45 d4             	mov    -0x2c(%ebp),%eax
    491a:	c7 04 c5 60 96 01 00 	movl   $0x3,0x19660(,%eax,8)
    4921:	03 00 00 00 
    4925:	83 c0 01             	add    $0x1,%eax
    4928:	89 45 d4             	mov    %eax,-0x2c(%ebp)
    492b:	83 45 cc 01          	addl   $0x1,-0x34(%ebp)
    492f:	c7 45 d0 00 00 00 00 	movl   $0x0,-0x30(%ebp)
    4936:	e9 bd 03 00 00       	jmp    4cf8 <read+0x4aa>
    493b:	8b 45 d4             	mov    -0x2c(%ebp),%eax
    493e:	83 7d d0 01          	cmpl   $0x1,-0x30(%ebp)
    4942:	75 13                	jne    4957 <read+0x109>
    4944:	c6 07 00             	movb   $0x0,(%edi)
    4947:	83 c7 01             	add    $0x1,%edi
    494a:	83 c0 01             	add    $0x1,%eax
    494d:	89 45 d4             	mov    %eax,-0x2c(%ebp)
    4950:	c7 45 d0 00 00 00 00 	movl   $0x0,-0x30(%ebp)
    4957:	8b 55 d4             	mov    -0x2c(%ebp),%edx
    495a:	c7 04 d5 60 96 01 00 	movl   $0x4,0x19660(,%edx,8)
    4961:	04 00 00 00 
    4965:	83 c2 01             	add    $0x1,%edx
    4968:	89 55 d4             	mov    %edx,-0x2c(%ebp)
    496b:	83 6d cc 01          	subl   $0x1,-0x34(%ebp)
    496f:	0f 84 a8 03 00 00    	je     4d1d <read+0x4cf>
    4975:	e9 7e 03 00 00       	jmp    4cf8 <read+0x4aa>
    497a:	8b 45 d4             	mov    -0x2c(%ebp),%eax
    497d:	89 fe                	mov    %edi,%esi
    497f:	83 7d d0 01          	cmpl   $0x1,-0x30(%ebp)
    4983:	75 13                	jne    4998 <read+0x14a>
    4985:	c6 07 00             	movb   $0x0,(%edi)
    4988:	8d 77 01             	lea    0x1(%edi),%esi
    498b:	83 c0 01             	add    $0x1,%eax
    498e:	89 45 d4             	mov    %eax,-0x2c(%ebp)
    4991:	c7 45 d0 00 00 00 00 	movl   $0x0,-0x30(%ebp)
    4998:	b8 60 96 01 00       	mov    $0x19660,%eax
    499d:	8b 55 d4             	mov    -0x2c(%ebp),%edx
    49a0:	c7 04 d0 18 00 00 00 	movl   $0x18,(%eax,%edx,8)
    49a7:	89 74 d0 04          	mov    %esi,0x4(%eax,%edx,8)
    49ab:	83 c2 01             	add    $0x1,%edx
    49ae:	89 55 d4             	mov    %edx,-0x2c(%ebp)
    49b1:	eb 34                	jmp    49e7 <read+0x199>
    49b3:	88 06                	mov    %al,(%esi)
    49b5:	8d 7e 01             	lea    0x1(%esi),%edi
    49b8:	3c 5c                	cmp    $0x5c,%al
    49ba:	75 1d                	jne    49d9 <read+0x18b>
    49bc:	89 1c 24             	mov    %ebx,(%esp)
    49bf:	e8 39 06 00 00       	call   4ffd <scheme_port_get_char>
    49c4:	3c 22                	cmp    $0x22,%al
    49c6:	74 04                	je     49cc <read+0x17e>
    49c8:	3c 5c                	cmp    $0x5c,%al
    49ca:	75 06                	jne    49d2 <read+0x184>
    49cc:	88 06                	mov    %al,(%esi)
    49ce:	89 fe                	mov    %edi,%esi
    49d0:	eb 15                	jmp    49e7 <read+0x199>
    49d2:	88 07                	mov    %al,(%edi)
    49d4:	8d 77 01             	lea    0x1(%edi),%esi
    49d7:	eb 0e                	jmp    49e7 <read+0x199>
    49d9:	3c 22                	cmp    $0x22,%al
    49db:	75 08                	jne    49e5 <read+0x197>
    49dd:	c6 06 00             	movb   $0x0,(%esi)
    49e0:	e9 13 03 00 00       	jmp    4cf8 <read+0x4aa>
    49e5:	89 fe                	mov    %edi,%esi
    49e7:	89 1c 24             	mov    %ebx,(%esp)
    49ea:	e8 0e 06 00 00       	call   4ffd <scheme_port_get_char>
    49ef:	3c 7f                	cmp    $0x7f,%al
    49f1:	0f 84 ff 02 00 00    	je     4cf6 <read+0x4a8>
    49f7:	89 1c 24             	mov    %ebx,(%esp)
    49fa:	e8 fe 05 00 00       	call   4ffd <scheme_port_get_char>
    49ff:	3c 1f                	cmp    $0x1f,%al
    4a01:	7f b0                	jg     49b3 <read+0x165>
    4a03:	e9 ee 02 00 00       	jmp    4cf6 <read+0x4a8>
    4a08:	8b 75 d4             	mov    -0x2c(%ebp),%esi
    4a0b:	83 7d d0 01          	cmpl   $0x1,-0x30(%ebp)
    4a0f:	90                   	nop
    4a10:	75 0b                	jne    4a1d <read+0x1cf>
    4a12:	c6 07 23             	movb   $0x23,(%edi)
    4a15:	83 c7 01             	add    $0x1,%edi
    4a18:	e9 db 02 00 00       	jmp    4cf8 <read+0x4aa>
    4a1d:	89 1c 24             	mov    %ebx,(%esp)
    4a20:	e8 d8 05 00 00       	call   4ffd <scheme_port_get_char>
    4a25:	83 e8 28             	sub    $0x28,%eax
    4a28:	3c 50                	cmp    $0x50,%al
    4a2a:	0f 87 38 01 00 00    	ja     4b68 <read+0x31a>
    4a30:	0f b6 c0             	movzbl %al,%eax
    4a33:	ff 24 85 7c 7a 00 00 	jmp    *0x7a7c(,%eax,4)
    4a3a:	c7 04 f5 60 96 01 00 	movl   $0x5,0x19660(,%esi,8)
    4a41:	05 00 00 00 
    4a45:	83 c6 01             	add    $0x1,%esi
    4a48:	89 75 d4             	mov    %esi,-0x2c(%ebp)
    4a4b:	83 45 cc 01          	addl   $0x1,-0x34(%ebp)
    4a4f:	e9 a4 02 00 00       	jmp    4cf8 <read+0x4aa>
    4a54:	c7 04 f5 60 96 01 00 	movl   $0x13,0x19660(,%esi,8)
    4a5b:	13 00 00 00 
    4a5f:	83 c6 01             	add    $0x1,%esi
    4a62:	89 75 d4             	mov    %esi,-0x2c(%ebp)
    4a65:	e9 8e 02 00 00       	jmp    4cf8 <read+0x4aa>
    4a6a:	c7 04 f5 60 96 01 00 	movl   $0x14,0x19660(,%esi,8)
    4a71:	14 00 00 00 
    4a75:	83 c6 01             	add    $0x1,%esi
    4a78:	89 75 d4             	mov    %esi,-0x2c(%ebp)
    4a7b:	e9 78 02 00 00       	jmp    4cf8 <read+0x4aa>
    4a80:	b8 60 96 01 00       	mov    $0x19660,%eax
    4a85:	c7 04 f0 17 00 00 00 	movl   $0x17,(%eax,%esi,8)
    4a8c:	89 7c f0 04          	mov    %edi,0x4(%eax,%esi,8)
    4a90:	eb 29                	jmp    4abb <read+0x26d>
    4a92:	3c 0b                	cmp    $0xb,%al
    4a94:	74 3d                	je     4ad3 <read+0x285>
    4a96:	3c 09                	cmp    $0x9,%al
    4a98:	74 39                	je     4ad3 <read+0x285>
    4a9a:	3c 20                	cmp    $0x20,%al
    4a9c:	8d 74 26 00          	lea    0x0(%esi,%eiz,1),%esi
    4aa0:	74 31                	je     4ad3 <read+0x285>
    4aa2:	3c 0a                	cmp    $0xa,%al
    4aa4:	74 2d                	je     4ad3 <read+0x285>
    4aa6:	3c 0d                	cmp    $0xd,%al
    4aa8:	74 29                	je     4ad3 <read+0x285>
    4aaa:	3c 0c                	cmp    $0xc,%al
    4aac:	8d 74 26 00          	lea    0x0(%esi,%eiz,1),%esi
    4ab0:	74 21                	je     4ad3 <read+0x285>
    4ab2:	3c ff                	cmp    $0xff,%al
    4ab4:	74 1d                	je     4ad3 <read+0x285>
    4ab6:	88 07                	mov    %al,(%edi)
    4ab8:	83 c7 01             	add    $0x1,%edi
    4abb:	89 1c 24             	mov    %ebx,(%esp)
    4abe:	e8 3a 05 00 00       	call   4ffd <scheme_port_get_char>
    4ac3:	3c 7f                	cmp    $0x7f,%al
    4ac5:	74 0c                	je     4ad3 <read+0x285>
    4ac7:	89 1c 24             	mov    %ebx,(%esp)
    4aca:	e8 2e 05 00 00       	call   4ffd <scheme_port_get_char>
    4acf:	3c 1f                	cmp    $0x1f,%al
    4ad1:	7f bf                	jg     4a92 <read+0x244>
    4ad3:	83 c6 01             	add    $0x1,%esi
    4ad6:	89 75 d4             	mov    %esi,-0x2c(%ebp)
    4ad9:	c6 07 00             	movb   $0x0,(%edi)
    4adc:	83 c7 01             	add    $0x1,%edi
    4adf:	e9 14 02 00 00       	jmp    4cf8 <read+0x4aa>
    4ae4:	c7 04 f5 60 96 01 00 	movl   $0x19,0x19660(,%esi,8)
    4aeb:	19 00 00 00 
    4aef:	83 c6 01             	add    $0x1,%esi
    4af2:	89 75 d4             	mov    %esi,-0x2c(%ebp)
    4af5:	e9 fe 01 00 00       	jmp    4cf8 <read+0x4aa>
    4afa:	c7 04 f5 60 96 01 00 	movl   $0x1a,0x19660(,%esi,8)
    4b01:	1a 00 00 00 
    4b05:	83 c6 01             	add    $0x1,%esi
    4b08:	89 75 d4             	mov    %esi,-0x2c(%ebp)
    4b0b:	e9 e8 01 00 00       	jmp    4cf8 <read+0x4aa>
    4b10:	c7 04 f5 60 96 01 00 	movl   $0x1b,0x19660(,%esi,8)
    4b17:	1b 00 00 00 
    4b1b:	83 c6 01             	add    $0x1,%esi
    4b1e:	89 75 d4             	mov    %esi,-0x2c(%ebp)
    4b21:	e9 d2 01 00 00       	jmp    4cf8 <read+0x4aa>
    4b26:	c7 04 f5 60 96 01 00 	movl   $0x1c,0x19660(,%esi,8)
    4b2d:	1c 00 00 00 
    4b31:	83 c6 01             	add    $0x1,%esi
    4b34:	89 75 d4             	mov    %esi,-0x2c(%ebp)
    4b37:	e9 bc 01 00 00       	jmp    4cf8 <read+0x4aa>
    4b3c:	c7 04 f5 60 96 01 00 	movl   $0x1d,0x19660(,%esi,8)
    4b43:	1d 00 00 00 
    4b47:	83 c6 01             	add    $0x1,%esi
    4b4a:	89 75 d4             	mov    %esi,-0x2c(%ebp)
    4b4d:	e9 a6 01 00 00       	jmp    4cf8 <read+0x4aa>
    4b52:	c7 04 f5 60 96 01 00 	movl   $0x1e,0x19660(,%esi,8)
    4b59:	1e 00 00 00 
    4b5d:	83 c6 01             	add    $0x1,%esi
    4b60:	89 75 d4             	mov    %esi,-0x2c(%ebp)
    4b63:	e9 90 01 00 00       	jmp    4cf8 <read+0x4aa>
    4b68:	c7 04 24 76 7e 00 00 	movl   $0x7e76,(%esp)
    4b6f:	e8 d0 29 00 00       	call   7544 <printf>
    4b74:	e9 7f 01 00 00       	jmp    4cf8 <read+0x4aa>
    4b79:	8b 45 d4             	mov    -0x2c(%ebp),%eax
    4b7c:	c7 04 c5 60 96 01 00 	movl   $0x6,0x19660(,%eax,8)
    4b83:	06 00 00 00 
    4b87:	83 c0 01             	add    $0x1,%eax
    4b8a:	89 45 d4             	mov    %eax,-0x2c(%ebp)
    4b8d:	e9 66 01 00 00       	jmp    4cf8 <read+0x4aa>
    4b92:	8b 55 d4             	mov    -0x2c(%ebp),%edx
    4b95:	c7 04 d5 60 96 01 00 	movl   $0x7,0x19660(,%edx,8)
    4b9c:	07 00 00 00 
    4ba0:	83 c2 01             	add    $0x1,%edx
    4ba3:	89 55 d4             	mov    %edx,-0x2c(%ebp)
    4ba6:	e9 4d 01 00 00       	jmp    4cf8 <read+0x4aa>
    4bab:	89 1c 24             	mov    %ebx,(%esp)
    4bae:	e8 4a 04 00 00       	call   4ffd <scheme_port_get_char>
    4bb3:	3c 40                	cmp    $0x40,%al
    4bb5:	75 19                	jne    4bd0 <read+0x382>
    4bb7:	8b 45 d4             	mov    -0x2c(%ebp),%eax
    4bba:	c7 04 c5 60 96 01 00 	movl   $0x9,0x19660(,%eax,8)
    4bc1:	09 00 00 00 
    4bc5:	83 c0 01             	add    $0x1,%eax
    4bc8:	89 45 d4             	mov    %eax,-0x2c(%ebp)
    4bcb:	e9 28 01 00 00       	jmp    4cf8 <read+0x4aa>
    4bd0:	c7 06 08 00 00 00    	movl   $0x8,(%esi)
    4bd6:	83 45 d4 01          	addl   $0x1,-0x2c(%ebp)
    4bda:	3c 0b                	cmp    $0xb,%al
    4bdc:	0f 84 e4 fc ff ff    	je     48c6 <read+0x78>
    4be2:	3c 09                	cmp    $0x9,%al
    4be4:	0f 85 c0 fc ff ff    	jne    48aa <read+0x5c>
    4bea:	e9 d7 fc ff ff       	jmp    48c6 <read+0x78>
    4bef:	8b 45 d4             	mov    -0x2c(%ebp),%eax
    4bf2:	83 7d d0 00          	cmpl   $0x0,-0x30(%ebp)
    4bf6:	0f 85 fc 00 00 00    	jne    4cf8 <read+0x4aa>
    4bfc:	ba 60 96 01 00       	mov    $0x19660,%edx
    4c01:	c7 04 c2 11 00 00 00 	movl   $0x11,(%edx,%eax,8)
    4c08:	89 7c c2 04          	mov    %edi,0x4(%edx,%eax,8)
    4c0c:	c7 45 d0 01 00 00 00 	movl   $0x1,-0x30(%ebp)
    4c13:	e9 e0 00 00 00       	jmp    4cf8 <read+0x4aa>
    4c18:	8b 45 d4             	mov    -0x2c(%ebp),%eax
    4c1b:	83 7d d0 00          	cmpl   $0x0,-0x30(%ebp)
    4c1f:	75 19                	jne    4c3a <read+0x3ec>
    4c21:	ba 60 96 01 00       	mov    $0x19660,%edx
    4c26:	c7 04 c2 0b 00 00 00 	movl   $0xb,(%edx,%eax,8)
    4c2d:	89 7c c2 04          	mov    %edi,0x4(%edx,%eax,8)
    4c31:	c7 45 d0 01 00 00 00 	movl   $0x1,-0x30(%ebp)
    4c38:	eb 24                	jmp    4c5e <read+0x410>
    4c3a:	83 7d c8 00          	cmpl   $0x0,-0x38(%ebp)
    4c3e:	74 0d                	je     4c4d <read+0x3ff>
    4c40:	c7 04 c5 60 96 01 00 	movl   $0x11,0x19660(,%eax,8)
    4c47:	11 00 00 00 
    4c4b:	eb 11                	jmp    4c5e <read+0x410>
    4c4d:	83 3c c5 60 96 01 00 	cmpl   $0x15,0x19660(,%eax,8)
    4c54:	15 
    4c55:	75 07                	jne    4c5e <read+0x410>
    4c57:	c7 45 c8 01 00 00 00 	movl   $0x1,-0x38(%ebp)
    4c5e:	c6 07 2e             	movb   $0x2e,(%edi)
    4c61:	83 c7 01             	add    $0x1,%edi
    4c64:	e9 8f 00 00 00       	jmp    4cf8 <read+0x4aa>
    4c69:	8b 55 d4             	mov    -0x2c(%ebp),%edx
    4c6c:	89 c6                	mov    %eax,%esi
    4c6e:	8d 48 d0             	lea    -0x30(%eax),%ecx
    4c71:	80 f9 09             	cmp    $0x9,%cl
    4c74:	77 3d                	ja     4cb3 <read+0x465>
    4c76:	83 7d d0 00          	cmpl   $0x0,-0x30(%ebp)
    4c7a:	75 19                	jne    4c95 <read+0x447>
    4c7c:	b9 60 96 01 00       	mov    $0x19660,%ecx
    4c81:	c7 04 d1 15 00 00 00 	movl   $0x15,(%ecx,%edx,8)
    4c88:	89 7c d1 04          	mov    %edi,0x4(%ecx,%edx,8)
    4c8c:	c7 45 d0 01 00 00 00 	movl   $0x1,-0x30(%ebp)
    4c93:	eb 5a                	jmp    4cef <read+0x4a1>
    4c95:	83 3c d5 60 96 01 00 	cmpl   $0xb,0x19660(,%edx,8)
    4c9c:	0b 
    4c9d:	75 50                	jne    4cef <read+0x4a1>
    4c9f:	c7 04 d5 60 96 01 00 	movl   $0x15,0x19660(,%edx,8)
    4ca6:	15 00 00 00 
    4caa:	c7 45 c8 01 00 00 00 	movl   $0x1,-0x38(%ebp)
    4cb1:	eb 3c                	jmp    4cef <read+0x4a1>
    4cb3:	8d 4e e0             	lea    -0x20(%esi),%ecx
    4cb6:	80 f9 5e             	cmp    $0x5e,%cl
    4cb9:	77 34                	ja     4cef <read+0x4a1>
    4cbb:	83 7d d0 00          	cmpl   $0x0,-0x30(%ebp)
    4cbf:	75 19                	jne    4cda <read+0x48c>
    4cc1:	b9 60 96 01 00       	mov    $0x19660,%ecx
    4cc6:	c7 04 d1 11 00 00 00 	movl   $0x11,(%ecx,%edx,8)
    4ccd:	89 7c d1 04          	mov    %edi,0x4(%ecx,%edx,8)
    4cd1:	c7 45 d0 01 00 00 00 	movl   $0x1,-0x30(%ebp)
    4cd8:	eb 15                	jmp    4cef <read+0x4a1>
    4cda:	83 3c d5 60 96 01 00 	cmpl   $0x15,0x19660(,%edx,8)
    4ce1:	15 
    4ce2:	75 0b                	jne    4cef <read+0x4a1>
    4ce4:	c7 04 d5 60 96 01 00 	movl   $0x11,0x19660(,%edx,8)
    4ceb:	11 00 00 00 
    4cef:	88 07                	mov    %al,(%edi)
    4cf1:	83 c7 01             	add    $0x1,%edi
    4cf4:	eb 02                	jmp    4cf8 <read+0x4aa>
    4cf6:	89 f7                	mov    %esi,%edi
    4cf8:	89 1c 24             	mov    %ebx,(%esp)
    4cfb:	e8 fd 02 00 00       	call   4ffd <scheme_port_get_char>
    4d00:	3c ff                	cmp    $0xff,%al
    4d02:	74 19                	je     4d1d <read+0x4cf>
    4d04:	3c 0b                	cmp    $0xb,%al
    4d06:	0f 84 ba fb ff ff    	je     48c6 <read+0x78>
    4d0c:	3c 09                	cmp    $0x9,%al
    4d0e:	66 90                	xchg   %ax,%ax
    4d10:	0f 85 7a fb ff ff    	jne    4890 <read+0x42>
    4d16:	66 90                	xchg   %ax,%ax
    4d18:	e9 a9 fb ff ff       	jmp    48c6 <read+0x78>
    4d1d:	83 7d d0 01          	cmpl   $0x1,-0x30(%ebp)
    4d21:	8d b4 26 00 00 00 00 	lea    0x0(%esi,%eiz,1),%esi
    4d28:	75 07                	jne    4d31 <read+0x4e3>
    4d2a:	c6 07 00             	movb   $0x0,(%edi)
    4d2d:	83 45 d4 01          	addl   $0x1,-0x2c(%ebp)
    4d31:	b8 60 96 01 00       	mov    $0x19660,%eax
    4d36:	8b 55 d4             	mov    -0x2c(%ebp),%edx
    4d39:	c7 04 d0 ff ff ff ff 	movl   $0xffffffff,(%eax,%edx,8)
    4d40:	89 45 e4             	mov    %eax,-0x1c(%ebp)
    4d43:	8b 10                	mov    (%eax),%edx
    4d45:	b8 40 ce 12 00       	mov    $0x12ce40,%eax
    4d4a:	83 fa 04             	cmp    $0x4,%edx
    4d4d:	74 68                	je     4db7 <read+0x569>
    4d4f:	83 fa 04             	cmp    $0x4,%edx
    4d52:	77 0e                	ja     4d62 <read+0x514>
    4d54:	83 fa 03             	cmp    $0x3,%edx
    4d57:	75 54                	jne    4dad <read+0x55f>
    4d59:	8d b4 26 00 00 00 00 	lea    0x0(%esi,%eiz,1),%esi
    4d60:	eb 18                	jmp    4d7a <read+0x52c>
    4d62:	83 fa 05             	cmp    $0x5,%edx
    4d65:	8d 76 00             	lea    0x0(%esi),%esi
    4d68:	74 21                	je     4d8b <read+0x53d>
    4d6a:	83 fa 06             	cmp    $0x6,%edx
    4d6d:	8d 76 00             	lea    0x0(%esi),%esi
    4d70:	75 3b                	jne    4dad <read+0x55f>
    4d72:	8d b6 00 00 00 00    	lea    0x0(%esi),%esi
    4d78:	eb 22                	jmp    4d9c <read+0x54e>
    4d7a:	c7 45 e4 68 96 01 00 	movl   $0x19668,-0x1c(%ebp)
    4d81:	8d 45 e4             	lea    -0x1c(%ebp),%eax
    4d84:	e8 0f f9 ff ff       	call   4698 <_create_list>
    4d89:	eb 2c                	jmp    4db7 <read+0x569>
    4d8b:	c7 45 e4 68 96 01 00 	movl   $0x19668,-0x1c(%ebp)
    4d92:	8d 45 e4             	lea    -0x1c(%ebp),%eax
    4d95:	e8 18 f8 ff ff       	call   45b2 <_create_vector>
    4d9a:	eb 1b                	jmp    4db7 <read+0x569>
    4d9c:	c7 45 e4 68 96 01 00 	movl   $0x19668,-0x1c(%ebp)
    4da3:	8d 45 e4             	lea    -0x1c(%ebp),%eax
    4da6:	e8 fc f9 ff ff       	call   47a7 <_create_quoted>
    4dab:	eb 0a                	jmp    4db7 <read+0x569>
    4dad:	b8 60 96 01 00       	mov    $0x19660,%eax
    4db2:	e8 93 f7 ff ff       	call   454a <_token_to_obj>
    4db7:	83 c4 3c             	add    $0x3c,%esp
    4dba:	5b                   	pop    %ebx
    4dbb:	5e                   	pop    %esi
    4dbc:	5f                   	pop    %edi
    4dbd:	5d                   	pop    %ebp
    4dbe:	c3                   	ret    

00004dbf <scheme_read>:
    4dbf:	55                   	push   %ebp
    4dc0:	89 e5                	mov    %esp,%ebp
    4dc2:	83 ec 18             	sub    $0x18,%esp
    4dc5:	81 7d 08 50 ce 12 00 	cmpl   $0x12ce50,0x8(%ebp)
    4dcc:	75 15                	jne    4de3 <scheme_read+0x24>
    4dce:	8d 45 08             	lea    0x8(%ebp),%eax
    4dd1:	89 44 24 04          	mov    %eax,0x4(%esp)
    4dd5:	c7 04 24 00 00 00 00 	movl   $0x0,(%esp)
    4ddc:	e8 6d fa ff ff       	call   484e <read>
    4de1:	eb 13                	jmp    4df6 <scheme_read+0x37>
    4de3:	8d 45 08             	lea    0x8(%ebp),%eax
    4de6:	89 44 24 04          	mov    %eax,0x4(%esp)
    4dea:	c7 04 24 01 00 00 00 	movl   $0x1,(%esp)
    4df1:	e8 58 fa ff ff       	call   484e <read>
    4df6:	c9                   	leave  
    4df7:	c3                   	ret    

00004df8 <scheme_init_read>:
    4df8:	55                   	push   %ebp
    4df9:	89 e5                	mov    %esp,%ebp
    4dfb:	53                   	push   %ebx
    4dfc:	83 ec 24             	sub    $0x24,%esp
    4dff:	8b 5d 08             	mov    0x8(%ebp),%ebx
    4e02:	c7 05 60 b6 01 00 00 	movl   $0x0,0x1b660
    4e09:	00 00 00 
    4e0c:	89 5c 24 10          	mov    %ebx,0x10(%esp)
    4e10:	c7 44 24 0c 01 00 00 	movl   $0x1,0xc(%esp)
    4e17:	00 
    4e18:	c7 44 24 08 00 00 00 	movl   $0x0,0x8(%esp)
    4e1f:	00 
    4e20:	c7 44 24 04 4e 48 00 	movl   $0x484e,0x4(%esp)
    4e27:	00 
    4e28:	c7 04 24 84 7e 00 00 	movl   $0x7e84,(%esp)
    4e2f:	e8 a6 12 00 00       	call   60da <scheme_register_primitive>
    4e34:	89 5c 24 10          	mov    %ebx,0x10(%esp)
    4e38:	c7 44 24 0c 01 00 00 	movl   $0x1,0xc(%esp)
    4e3f:	00 
    4e40:	c7 44 24 08 00 00 00 	movl   $0x0,0x8(%esp)
    4e47:	00 
    4e48:	c7 44 24 04 2d 45 00 	movl   $0x452d,0x4(%esp)
    4e4f:	00 
    4e50:	c7 04 24 89 7e 00 00 	movl   $0x7e89,(%esp)
    4e57:	e8 7e 12 00 00       	call   60da <scheme_register_primitive>
    4e5c:	89 5c 24 10          	mov    %ebx,0x10(%esp)
    4e60:	c7 44 24 0c 01 00 00 	movl   $0x1,0xc(%esp)
    4e67:	00 
    4e68:	c7 44 24 08 00 00 00 	movl   $0x0,0x8(%esp)
    4e6f:	00 
    4e70:	c7 44 24 04 10 45 00 	movl   $0x4510,0x4(%esp)
    4e77:	00 
    4e78:	c7 04 24 93 7e 00 00 	movl   $0x7e93,(%esp)
    4e7f:	e8 56 12 00 00       	call   60da <scheme_register_primitive>
    4e84:	89 5c 24 10          	mov    %ebx,0x10(%esp)
    4e88:	c7 44 24 0c 01 00 00 	movl   $0x1,0xc(%esp)
    4e8f:	00 
    4e90:	c7 44 24 08 01 00 00 	movl   $0x1,0x8(%esp)
    4e97:	00 
    4e98:	c7 44 24 04 ea 44 00 	movl   $0x44ea,0x4(%esp)
    4e9f:	00 
    4ea0:	c7 04 24 9d 7e 00 00 	movl   $0x7e9d,(%esp)
    4ea7:	e8 2e 12 00 00       	call   60da <scheme_register_primitive>
    4eac:	89 5c 24 10          	mov    %ebx,0x10(%esp)
    4eb0:	c7 44 24 0c 01 00 00 	movl   $0x1,0xc(%esp)
    4eb7:	00 
    4eb8:	c7 44 24 08 00 00 00 	movl   $0x0,0x8(%esp)
    4ebf:	00 
    4ec0:	c7 44 24 04 e0 44 00 	movl   $0x44e0,0x4(%esp)
    4ec7:	00 
    4ec8:	c7 04 24 a9 7e 00 00 	movl   $0x7ea9,(%esp)
    4ecf:	e8 06 12 00 00       	call   60da <scheme_register_primitive>
    4ed4:	83 c4 24             	add    $0x24,%esp
    4ed7:	5b                   	pop    %ebx
    4ed8:	5d                   	pop    %ebp
    4ed9:	c3                   	ret    
    4eda:	90                   	nop
    4edb:	90                   	nop
    4edc:	90                   	nop
    4edd:	90                   	nop
    4ede:	90                   	nop
    4edf:	90                   	nop

00004ee0 <input_port_p>:
    4ee0:	55                   	push   %ebp
    4ee1:	89 e5                	mov    %esp,%ebp
    4ee3:	8b 45 0c             	mov    0xc(%ebp),%eax
    4ee6:	8b 10                	mov    (%eax),%edx
    4ee8:	f6 c2 01             	test   $0x1,%dl
    4eeb:	75 0b                	jne    4ef8 <input_port_p+0x18>
    4eed:	b8 94 ce 12 00       	mov    $0x12ce94,%eax
    4ef2:	66 83 3a 16          	cmpw   $0x16,(%edx)
    4ef6:	74 05                	je     4efd <input_port_p+0x1d>
    4ef8:	b8 80 ce 12 00       	mov    $0x12ce80,%eax
    4efd:	5d                   	pop    %ebp
    4efe:	c3                   	ret    

00004eff <output_port_p>:
    4eff:	55                   	push   %ebp
    4f00:	89 e5                	mov    %esp,%ebp
    4f02:	8b 45 0c             	mov    0xc(%ebp),%eax
    4f05:	8b 10                	mov    (%eax),%edx
    4f07:	f6 c2 01             	test   $0x1,%dl
    4f0a:	75 0b                	jne    4f17 <output_port_p+0x18>
    4f0c:	b8 94 ce 12 00       	mov    $0x12ce94,%eax
    4f11:	66 83 3a 17          	cmpw   $0x17,(%edx)
    4f15:	74 05                	je     4f1c <output_port_p+0x1d>
    4f17:	b8 80 ce 12 00       	mov    $0x12ce80,%eax
    4f1c:	5d                   	pop    %ebp
    4f1d:	c3                   	ret    

00004f1e <current_input_port>:
    4f1e:	55                   	push   %ebp
    4f1f:	89 e5                	mov    %esp,%ebp
    4f21:	a1 08 be 12 00       	mov    0x12be08,%eax
    4f26:	5d                   	pop    %ebp
    4f27:	c3                   	ret    

00004f28 <current_output_port>:
    4f28:	55                   	push   %ebp
    4f29:	89 e5                	mov    %esp,%ebp
    4f2b:	a1 90 ce 12 00       	mov    0x12ce90,%eax
    4f30:	5d                   	pop    %ebp
    4f31:	c3                   	ret    

00004f32 <with_input_from_file>:
    4f32:	55                   	push   %ebp
    4f33:	89 e5                	mov    %esp,%ebp
    4f35:	5d                   	pop    %ebp
    4f36:	c3                   	ret    

00004f37 <with_output_to_file>:
    4f37:	55                   	push   %ebp
    4f38:	89 e5                	mov    %esp,%ebp
    4f3a:	5d                   	pop    %ebp
    4f3b:	c3                   	ret    

00004f3c <open_input_file>:
    4f3c:	55                   	push   %ebp
    4f3d:	89 e5                	mov    %esp,%ebp
    4f3f:	5d                   	pop    %ebp
    4f40:	c3                   	ret    

00004f41 <open_output_file>:
    4f41:	55                   	push   %ebp
    4f42:	89 e5                	mov    %esp,%ebp
    4f44:	5d                   	pop    %ebp
    4f45:	c3                   	ret    

00004f46 <close_input_port>:
    4f46:	55                   	push   %ebp
    4f47:	89 e5                	mov    %esp,%ebp
    4f49:	5d                   	pop    %ebp
    4f4a:	c3                   	ret    

00004f4b <close_output_port>:
    4f4b:	55                   	push   %ebp
    4f4c:	89 e5                	mov    %esp,%ebp
    4f4e:	5d                   	pop    %ebp
    4f4f:	c3                   	ret    

00004f50 <scheme_port_peek_char>:
    4f50:	55                   	push   %ebp
    4f51:	89 e5                	mov    %esp,%ebp
    4f53:	8b 55 08             	mov    0x8(%ebp),%edx
    4f56:	8b 4a 08             	mov    0x8(%edx),%ecx
    4f59:	f6 c1 03             	test   $0x3,%cl
    4f5c:	75 0f                	jne    4f6d <scheme_port_peek_char+0x1d>
    4f5e:	d1 f9                	sar    %ecx
    4f60:	8b 42 04             	mov    0x4(%edx),%eax
    4f63:	0f b6 04 08          	movzbl (%eax,%ecx,1),%eax
    4f67:	3c 01                	cmp    $0x1,%al
    4f69:	19 d2                	sbb    %edx,%edx
    4f6b:	09 d0                	or     %edx,%eax
    4f6d:	5d                   	pop    %ebp
    4f6e:	c3                   	ret    

00004f6f <scheme_port_get_string>:
    4f6f:	55                   	push   %ebp
    4f70:	89 e5                	mov    %esp,%ebp
    4f72:	83 ec 10             	sub    $0x10,%esp
    4f75:	89 5d f4             	mov    %ebx,-0xc(%ebp)
    4f78:	89 75 f8             	mov    %esi,-0x8(%ebp)
    4f7b:	89 7d fc             	mov    %edi,-0x4(%ebp)
    4f7e:	8b 4d 08             	mov    0x8(%ebp),%ecx
    4f81:	8b 55 0c             	mov    0xc(%ebp),%edx
    4f84:	8b 5d 10             	mov    0x10(%ebp),%ebx
    4f87:	8b 71 08             	mov    0x8(%ecx),%esi
    4f8a:	b8 00 00 00 00       	mov    $0x0,%eax
    4f8f:	f7 c6 03 00 00 00    	test   $0x3,%esi
    4f95:	75 59                	jne    4ff0 <scheme_port_get_string+0x81>
    4f97:	d1 fe                	sar    %esi
    4f99:	03 71 04             	add    0x4(%ecx),%esi
    4f9c:	89 75 f0             	mov    %esi,-0x10(%ebp)
    4f9f:	85 db                	test   %ebx,%ebx
    4fa1:	7e 33                	jle    4fd6 <scheme_port_get_string+0x67>
    4fa3:	0f b6 06             	movzbl (%esi),%eax
    4fa6:	88 02                	mov    %al,(%edx)
    4fa8:	84 c0                	test   %al,%al
    4faa:	74 3f                	je     4feb <scheme_port_get_string+0x7c>
    4fac:	83 c2 01             	add    $0x1,%edx
    4faf:	8b 75 f0             	mov    -0x10(%ebp),%esi
    4fb2:	83 c6 01             	add    $0x1,%esi
    4fb5:	b8 00 00 00 00       	mov    $0x0,%eax
    4fba:	89 df                	mov    %ebx,%edi
    4fbc:	83 c0 01             	add    $0x1,%eax
    4fbf:	89 fb                	mov    %edi,%ebx
    4fc1:	29 c3                	sub    %eax,%ebx
    4fc3:	85 db                	test   %ebx,%ebx
    4fc5:	7e 0f                	jle    4fd6 <scheme_port_get_string+0x67>
    4fc7:	0f b6 1e             	movzbl (%esi),%ebx
    4fca:	88 1a                	mov    %bl,(%edx)
    4fcc:	83 c2 01             	add    $0x1,%edx
    4fcf:	83 c6 01             	add    $0x1,%esi
    4fd2:	84 db                	test   %bl,%bl
    4fd4:	75 e6                	jne    4fbc <scheme_port_get_string+0x4d>
    4fd6:	8b 5d f0             	mov    -0x10(%ebp),%ebx
    4fd9:	83 c3 01             	add    $0x1,%ebx
    4fdc:	39 de                	cmp    %ebx,%esi
    4fde:	74 0b                	je     4feb <scheme_port_get_string+0x7c>
    4fe0:	c6 02 00             	movb   $0x0,(%edx)
    4fe3:	8d 14 00             	lea    (%eax,%eax,1),%edx
    4fe6:	01 51 08             	add    %edx,0x8(%ecx)
    4fe9:	eb 05                	jmp    4ff0 <scheme_port_get_string+0x81>
    4feb:	b8 ff ff ff ff       	mov    $0xffffffff,%eax
    4ff0:	8b 5d f4             	mov    -0xc(%ebp),%ebx
    4ff3:	8b 75 f8             	mov    -0x8(%ebp),%esi
    4ff6:	8b 7d fc             	mov    -0x4(%ebp),%edi
    4ff9:	89 ec                	mov    %ebp,%esp
    4ffb:	5d                   	pop    %ebp
    4ffc:	c3                   	ret    

00004ffd <scheme_port_get_char>:
    4ffd:	55                   	push   %ebp
    4ffe:	89 e5                	mov    %esp,%ebp
    5000:	57                   	push   %edi
    5001:	56                   	push   %esi
    5002:	53                   	push   %ebx
    5003:	83 ec 1c             	sub    $0x1c,%esp
    5006:	8b 4d 08             	mov    0x8(%ebp),%ecx
    5009:	8b 51 08             	mov    0x8(%ecx),%edx
    500c:	89 d3                	mov    %edx,%ebx
    500e:	83 e3 03             	and    $0x3,%ebx
    5011:	74 0b                	je     501e <scheme_port_get_char+0x21>
    5013:	83 fb 02             	cmp    $0x2,%ebx
    5016:	0f 85 f9 00 00 00    	jne    5115 <scheme_port_get_char+0x118>
    501c:	eb 1d                	jmp    503b <scheme_port_get_char+0x3e>
    501e:	89 d0                	mov    %edx,%eax
    5020:	c1 f8 02             	sar    $0x2,%eax
    5023:	8b 59 04             	mov    0x4(%ecx),%ebx
    5026:	0f b6 04 03          	movzbl (%ebx,%eax,1),%eax
    502a:	83 c2 04             	add    $0x4,%edx
    502d:	89 51 08             	mov    %edx,0x8(%ecx)
    5030:	3c 01                	cmp    $0x1,%al
    5032:	19 d2                	sbb    %edx,%edx
    5034:	09 d0                	or     %edx,%eax
    5036:	e9 da 00 00 00       	jmp    5115 <scheme_port_get_char+0x118>
    503b:	8b 15 80 ba 01 00    	mov    0x1ba80,%edx
    5041:	0f b6 82 80 b6 01 00 	movzbl 0x1b680(%edx),%eax
    5048:	83 c2 01             	add    $0x1,%edx
    504b:	89 15 80 ba 01 00    	mov    %edx,0x1ba80
    5051:	3c 0a                	cmp    $0xa,%al
    5053:	75 16                	jne    506b <scheme_port_get_char+0x6e>
    5055:	c7 05 80 ba 01 00 00 	movl   $0x0,0x1ba80
    505c:	00 00 00 
    505f:	c6 05 80 b6 01 00 00 	movb   $0x0,0x1b680
    5066:	e9 aa 00 00 00       	jmp    5115 <scheme_port_get_char+0x118>
    506b:	84 c0                	test   %al,%al
    506d:	0f 85 a2 00 00 00    	jne    5115 <scheme_port_get_char+0x118>
    5073:	c7 05 80 ba 01 00 00 	movl   $0x0,0x1ba80
    507a:	00 00 00 
    507d:	bf 08 35 00 00       	mov    $0x3508,%edi
    5082:	bb 64 00 00 00       	mov    $0x64,%ebx
    5087:	89 da                	mov    %ebx,%edx
    5089:	ec                   	in     (%dx),%al
    508a:	a8 01                	test   $0x1,%al
    508c:	74 f9                	je     5087 <scheme_port_get_char+0x8a>
    508e:	ba 60 00 00 00       	mov    $0x60,%edx
    5093:	ec                   	in     (%dx),%al
    5094:	89 c6                	mov    %eax,%esi
    5096:	84 c0                	test   %al,%al
    5098:	79 0f                	jns    50a9 <scheme_port_get_char+0xac>
    509a:	3c aa                	cmp    $0xaa,%al
    509c:	74 04                	je     50a2 <scheme_port_get_char+0xa5>
    509e:	3c b6                	cmp    $0xb6,%al
    50a0:	75 5c                	jne    50fe <scheme_port_get_char+0x101>
    50a2:	bf 08 35 00 00       	mov    $0x3508,%edi
    50a7:	eb 55                	jmp    50fe <scheme_port_get_char+0x101>
    50a9:	3c 2a                	cmp    $0x2a,%al
    50ab:	74 05                	je     50b2 <scheme_port_get_char+0xb5>
    50ad:	3c 36                	cmp    $0x36,%al
    50af:	90                   	nop
    50b0:	75 07                	jne    50b9 <scheme_port_get_char+0xbc>
    50b2:	bf 69 35 00 00       	mov    $0x3569,%edi
    50b7:	eb 45                	jmp    50fe <scheme_port_get_char+0x101>
    50b9:	89 f2                	mov    %esi,%edx
    50bb:	0f be f2             	movsbl %dl,%esi
    50be:	0f b6 34 37          	movzbl (%edi,%esi,1),%esi
    50c2:	89 f0                	mov    %esi,%eax
    50c4:	3c 0d                	cmp    $0xd,%al
    50c6:	75 05                	jne    50cd <scheme_port_get_char+0xd0>
    50c8:	be 0a 00 00 00       	mov    $0xa,%esi
    50cd:	89 f2                	mov    %esi,%edx
    50cf:	0f be c2             	movsbl %dl,%eax
    50d2:	89 44 24 04          	mov    %eax,0x4(%esp)
    50d6:	c7 04 24 b5 7e 00 00 	movl   $0x7eb5,(%esp)
    50dd:	e8 62 24 00 00       	call   7544 <printf>
    50e2:	a1 80 ba 01 00       	mov    0x1ba80,%eax
    50e7:	3d ff 03 00 00       	cmp    $0x3ff,%eax
    50ec:	7f 10                	jg     50fe <scheme_port_get_char+0x101>
    50ee:	89 f2                	mov    %esi,%edx
    50f0:	88 90 80 b6 01 00    	mov    %dl,0x1b680(%eax)
    50f6:	83 c0 01             	add    $0x1,%eax
    50f9:	a3 80 ba 01 00       	mov    %eax,0x1ba80
    50fe:	89 f0                	mov    %esi,%eax
    5100:	3c 0a                	cmp    $0xa,%al
    5102:	75 83                	jne    5087 <scheme_port_get_char+0x8a>
    5104:	0f b6 05 80 b6 01 00 	movzbl 0x1b680,%eax
    510b:	c7 05 80 ba 01 00 01 	movl   $0x1,0x1ba80
    5112:	00 00 00 
    5115:	83 c4 1c             	add    $0x1c,%esp
    5118:	5b                   	pop    %ebx
    5119:	5e                   	pop    %esi
    511a:	5f                   	pop    %edi
    511b:	5d                   	pop    %ebp
    511c:	c3                   	ret    

0000511d <scheme_make_char_input_stream>:
    511d:	55                   	push   %ebp
    511e:	89 e5                	mov    %esp,%ebp
    5120:	83 ec 18             	sub    $0x18,%esp
    5123:	c7 04 24 10 00 00 00 	movl   $0x10,(%esp)
    512a:	e8 25 20 00 00       	call   7154 <kmalloc>
    512f:	3d 40 ce 12 00       	cmp    $0x12ce40,%eax
    5134:	74 12                	je     5148 <scheme_make_char_input_stream+0x2b>
    5136:	66 c7 00 16 00       	movw   $0x16,(%eax)
    513b:	8b 55 08             	mov    0x8(%ebp),%edx
    513e:	89 50 04             	mov    %edx,0x4(%eax)
    5141:	c7 40 08 00 00 00 00 	movl   $0x0,0x8(%eax)
    5148:	c9                   	leave  
    5149:	c3                   	ret    

0000514a <scheme_init_port>:
    514a:	55                   	push   %ebp
    514b:	89 e5                	mov    %esp,%ebp
    514d:	56                   	push   %esi
    514e:	53                   	push   %ebx
    514f:	83 ec 20             	sub    $0x20,%esp
    5152:	8b 5d 08             	mov    0x8(%ebp),%ebx
    5155:	c7 05 80 ba 01 00 00 	movl   $0x0,0x1ba80
    515c:	00 00 00 
    515f:	c6 05 80 b6 01 00 00 	movb   $0x0,0x1b680
    5166:	c7 04 24 10 00 00 00 	movl   $0x10,(%esp)
    516d:	e8 e2 1f 00 00       	call   7154 <kmalloc>
    5172:	89 c6                	mov    %eax,%esi
    5174:	66 c7 00 16 00       	movw   $0x16,(%eax)
    5179:	c7 40 04 50 ce 12 00 	movl   $0x12ce50,0x4(%eax)
    5180:	c7 40 08 02 00 00 00 	movl   $0x2,0x8(%eax)
    5187:	a3 08 be 12 00       	mov    %eax,0x12be08
    518c:	89 5c 24 10          	mov    %ebx,0x10(%esp)
    5190:	c7 44 24 0c 01 00 00 	movl   $0x1,0xc(%esp)
    5197:	00 
    5198:	c7 44 24 08 01 00 00 	movl   $0x1,0x8(%esp)
    519f:	00 
    51a0:	c7 44 24 04 e0 4e 00 	movl   $0x4ee0,0x4(%esp)
    51a7:	00 
    51a8:	c7 04 24 b8 7e 00 00 	movl   $0x7eb8,(%esp)
    51af:	e8 26 0f 00 00       	call   60da <scheme_register_primitive>
    51b4:	89 5c 24 10          	mov    %ebx,0x10(%esp)
    51b8:	c7 44 24 0c 01 00 00 	movl   $0x1,0xc(%esp)
    51bf:	00 
    51c0:	c7 44 24 08 01 00 00 	movl   $0x1,0x8(%esp)
    51c7:	00 
    51c8:	c7 44 24 04 ff 4e 00 	movl   $0x4eff,0x4(%esp)
    51cf:	00 
    51d0:	c7 04 24 c4 7e 00 00 	movl   $0x7ec4,(%esp)
    51d7:	e8 fe 0e 00 00       	call   60da <scheme_register_primitive>
    51dc:	89 5c 24 10          	mov    %ebx,0x10(%esp)
    51e0:	c7 44 24 0c 00 00 00 	movl   $0x0,0xc(%esp)
    51e7:	00 
    51e8:	c7 44 24 08 00 00 00 	movl   $0x0,0x8(%esp)
    51ef:	00 
    51f0:	c7 44 24 04 1e 4f 00 	movl   $0x4f1e,0x4(%esp)
    51f7:	00 
    51f8:	c7 04 24 d1 7e 00 00 	movl   $0x7ed1,(%esp)
    51ff:	e8 d6 0e 00 00       	call   60da <scheme_register_primitive>
    5204:	89 5c 24 10          	mov    %ebx,0x10(%esp)
    5208:	c7 44 24 0c 00 00 00 	movl   $0x0,0xc(%esp)
    520f:	00 
    5210:	c7 44 24 08 00 00 00 	movl   $0x0,0x8(%esp)
    5217:	00 
    5218:	c7 44 24 04 28 4f 00 	movl   $0x4f28,0x4(%esp)
    521f:	00 
    5220:	c7 04 24 e4 7e 00 00 	movl   $0x7ee4,(%esp)
    5227:	e8 ae 0e 00 00       	call   60da <scheme_register_primitive>
    522c:	89 5c 24 10          	mov    %ebx,0x10(%esp)
    5230:	c7 44 24 0c 01 00 00 	movl   $0x1,0xc(%esp)
    5237:	00 
    5238:	c7 44 24 08 01 00 00 	movl   $0x1,0x8(%esp)
    523f:	00 
    5240:	c7 44 24 04 32 4f 00 	movl   $0x4f32,0x4(%esp)
    5247:	00 
    5248:	c7 04 24 f8 7e 00 00 	movl   $0x7ef8,(%esp)
    524f:	e8 86 0e 00 00       	call   60da <scheme_register_primitive>
    5254:	89 5c 24 10          	mov    %ebx,0x10(%esp)
    5258:	c7 44 24 0c 01 00 00 	movl   $0x1,0xc(%esp)
    525f:	00 
    5260:	c7 44 24 08 01 00 00 	movl   $0x1,0x8(%esp)
    5267:	00 
    5268:	c7 44 24 04 37 4f 00 	movl   $0x4f37,0x4(%esp)
    526f:	00 
    5270:	c7 04 24 0d 7f 00 00 	movl   $0x7f0d,(%esp)
    5277:	e8 5e 0e 00 00       	call   60da <scheme_register_primitive>
    527c:	89 5c 24 10          	mov    %ebx,0x10(%esp)
    5280:	c7 44 24 0c 01 00 00 	movl   $0x1,0xc(%esp)
    5287:	00 
    5288:	c7 44 24 08 01 00 00 	movl   $0x1,0x8(%esp)
    528f:	00 
    5290:	c7 44 24 04 3c 4f 00 	movl   $0x4f3c,0x4(%esp)
    5297:	00 
    5298:	c7 04 24 21 7f 00 00 	movl   $0x7f21,(%esp)
    529f:	e8 36 0e 00 00       	call   60da <scheme_register_primitive>
    52a4:	89 5c 24 10          	mov    %ebx,0x10(%esp)
    52a8:	c7 44 24 0c 01 00 00 	movl   $0x1,0xc(%esp)
    52af:	00 
    52b0:	c7 44 24 08 01 00 00 	movl   $0x1,0x8(%esp)
    52b7:	00 
    52b8:	c7 44 24 04 41 4f 00 	movl   $0x4f41,0x4(%esp)
    52bf:	00 
    52c0:	c7 04 24 31 7f 00 00 	movl   $0x7f31,(%esp)
    52c7:	e8 0e 0e 00 00       	call   60da <scheme_register_primitive>
    52cc:	89 5c 24 10          	mov    %ebx,0x10(%esp)
    52d0:	c7 44 24 0c 01 00 00 	movl   $0x1,0xc(%esp)
    52d7:	00 
    52d8:	c7 44 24 08 01 00 00 	movl   $0x1,0x8(%esp)
    52df:	00 
    52e0:	c7 44 24 04 46 4f 00 	movl   $0x4f46,0x4(%esp)
    52e7:	00 
    52e8:	c7 04 24 42 7f 00 00 	movl   $0x7f42,(%esp)
    52ef:	e8 e6 0d 00 00       	call   60da <scheme_register_primitive>
    52f4:	89 5c 24 10          	mov    %ebx,0x10(%esp)
    52f8:	c7 44 24 0c 01 00 00 	movl   $0x1,0xc(%esp)
    52ff:	00 
    5300:	c7 44 24 08 01 00 00 	movl   $0x1,0x8(%esp)
    5307:	00 
    5308:	c7 44 24 04 4b 4f 00 	movl   $0x4f4b,0x4(%esp)
    530f:	00 
    5310:	c7 04 24 53 7f 00 00 	movl   $0x7f53,(%esp)
    5317:	e8 be 0d 00 00       	call   60da <scheme_register_primitive>
    531c:	c7 04 24 65 7f 00 00 	movl   $0x7f65,(%esp)
    5323:	e8 18 08 00 00       	call   5b40 <scheme_make_symbol>
    5328:	89 5c 24 08          	mov    %ebx,0x8(%esp)
    532c:	89 74 24 04          	mov    %esi,0x4(%esp)
    5330:	89 04 24             	mov    %eax,(%esp)
    5333:	e8 f2 0c 00 00       	call   602a <scheme_define_var>
    5338:	83 c4 20             	add    $0x20,%esp
    533b:	5b                   	pop    %ebx
    533c:	5e                   	pop    %esi
    533d:	5d                   	pop    %ebp
    533e:	c3                   	ret    
    533f:	90                   	nop

00005340 <_gcd>:
    5340:	55                   	push   %ebp
    5341:	89 e5                	mov    %esp,%ebp
    5343:	8b 45 08             	mov    0x8(%ebp),%eax
    5346:	8b 55 0c             	mov    0xc(%ebp),%edx
    5349:	39 d0                	cmp    %edx,%eax
    534b:	7e 06                	jle    5353 <_gcd+0x13>
    534d:	89 c1                	mov    %eax,%ecx
    534f:	89 d0                	mov    %edx,%eax
    5351:	89 ca                	mov    %ecx,%edx
    5353:	29 c2                	sub    %eax,%edx
    5355:	75 f2                	jne    5349 <_gcd+0x9>
    5357:	5d                   	pop    %ebp
    5358:	c3                   	ret    

00005359 <number_p>:
    5359:	55                   	push   %ebp
    535a:	89 e5                	mov    %esp,%ebp
    535c:	8b 45 0c             	mov    0xc(%ebp),%eax
    535f:	8b 00                	mov    (%eax),%eax
    5361:	a8 01                	test   $0x1,%al
    5363:	75 14                	jne    5379 <number_p+0x20>
    5365:	0f b7 10             	movzwl (%eax),%edx
    5368:	66 83 fa 09          	cmp    $0x9,%dx
    536c:	7e 0b                	jle    5379 <number_p+0x20>
    536e:	b8 94 ce 12 00       	mov    $0x12ce94,%eax
    5373:	66 83 fa 0f          	cmp    $0xf,%dx
    5377:	7e 05                	jle    537e <number_p+0x25>
    5379:	b8 80 ce 12 00       	mov    $0x12ce80,%eax
    537e:	5d                   	pop    %ebp
    537f:	c3                   	ret    

00005380 <real_p>:
    5380:	55                   	push   %ebp
    5381:	89 e5                	mov    %esp,%ebp
    5383:	8b 45 0c             	mov    0xc(%ebp),%eax
    5386:	8b 10                	mov    (%eax),%edx
    5388:	f6 c2 01             	test   $0x1,%dl
    538b:	75 0b                	jne    5398 <real_p+0x18>
    538d:	b8 94 ce 12 00       	mov    $0x12ce94,%eax
    5392:	66 83 3a 0f          	cmpw   $0xf,(%edx)
    5396:	74 05                	je     539d <real_p+0x1d>
    5398:	b8 80 ce 12 00       	mov    $0x12ce80,%eax
    539d:	5d                   	pop    %ebp
    539e:	c3                   	ret    

0000539f <rational_p>:
    539f:	55                   	push   %ebp
    53a0:	89 e5                	mov    %esp,%ebp
    53a2:	8b 45 0c             	mov    0xc(%ebp),%eax
    53a5:	8b 10                	mov    (%eax),%edx
    53a7:	f6 c2 01             	test   $0x1,%dl
    53aa:	75 0b                	jne    53b7 <rational_p+0x18>
    53ac:	b8 94 ce 12 00       	mov    $0x12ce94,%eax
    53b1:	66 83 3a 0c          	cmpw   $0xc,(%edx)
    53b5:	74 05                	je     53bc <rational_p+0x1d>
    53b7:	b8 80 ce 12 00       	mov    $0x12ce80,%eax
    53bc:	5d                   	pop    %ebp
    53bd:	c3                   	ret    

000053be <integer_p>:
    53be:	55                   	push   %ebp
    53bf:	89 e5                	mov    %esp,%ebp
    53c1:	8b 45 0c             	mov    0xc(%ebp),%eax
    53c4:	8b 10                	mov    (%eax),%edx
    53c6:	f6 c2 01             	test   $0x1,%dl
    53c9:	75 0b                	jne    53d6 <integer_p+0x18>
    53cb:	b8 94 ce 12 00       	mov    $0x12ce94,%eax
    53d0:	66 83 3a 0a          	cmpw   $0xa,(%edx)
    53d4:	74 05                	je     53db <integer_p+0x1d>
    53d6:	b8 80 ce 12 00       	mov    $0x12ce80,%eax
    53db:	5d                   	pop    %ebp
    53dc:	c3                   	ret    

000053dd <exact_p>:
    53dd:	55                   	push   %ebp
    53de:	89 e5                	mov    %esp,%ebp
    53e0:	b8 94 ce 12 00       	mov    $0x12ce94,%eax
    53e5:	5d                   	pop    %ebp
    53e6:	c3                   	ret    

000053e7 <inexact_p>:
    53e7:	55                   	push   %ebp
    53e8:	89 e5                	mov    %esp,%ebp
    53ea:	b8 80 ce 12 00       	mov    $0x12ce80,%eax
    53ef:	5d                   	pop    %ebp
    53f0:	c3                   	ret    

000053f1 <divison>:
    53f1:	55                   	push   %ebp
    53f2:	89 e5                	mov    %esp,%ebp
    53f4:	57                   	push   %edi
    53f5:	56                   	push   %esi
    53f6:	53                   	push   %ebx
    53f7:	83 ec 2c             	sub    $0x2c,%esp
    53fa:	8b 7d 08             	mov    0x8(%ebp),%edi
    53fd:	8b 5d 0c             	mov    0xc(%ebp),%ebx
    5400:	c7 04 24 10 00 00 00 	movl   $0x10,(%esp)
    5407:	e8 48 1d 00 00       	call   7154 <kmalloc>
    540c:	89 c6                	mov    %eax,%esi
    540e:	83 ff 01             	cmp    $0x1,%edi
    5411:	75 13                	jne    5426 <divison+0x35>
    5413:	66 c7 00 0a 00       	movw   $0xa,(%eax)
    5418:	c7 40 04 01 00 00 00 	movl   $0x1,0x4(%eax)
    541f:	b9 00 00 00 00       	mov    $0x0,%ecx
    5424:	eb 25                	jmp    544b <divison+0x5a>
    5426:	83 ef 01             	sub    $0x1,%edi
    5429:	8b 03                	mov    (%ebx),%eax
    542b:	8b 10                	mov    (%eax),%edx
    542d:	89 16                	mov    %edx,(%esi)
    542f:	8b 50 04             	mov    0x4(%eax),%edx
    5432:	89 56 04             	mov    %edx,0x4(%esi)
    5435:	8b 50 08             	mov    0x8(%eax),%edx
    5438:	89 56 08             	mov    %edx,0x8(%esi)
    543b:	8b 40 0c             	mov    0xc(%eax),%eax
    543e:	89 46 0c             	mov    %eax,0xc(%esi)
    5441:	85 ff                	test   %edi,%edi
    5443:	7e 72                	jle    54b7 <divison+0xc6>
    5445:	83 c3 04             	add    $0x4,%ebx
    5448:	8d 4f ff             	lea    -0x1(%edi),%ecx
    544b:	89 f0                	mov    %esi,%eax
    544d:	83 e0 01             	and    $0x1,%eax
    5450:	89 45 e4             	mov    %eax,-0x1c(%ebp)
    5453:	ba 08 00 00 00       	mov    $0x8,%edx
    5458:	83 7d e4 00          	cmpl   $0x0,-0x1c(%ebp)
    545c:	75 03                	jne    5461 <divison+0x70>
    545e:	0f bf 16             	movswl (%esi),%edx
    5461:	8b 3b                	mov    (%ebx),%edi
    5463:	b8 08 00 00 00       	mov    $0x8,%eax
    5468:	f7 c7 01 00 00 00    	test   $0x1,%edi
    546e:	75 03                	jne    5473 <divison+0x82>
    5470:	0f bf 07             	movswl (%edi),%eax
    5473:	39 c2                	cmp    %eax,%edx
    5475:	75 34                	jne    54ab <divison+0xba>
    5477:	83 7d e4 00          	cmpl   $0x0,-0x1c(%ebp)
    547b:	75 2e                	jne    54ab <divison+0xba>
    547d:	0f b7 06             	movzwl (%esi),%eax
    5480:	66 83 f8 0a          	cmp    $0xa,%ax
    5484:	74 0c                	je     5492 <divison+0xa1>
    5486:	66 83 f8 0f          	cmp    $0xf,%ax
    548a:	75 1f                	jne    54ab <divison+0xba>
    548c:	8d 74 26 00          	lea    0x0(%esi,%eiz,1),%esi
    5490:	eb 10                	jmp    54a2 <divison+0xb1>
    5492:	8b 56 04             	mov    0x4(%esi),%edx
    5495:	89 d0                	mov    %edx,%eax
    5497:	c1 fa 1f             	sar    $0x1f,%edx
    549a:	f7 7f 04             	idivl  0x4(%edi)
    549d:	89 46 04             	mov    %eax,0x4(%esi)
    54a0:	eb 09                	jmp    54ab <divison+0xba>
    54a2:	dd 47 04             	fldl   0x4(%edi)
    54a5:	dc 76 04             	fdivl  0x4(%esi)
    54a8:	dd 5e 04             	fstpl  0x4(%esi)
    54ab:	85 c9                	test   %ecx,%ecx
    54ad:	7e 08                	jle    54b7 <divison+0xc6>
    54af:	83 c3 04             	add    $0x4,%ebx
    54b2:	83 e9 01             	sub    $0x1,%ecx
    54b5:	eb 9c                	jmp    5453 <divison+0x62>
    54b7:	89 f0                	mov    %esi,%eax
    54b9:	83 c4 2c             	add    $0x2c,%esp
    54bc:	5b                   	pop    %ebx
    54bd:	5e                   	pop    %esi
    54be:	5f                   	pop    %edi
    54bf:	5d                   	pop    %ebp
    54c0:	c3                   	ret    

000054c1 <multiplication>:
    54c1:	55                   	push   %ebp
    54c2:	89 e5                	mov    %esp,%ebp
    54c4:	57                   	push   %edi
    54c5:	56                   	push   %esi
    54c6:	53                   	push   %ebx
    54c7:	83 ec 2c             	sub    $0x2c,%esp
    54ca:	8b 5d 08             	mov    0x8(%ebp),%ebx
    54cd:	c7 04 24 10 00 00 00 	movl   $0x10,(%esp)
    54d4:	e8 7b 1c 00 00       	call   7154 <kmalloc>
    54d9:	66 c7 00 0a 00       	movw   $0xa,(%eax)
    54de:	c7 40 04 01 00 00 00 	movl   $0x1,0x4(%eax)
    54e5:	85 db                	test   %ebx,%ebx
    54e7:	7e 6a                	jle    5553 <multiplication+0x92>
    54e9:	89 5d e0             	mov    %ebx,-0x20(%ebp)
    54ec:	ba 00 00 00 00       	mov    $0x0,%edx
    54f1:	89 c1                	mov    %eax,%ecx
    54f3:	83 e1 01             	and    $0x1,%ecx
    54f6:	89 4d e4             	mov    %ecx,-0x1c(%ebp)
    54f9:	bf 08 00 00 00       	mov    $0x8,%edi
    54fe:	89 fe                	mov    %edi,%esi
    5500:	83 7d e4 00          	cmpl   $0x0,-0x1c(%ebp)
    5504:	75 03                	jne    5509 <multiplication+0x48>
    5506:	0f bf 30             	movswl (%eax),%esi
    5509:	8b 5d 0c             	mov    0xc(%ebp),%ebx
    550c:	8b 0c 93             	mov    (%ebx,%edx,4),%ecx
    550f:	89 fb                	mov    %edi,%ebx
    5511:	f6 c1 01             	test   $0x1,%cl
    5514:	75 03                	jne    5519 <multiplication+0x58>
    5516:	0f bf 19             	movswl (%ecx),%ebx
    5519:	39 de                	cmp    %ebx,%esi
    551b:	75 2e                	jne    554b <multiplication+0x8a>
    551d:	83 7d e4 00          	cmpl   $0x0,-0x1c(%ebp)
    5521:	75 28                	jne    554b <multiplication+0x8a>
    5523:	0f b7 18             	movzwl (%eax),%ebx
    5526:	66 83 fb 0a          	cmp    $0xa,%bx
    552a:	74 08                	je     5534 <multiplication+0x73>
    552c:	66 83 fb 0f          	cmp    $0xf,%bx
    5530:	75 19                	jne    554b <multiplication+0x8a>
    5532:	eb 0e                	jmp    5542 <multiplication+0x81>
    5534:	8b 58 04             	mov    0x4(%eax),%ebx
    5537:	0f af 59 04          	imul   0x4(%ecx),%ebx
    553b:	89 58 04             	mov    %ebx,0x4(%eax)
    553e:	66 90                	xchg   %ax,%ax
    5540:	eb 09                	jmp    554b <multiplication+0x8a>
    5542:	dd 40 04             	fldl   0x4(%eax)
    5545:	dc 49 04             	fmull  0x4(%ecx)
    5548:	dd 58 04             	fstpl  0x4(%eax)
    554b:	83 c2 01             	add    $0x1,%edx
    554e:	3b 55 e0             	cmp    -0x20(%ebp),%edx
    5551:	75 ab                	jne    54fe <multiplication+0x3d>
    5553:	83 c4 2c             	add    $0x2c,%esp
    5556:	5b                   	pop    %ebx
    5557:	5e                   	pop    %esi
    5558:	5f                   	pop    %edi
    5559:	5d                   	pop    %ebp
    555a:	c3                   	ret    

0000555b <subtraction>:
    555b:	55                   	push   %ebp
    555c:	89 e5                	mov    %esp,%ebp
    555e:	57                   	push   %edi
    555f:	56                   	push   %esi
    5560:	53                   	push   %ebx
    5561:	83 ec 2c             	sub    $0x2c,%esp
    5564:	8b 75 08             	mov    0x8(%ebp),%esi
    5567:	8b 5d 0c             	mov    0xc(%ebp),%ebx
    556a:	c7 04 24 10 00 00 00 	movl   $0x10,(%esp)
    5571:	e8 de 1b 00 00       	call   7154 <kmalloc>
    5576:	83 fe 01             	cmp    $0x1,%esi
    5579:	75 15                	jne    5590 <subtraction+0x35>
    557b:	66 c7 00 0a 00       	movw   $0xa,(%eax)
    5580:	c7 40 04 00 00 00 00 	movl   $0x0,0x4(%eax)
    5587:	89 d9                	mov    %ebx,%ecx
    5589:	ba 00 00 00 00       	mov    $0x0,%edx
    558e:	eb 25                	jmp    55b5 <subtraction+0x5a>
    5590:	83 ee 01             	sub    $0x1,%esi
    5593:	8b 0b                	mov    (%ebx),%ecx
    5595:	8b 11                	mov    (%ecx),%edx
    5597:	89 10                	mov    %edx,(%eax)
    5599:	8b 51 04             	mov    0x4(%ecx),%edx
    559c:	89 50 04             	mov    %edx,0x4(%eax)
    559f:	8b 51 08             	mov    0x8(%ecx),%edx
    55a2:	89 50 08             	mov    %edx,0x8(%eax)
    55a5:	8b 51 0c             	mov    0xc(%ecx),%edx
    55a8:	89 50 0c             	mov    %edx,0xc(%eax)
    55ab:	85 f6                	test   %esi,%esi
    55ad:	7e 68                	jle    5617 <subtraction+0xbc>
    55af:	8d 4b 04             	lea    0x4(%ebx),%ecx
    55b2:	8d 56 ff             	lea    -0x1(%esi),%edx
    55b5:	89 c3                	mov    %eax,%ebx
    55b7:	83 e3 01             	and    $0x1,%ebx
    55ba:	89 5d e4             	mov    %ebx,-0x1c(%ebp)
    55bd:	bf 08 00 00 00       	mov    $0x8,%edi
    55c2:	83 7d e4 00          	cmpl   $0x0,-0x1c(%ebp)
    55c6:	75 03                	jne    55cb <subtraction+0x70>
    55c8:	0f bf 38             	movswl (%eax),%edi
    55cb:	8b 19                	mov    (%ecx),%ebx
    55cd:	be 08 00 00 00       	mov    $0x8,%esi
    55d2:	f6 c3 01             	test   $0x1,%bl
    55d5:	75 03                	jne    55da <subtraction+0x7f>
    55d7:	0f bf 33             	movswl (%ebx),%esi
    55da:	39 f7                	cmp    %esi,%edi
    55dc:	75 2d                	jne    560b <subtraction+0xb0>
    55de:	83 7d e4 00          	cmpl   $0x0,-0x1c(%ebp)
    55e2:	75 27                	jne    560b <subtraction+0xb0>
    55e4:	0f b7 30             	movzwl (%eax),%esi
    55e7:	66 83 fe 0a          	cmp    $0xa,%si
    55eb:	74 08                	je     55f5 <subtraction+0x9a>
    55ed:	66 83 fe 0f          	cmp    $0xf,%si
    55f1:	75 18                	jne    560b <subtraction+0xb0>
    55f3:	eb 0d                	jmp    5602 <subtraction+0xa7>
    55f5:	8b 5b 04             	mov    0x4(%ebx),%ebx
    55f8:	29 58 04             	sub    %ebx,0x4(%eax)
    55fb:	90                   	nop
    55fc:	8d 74 26 00          	lea    0x0(%esi,%eiz,1),%esi
    5600:	eb 09                	jmp    560b <subtraction+0xb0>
    5602:	dd 43 04             	fldl   0x4(%ebx)
    5605:	dc 60 04             	fsubl  0x4(%eax)
    5608:	dd 58 04             	fstpl  0x4(%eax)
    560b:	85 d2                	test   %edx,%edx
    560d:	7e 08                	jle    5617 <subtraction+0xbc>
    560f:	83 c1 04             	add    $0x4,%ecx
    5612:	83 ea 01             	sub    $0x1,%edx
    5615:	eb a6                	jmp    55bd <subtraction+0x62>
    5617:	83 c4 2c             	add    $0x2c,%esp
    561a:	5b                   	pop    %ebx
    561b:	5e                   	pop    %esi
    561c:	5f                   	pop    %edi
    561d:	5d                   	pop    %ebp
    561e:	c3                   	ret    

0000561f <addition>:
    561f:	55                   	push   %ebp
    5620:	89 e5                	mov    %esp,%ebp
    5622:	57                   	push   %edi
    5623:	56                   	push   %esi
    5624:	53                   	push   %ebx
    5625:	83 ec 2c             	sub    $0x2c,%esp
    5628:	8b 5d 08             	mov    0x8(%ebp),%ebx
    562b:	c7 04 24 10 00 00 00 	movl   $0x10,(%esp)
    5632:	e8 1d 1b 00 00       	call   7154 <kmalloc>
    5637:	66 c7 00 0a 00       	movw   $0xa,(%eax)
    563c:	c7 40 04 00 00 00 00 	movl   $0x0,0x4(%eax)
    5643:	85 db                	test   %ebx,%ebx
    5645:	7e 66                	jle    56ad <addition+0x8e>
    5647:	89 5d e0             	mov    %ebx,-0x20(%ebp)
    564a:	ba 00 00 00 00       	mov    $0x0,%edx
    564f:	89 c1                	mov    %eax,%ecx
    5651:	83 e1 01             	and    $0x1,%ecx
    5654:	89 4d e4             	mov    %ecx,-0x1c(%ebp)
    5657:	bf 08 00 00 00       	mov    $0x8,%edi
    565c:	89 fe                	mov    %edi,%esi
    565e:	83 7d e4 00          	cmpl   $0x0,-0x1c(%ebp)
    5662:	75 03                	jne    5667 <addition+0x48>
    5664:	0f bf 30             	movswl (%eax),%esi
    5667:	8b 5d 0c             	mov    0xc(%ebp),%ebx
    566a:	8b 0c 93             	mov    (%ebx,%edx,4),%ecx
    566d:	89 fb                	mov    %edi,%ebx
    566f:	f6 c1 01             	test   $0x1,%cl
    5672:	75 03                	jne    5677 <addition+0x58>
    5674:	0f bf 19             	movswl (%ecx),%ebx
    5677:	39 de                	cmp    %ebx,%esi
    5679:	75 2a                	jne    56a5 <addition+0x86>
    567b:	83 7d e4 00          	cmpl   $0x0,-0x1c(%ebp)
    567f:	75 24                	jne    56a5 <addition+0x86>
    5681:	0f b7 18             	movzwl (%eax),%ebx
    5684:	66 83 fb 0a          	cmp    $0xa,%bx
    5688:	74 0a                	je     5694 <addition+0x75>
    568a:	66 83 fb 0f          	cmp    $0xf,%bx
    568e:	66 90                	xchg   %ax,%ax
    5690:	75 13                	jne    56a5 <addition+0x86>
    5692:	eb 08                	jmp    569c <addition+0x7d>
    5694:	8b 49 04             	mov    0x4(%ecx),%ecx
    5697:	01 48 04             	add    %ecx,0x4(%eax)
    569a:	eb 09                	jmp    56a5 <addition+0x86>
    569c:	dd 40 04             	fldl   0x4(%eax)
    569f:	dc 41 04             	faddl  0x4(%ecx)
    56a2:	dd 58 04             	fstpl  0x4(%eax)
    56a5:	83 c2 01             	add    $0x1,%edx
    56a8:	3b 55 e0             	cmp    -0x20(%ebp),%edx
    56ab:	75 af                	jne    565c <addition+0x3d>
    56ad:	83 c4 2c             	add    $0x2c,%esp
    56b0:	5b                   	pop    %ebx
    56b1:	5e                   	pop    %esi
    56b2:	5f                   	pop    %edi
    56b3:	5d                   	pop    %ebp
    56b4:	c3                   	ret    

000056b5 <scheme_make_rational>:
    56b5:	55                   	push   %ebp
    56b6:	89 e5                	mov    %esp,%ebp
    56b8:	83 ec 28             	sub    $0x28,%esp
    56bb:	89 5d f4             	mov    %ebx,-0xc(%ebp)
    56be:	89 75 f8             	mov    %esi,-0x8(%ebp)
    56c1:	89 7d fc             	mov    %edi,-0x4(%ebp)
    56c4:	8b 75 08             	mov    0x8(%ebp),%esi
    56c7:	8b 7d 0c             	mov    0xc(%ebp),%edi
    56ca:	c7 04 24 10 00 00 00 	movl   $0x10,(%esp)
    56d1:	e8 7e 1a 00 00       	call   7154 <kmalloc>
    56d6:	89 c3                	mov    %eax,%ebx
    56d8:	89 7c 24 04          	mov    %edi,0x4(%esp)
    56dc:	89 34 24             	mov    %esi,(%esp)
    56df:	e8 5c fc ff ff       	call   5340 <_gcd>
    56e4:	89 c1                	mov    %eax,%ecx
    56e6:	89 f2                	mov    %esi,%edx
    56e8:	89 f0                	mov    %esi,%eax
    56ea:	c1 fa 1f             	sar    $0x1f,%edx
    56ed:	f7 f9                	idiv   %ecx
    56ef:	89 43 04             	mov    %eax,0x4(%ebx)
    56f2:	89 fa                	mov    %edi,%edx
    56f4:	89 f8                	mov    %edi,%eax
    56f6:	c1 fa 1f             	sar    $0x1f,%edx
    56f9:	f7 f9                	idiv   %ecx
    56fb:	89 43 08             	mov    %eax,0x8(%ebx)
    56fe:	89 d8                	mov    %ebx,%eax
    5700:	8b 5d f4             	mov    -0xc(%ebp),%ebx
    5703:	8b 75 f8             	mov    -0x8(%ebp),%esi
    5706:	8b 7d fc             	mov    -0x4(%ebp),%edi
    5709:	89 ec                	mov    %ebp,%esp
    570b:	5d                   	pop    %ebp
    570c:	c3                   	ret    

0000570d <scheme_make_double_numb>:
    570d:	55                   	push   %ebp
    570e:	89 e5                	mov    %esp,%ebp
    5710:	83 ec 28             	sub    $0x28,%esp
    5713:	dd 45 08             	fldl   0x8(%ebp)
    5716:	dd 5d e8             	fstpl  -0x18(%ebp)
    5719:	c7 04 24 10 00 00 00 	movl   $0x10,(%esp)
    5720:	e8 2f 1a 00 00       	call   7154 <kmalloc>
    5725:	3d 40 ce 12 00       	cmp    $0x12ce40,%eax
    572a:	74 1e                	je     574a <scheme_make_double_numb+0x3d>
    572c:	66 c7 00 0f 00       	movw   $0xf,(%eax)
    5731:	d9 7d f6             	fnstcw -0xa(%ebp)
    5734:	0f b7 55 f6          	movzwl -0xa(%ebp),%edx
    5738:	b6 0c                	mov    $0xc,%dh
    573a:	66 89 55 f4          	mov    %dx,-0xc(%ebp)
    573e:	dd 45 e8             	fldl   -0x18(%ebp)
    5741:	d9 6d f4             	fldcw  -0xc(%ebp)
    5744:	db 58 04             	fistpl 0x4(%eax)
    5747:	d9 6d f6             	fldcw  -0xa(%ebp)
    574a:	c9                   	leave  
    574b:	c3                   	ret    

0000574c <scheme_make_integer_numb>:
    574c:	55                   	push   %ebp
    574d:	89 e5                	mov    %esp,%ebp
    574f:	83 ec 18             	sub    $0x18,%esp
    5752:	c7 04 24 10 00 00 00 	movl   $0x10,(%esp)
    5759:	e8 f6 19 00 00       	call   7154 <kmalloc>
    575e:	3d 40 ce 12 00       	cmp    $0x12ce40,%eax
    5763:	74 0b                	je     5770 <scheme_make_integer_numb+0x24>
    5765:	66 c7 00 0a 00       	movw   $0xa,(%eax)
    576a:	8b 55 08             	mov    0x8(%ebp),%edx
    576d:	89 50 04             	mov    %edx,0x4(%eax)
    5770:	c9                   	leave  
    5771:	c3                   	ret    

00005772 <scheme_init_number>:
    5772:	55                   	push   %ebp
    5773:	89 e5                	mov    %esp,%ebp
    5775:	53                   	push   %ebx
    5776:	83 ec 24             	sub    $0x24,%esp
    5779:	8b 5d 08             	mov    0x8(%ebp),%ebx
    577c:	89 5c 24 10          	mov    %ebx,0x10(%esp)
    5780:	c7 44 24 0c 01 00 00 	movl   $0x1,0xc(%esp)
    5787:	00 
    5788:	c7 44 24 08 01 00 00 	movl   $0x1,0x8(%esp)
    578f:	00 
    5790:	c7 44 24 04 59 53 00 	movl   $0x5359,0x4(%esp)
    5797:	00 
    5798:	c7 04 24 81 7f 00 00 	movl   $0x7f81,(%esp)
    579f:	e8 36 09 00 00       	call   60da <scheme_register_primitive>
    57a4:	89 5c 24 10          	mov    %ebx,0x10(%esp)
    57a8:	c7 44 24 0c 01 00 00 	movl   $0x1,0xc(%esp)
    57af:	00 
    57b0:	c7 44 24 08 01 00 00 	movl   $0x1,0x8(%esp)
    57b7:	00 
    57b8:	c7 44 24 04 80 53 00 	movl   $0x5380,0x4(%esp)
    57bf:	00 
    57c0:	c7 04 24 89 7f 00 00 	movl   $0x7f89,(%esp)
    57c7:	e8 0e 09 00 00       	call   60da <scheme_register_primitive>
    57cc:	89 5c 24 10          	mov    %ebx,0x10(%esp)
    57d0:	c7 44 24 0c 01 00 00 	movl   $0x1,0xc(%esp)
    57d7:	00 
    57d8:	c7 44 24 08 01 00 00 	movl   $0x1,0x8(%esp)
    57df:	00 
    57e0:	c7 44 24 04 9f 53 00 	movl   $0x539f,0x4(%esp)
    57e7:	00 
    57e8:	c7 04 24 8f 7f 00 00 	movl   $0x7f8f,(%esp)
    57ef:	e8 e6 08 00 00       	call   60da <scheme_register_primitive>
    57f4:	89 5c 24 10          	mov    %ebx,0x10(%esp)
    57f8:	c7 44 24 0c 01 00 00 	movl   $0x1,0xc(%esp)
    57ff:	00 
    5800:	c7 44 24 08 01 00 00 	movl   $0x1,0x8(%esp)
    5807:	00 
    5808:	c7 44 24 04 be 53 00 	movl   $0x53be,0x4(%esp)
    580f:	00 
    5810:	c7 04 24 99 7f 00 00 	movl   $0x7f99,(%esp)
    5817:	e8 be 08 00 00       	call   60da <scheme_register_primitive>
    581c:	89 5c 24 10          	mov    %ebx,0x10(%esp)
    5820:	c7 44 24 0c 01 00 00 	movl   $0x1,0xc(%esp)
    5827:	00 
    5828:	c7 44 24 08 01 00 00 	movl   $0x1,0x8(%esp)
    582f:	00 
    5830:	c7 44 24 04 dd 53 00 	movl   $0x53dd,0x4(%esp)
    5837:	00 
    5838:	c7 04 24 a4 7f 00 00 	movl   $0x7fa4,(%esp)
    583f:	e8 96 08 00 00       	call   60da <scheme_register_primitive>
    5844:	89 5c 24 10          	mov    %ebx,0x10(%esp)
    5848:	c7 44 24 0c 01 00 00 	movl   $0x1,0xc(%esp)
    584f:	00 
    5850:	c7 44 24 08 01 00 00 	movl   $0x1,0x8(%esp)
    5857:	00 
    5858:	c7 44 24 04 e7 53 00 	movl   $0x53e7,0x4(%esp)
    585f:	00 
    5860:	c7 04 24 a2 7f 00 00 	movl   $0x7fa2,(%esp)
    5867:	e8 6e 08 00 00       	call   60da <scheme_register_primitive>
    586c:	89 5c 24 10          	mov    %ebx,0x10(%esp)
    5870:	c7 44 24 0c ff ff ff 	movl   $0xffffffff,0xc(%esp)
    5877:	ff 
    5878:	c7 44 24 08 00 00 00 	movl   $0x0,0x8(%esp)
    587f:	00 
    5880:	c7 44 24 04 1f 56 00 	movl   $0x561f,0x4(%esp)
    5887:	00 
    5888:	c7 04 24 ab 7f 00 00 	movl   $0x7fab,(%esp)
    588f:	e8 46 08 00 00       	call   60da <scheme_register_primitive>
    5894:	89 5c 24 10          	mov    %ebx,0x10(%esp)
    5898:	c7 44 24 0c ff ff ff 	movl   $0xffffffff,0xc(%esp)
    589f:	ff 
    58a0:	c7 44 24 08 00 00 00 	movl   $0x0,0x8(%esp)
    58a7:	00 
    58a8:	c7 44 24 04 5b 55 00 	movl   $0x555b,0x4(%esp)
    58af:	00 
    58b0:	c7 04 24 ad 7f 00 00 	movl   $0x7fad,(%esp)
    58b7:	e8 1e 08 00 00       	call   60da <scheme_register_primitive>
    58bc:	89 5c 24 10          	mov    %ebx,0x10(%esp)
    58c0:	c7 44 24 0c ff ff ff 	movl   $0xffffffff,0xc(%esp)
    58c7:	ff 
    58c8:	c7 44 24 08 00 00 00 	movl   $0x0,0x8(%esp)
    58cf:	00 
    58d0:	c7 44 24 04 c1 54 00 	movl   $0x54c1,0x4(%esp)
    58d7:	00 
    58d8:	c7 04 24 ea 80 00 00 	movl   $0x80ea,(%esp)
    58df:	e8 f6 07 00 00       	call   60da <scheme_register_primitive>
    58e4:	89 5c 24 10          	mov    %ebx,0x10(%esp)
    58e8:	c7 44 24 0c ff ff ff 	movl   $0xffffffff,0xc(%esp)
    58ef:	ff 
    58f0:	c7 44 24 08 01 00 00 	movl   $0x1,0x8(%esp)
    58f7:	00 
    58f8:	c7 44 24 04 f1 53 00 	movl   $0x53f1,0x4(%esp)
    58ff:	00 
    5900:	c7 04 24 af 7f 00 00 	movl   $0x7faf,(%esp)
    5907:	e8 ce 07 00 00       	call   60da <scheme_register_primitive>
    590c:	83 c4 24             	add    $0x24,%esp
    590f:	5b                   	pop    %ebx
    5910:	5d                   	pop    %ebp
    5911:	c3                   	ret    
    5912:	90                   	nop
    5913:	90                   	nop
    5914:	90                   	nop
    5915:	90                   	nop
    5916:	90                   	nop
    5917:	90                   	nop
    5918:	90                   	nop
    5919:	90                   	nop
    591a:	90                   	nop
    591b:	90                   	nop
    591c:	90                   	nop
    591d:	90                   	nop
    591e:	90                   	nop
    591f:	90                   	nop

00005920 <eval_stack_empty_p>:
    5920:	55                   	push   %ebp
    5921:	89 e5                	mov    %esp,%ebp
    5923:	a1 c0 ba 11 00       	mov    0x11bac0,%eax
    5928:	3b 05 c4 ba 11 00    	cmp    0x11bac4,%eax
    592e:	0f 94 c0             	sete   %al
    5931:	0f b6 c0             	movzbl %al,%eax
    5934:	5d                   	pop    %ebp
    5935:	c3                   	ret    

00005936 <eval_stack_full_p>:
    5936:	55                   	push   %ebp
    5937:	89 e5                	mov    %esp,%ebp
    5939:	81 3d c4 ba 11 00 c0 	cmpl   $0x1bac0,0x11bac4
    5940:	ba 01 00 
    5943:	0f 94 c0             	sete   %al
    5946:	0f b6 c0             	movzbl %al,%eax
    5949:	5d                   	pop    %ebp
    594a:	c3                   	ret    

0000594b <eval_stack_pop_env>:
    594b:	55                   	push   %ebp
    594c:	89 e5                	mov    %esp,%ebp
    594e:	8b 15 c4 ba 11 00    	mov    0x11bac4,%edx
    5954:	b8 00 00 00 00       	mov    $0x0,%eax
    5959:	39 15 c0 ba 11 00    	cmp    %edx,0x11bac0
    595f:	74 0b                	je     596c <eval_stack_pop_env+0x21>
    5961:	8b 02                	mov    (%edx),%eax
    5963:	83 c2 04             	add    $0x4,%edx
    5966:	89 15 c4 ba 11 00    	mov    %edx,0x11bac4
    596c:	5d                   	pop    %ebp
    596d:	c3                   	ret    

0000596e <eval_stack_push_env>:
    596e:	55                   	push   %ebp
    596f:	89 e5                	mov    %esp,%ebp
    5971:	e8 c0 ff ff ff       	call   5936 <eval_stack_full_p>
    5976:	89 c2                	mov    %eax,%edx
    5978:	b8 ff ff ff ff       	mov    $0xffffffff,%eax
    597d:	85 d2                	test   %edx,%edx
    597f:	75 17                	jne    5998 <eval_stack_push_env+0x2a>
    5981:	a1 c4 ba 11 00       	mov    0x11bac4,%eax
    5986:	83 e8 04             	sub    $0x4,%eax
    5989:	a3 c4 ba 11 00       	mov    %eax,0x11bac4
    598e:	8b 55 08             	mov    0x8(%ebp),%edx
    5991:	89 10                	mov    %edx,(%eax)
    5993:	b8 00 00 00 00       	mov    $0x0,%eax
    5998:	5d                   	pop    %ebp
    5999:	c3                   	ret    

0000599a <gc_alloc_nobj>:
    599a:	55                   	push   %ebp
    599b:	89 e5                	mov    %esp,%ebp
    599d:	5d                   	pop    %ebp
    599e:	c3                   	ret    

0000599f <gc_collect_garbage>:
    599f:	55                   	push   %ebp
    59a0:	89 e5                	mov    %esp,%ebp
    59a2:	5d                   	pop    %ebp
    59a3:	c3                   	ret    

000059a4 <_new_generation>:
    59a4:	55                   	push   %ebp
    59a5:	89 e5                	mov    %esp,%ebp
    59a7:	56                   	push   %esi
    59a8:	53                   	push   %ebx
    59a9:	83 ec 10             	sub    $0x10,%esp
    59ac:	c7 04 24 04 04 00 00 	movl   $0x404,(%esp)
    59b3:	e8 9c 17 00 00       	call   7154 <kmalloc>
    59b8:	89 c6                	mov    %eax,%esi
    59ba:	bb 00 00 00 00       	mov    $0x0,%ebx
    59bf:	85 c0                	test   %eax,%eax
    59c1:	0f 84 a5 00 00 00    	je     5a6c <_new_generation+0xc8>
    59c7:	c7 00 00 00 00 00    	movl   $0x0,(%eax)
    59cd:	8b 1d ac ba 01 00    	mov    0x1baac,%ebx
    59d3:	85 db                	test   %ebx,%ebx
    59d5:	75 14                	jne    59eb <_new_generation+0x47>
    59d7:	c7 04 24 03 00 00 00 	movl   $0x3,(%esp)
    59de:	e8 a2 1e 00 00       	call   7885 <expand_region>
    59e3:	89 c3                	mov    %eax,%ebx
    59e5:	85 c0                	test   %eax,%eax
    59e7:	75 2d                	jne    5a16 <_new_generation+0x72>
    59e9:	eb 21                	jmp    5a0c <_new_generation+0x68>
    59eb:	8b 43 04             	mov    0x4(%ebx),%eax
    59ee:	39 c3                	cmp    %eax,%ebx
    59f0:	75 0c                	jne    59fe <_new_generation+0x5a>
    59f2:	c7 05 ac ba 01 00 00 	movl   $0x0,0x1baac
    59f9:	00 00 00 
    59fc:	eb 18                	jmp    5a16 <_new_generation+0x72>
    59fe:	8b 13                	mov    (%ebx),%edx
    5a00:	89 42 04             	mov    %eax,0x4(%edx)
    5a03:	8b 43 04             	mov    0x4(%ebx),%eax
    5a06:	8b 13                	mov    (%ebx),%edx
    5a08:	89 10                	mov    %edx,(%eax)
    5a0a:	eb 0a                	jmp    5a16 <_new_generation+0x72>
    5a0c:	89 34 24             	mov    %esi,(%esp)
    5a0f:	e8 d7 16 00 00       	call   70eb <kfree>
    5a14:	eb 56                	jmp    5a6c <_new_generation+0xc8>
    5a16:	a1 a0 ba 01 00       	mov    0x1baa0,%eax
    5a1b:	85 c0                	test   %eax,%eax
    5a1d:	75 18                	jne    5a37 <_new_generation+0x93>
    5a1f:	89 1d a4 ba 01 00    	mov    %ebx,0x1baa4
    5a25:	89 1d a8 ba 01 00    	mov    %ebx,0x1baa8
    5a2b:	89 5b 04             	mov    %ebx,0x4(%ebx)
    5a2e:	89 1b                	mov    %ebx,(%ebx)
    5a30:	ba 00 00 00 00       	mov    $0x0,%edx
    5a35:	eb 16                	jmp    5a4d <_new_generation+0xa9>
    5a37:	0f b7 50 08          	movzwl 0x8(%eax),%edx
    5a3b:	83 c2 01             	add    $0x1,%edx
    5a3e:	89 03                	mov    %eax,(%ebx)
    5a40:	89 58 04             	mov    %ebx,0x4(%eax)
    5a43:	a1 a8 ba 01 00       	mov    0x1baa8,%eax
    5a48:	89 18                	mov    %ebx,(%eax)
    5a4a:	89 43 04             	mov    %eax,0x4(%ebx)
    5a4d:	66 89 53 08          	mov    %dx,0x8(%ebx)
    5a51:	66 c7 43 0a 00 00    	movw   $0x0,0xa(%ebx)
    5a57:	66 c7 43 0c 00 10    	movw   $0x1000,0xc(%ebx)
    5a5d:	8d 43 20             	lea    0x20(%ebx),%eax
    5a60:	89 43 14             	mov    %eax,0x14(%ebx)
    5a63:	89 73 10             	mov    %esi,0x10(%ebx)
    5a66:	89 1d a0 ba 01 00    	mov    %ebx,0x1baa0
    5a6c:	89 d8                	mov    %ebx,%eax
    5a6e:	83 c4 10             	add    $0x10,%esp
    5a71:	5b                   	pop    %ebx
    5a72:	5e                   	pop    %esi
    5a73:	5d                   	pop    %ebp
    5a74:	c3                   	ret    

00005a75 <gc_alloc_obj>:
    5a75:	55                   	push   %ebp
    5a76:	89 e5                	mov    %esp,%ebp
    5a78:	83 ec 08             	sub    $0x8,%esp
    5a7b:	a1 a0 ba 01 00       	mov    0x1baa0,%eax
    5a80:	8b 50 14             	mov    0x14(%eax),%edx
    5a83:	29 c2                	sub    %eax,%edx
    5a85:	81 fa 00 10 00 00    	cmp    $0x1000,%edx
    5a8b:	75 05                	jne    5a92 <gc_alloc_obj+0x1d>
    5a8d:	e8 12 ff ff ff       	call   59a4 <_new_generation>
    5a92:	8b 15 a0 ba 01 00    	mov    0x1baa0,%edx
    5a98:	8b 42 14             	mov    0x14(%edx),%eax
    5a9b:	8d 48 10             	lea    0x10(%eax),%ecx
    5a9e:	89 4a 14             	mov    %ecx,0x14(%edx)
    5aa1:	c9                   	leave  
    5aa2:	c3                   	ret    

00005aa3 <scheme_init_gc>:
    5aa3:	55                   	push   %ebp
    5aa4:	89 e5                	mov    %esp,%ebp
    5aa6:	83 ec 08             	sub    $0x8,%esp
    5aa9:	c7 05 a0 ba 01 00 00 	movl   $0x0,0x1baa0
    5ab0:	00 00 00 
    5ab3:	c7 05 a4 ba 01 00 00 	movl   $0x0,0x1baa4
    5aba:	00 00 00 
    5abd:	c7 05 a8 ba 01 00 00 	movl   $0x0,0x1baa8
    5ac4:	00 00 00 
    5ac7:	c7 05 ac ba 01 00 00 	movl   $0x0,0x1baac
    5ace:	00 00 00 
    5ad1:	c7 05 c0 ba 11 00 c0 	movl   $0x11bac0,0x11bac0
    5ad8:	ba 11 00 
    5adb:	c7 05 c4 ba 11 00 c0 	movl   $0x11bac0,0x11bac4
    5ae2:	ba 11 00 
    5ae5:	e8 ba fe ff ff       	call   59a4 <_new_generation>
    5aea:	c9                   	leave  
    5aeb:	c3                   	ret    
    5aec:	90                   	nop
    5aed:	90                   	nop
    5aee:	90                   	nop
    5aef:	90                   	nop

00005af0 <symbol_p>:
    5af0:	55                   	push   %ebp
    5af1:	89 e5                	mov    %esp,%ebp
    5af3:	8b 45 0c             	mov    0xc(%ebp),%eax
    5af6:	8b 10                	mov    (%eax),%edx
    5af8:	f6 c2 01             	test   $0x1,%dl
    5afb:	75 0b                	jne    5b08 <symbol_p+0x18>
    5afd:	b8 94 ce 12 00       	mov    $0x12ce94,%eax
    5b02:	66 83 3a 12          	cmpw   $0x12,(%edx)
    5b06:	74 05                	je     5b0d <symbol_p+0x1d>
    5b08:	b8 80 ce 12 00       	mov    $0x12ce80,%eax
    5b0d:	5d                   	pop    %ebp
    5b0e:	c3                   	ret    

00005b0f <eq_p>:
    5b0f:	55                   	push   %ebp
    5b10:	89 e5                	mov    %esp,%ebp
    5b12:	8b 55 0c             	mov    0xc(%ebp),%edx
    5b15:	8b 0a                	mov    (%edx),%ecx
    5b17:	b8 94 ce 12 00       	mov    $0x12ce94,%eax
    5b1c:	3b 4a 04             	cmp    0x4(%edx),%ecx
    5b1f:	74 05                	je     5b26 <eq_p+0x17>
    5b21:	b8 80 ce 12 00       	mov    $0x12ce80,%eax
    5b26:	5d                   	pop    %ebp
    5b27:	c3                   	ret    

00005b28 <symbol_to_string>:
    5b28:	55                   	push   %ebp
    5b29:	89 e5                	mov    %esp,%ebp
    5b2b:	83 ec 18             	sub    $0x18,%esp
    5b2e:	8b 45 0c             	mov    0xc(%ebp),%eax
    5b31:	8b 00                	mov    (%eax),%eax
    5b33:	8b 40 04             	mov    0x4(%eax),%eax
    5b36:	89 04 24             	mov    %eax,(%esp)
    5b39:	e8 e7 dd ff ff       	call   3925 <scheme_make_string>
    5b3e:	c9                   	leave  
    5b3f:	c3                   	ret    

00005b40 <scheme_make_symbol>:
    5b40:	55                   	push   %ebp
    5b41:	89 e5                	mov    %esp,%ebp
    5b43:	57                   	push   %edi
    5b44:	56                   	push   %esi
    5b45:	53                   	push   %ebx
    5b46:	83 ec 2c             	sub    $0x2c,%esp
    5b49:	8b 5d 08             	mov    0x8(%ebp),%ebx
    5b4c:	0f b6 03             	movzbl (%ebx),%eax
    5b4f:	88 45 df             	mov    %al,-0x21(%ebp)
    5b52:	84 c0                	test   %al,%al
    5b54:	74 33                	je     5b89 <scheme_make_symbol+0x49>
    5b56:	b8 00 00 00 00       	mov    $0x0,%eax
    5b5b:	83 c0 01             	add    $0x1,%eax
    5b5e:	80 3c 03 00          	cmpb   $0x0,(%ebx,%eax,1)
    5b62:	75 f7                	jne    5b5b <scheme_make_symbol+0x1b>
    5b64:	85 c0                	test   %eax,%eax
    5b66:	7e 21                	jle    5b89 <scheme_make_symbol+0x49>
    5b68:	8d 04 03             	lea    (%ebx,%eax,1),%eax
    5b6b:	89 df                	mov    %ebx,%edi
    5b6d:	ba 00 00 00 00       	mov    $0x0,%edx
    5b72:	89 d1                	mov    %edx,%ecx
    5b74:	c1 e1 05             	shl    $0x5,%ecx
    5b77:	0f be 70 ff          	movsbl -0x1(%eax),%esi
    5b7b:	8d 14 56             	lea    (%esi,%edx,2),%edx
    5b7e:	01 ca                	add    %ecx,%edx
    5b80:	83 e8 01             	sub    $0x1,%eax
    5b83:	39 f8                	cmp    %edi,%eax
    5b85:	75 eb                	jne    5b72 <scheme_make_symbol+0x32>
    5b87:	eb 05                	jmp    5b8e <scheme_make_symbol+0x4e>
    5b89:	ba 00 00 00 00       	mov    $0x0,%edx
    5b8e:	8d 0c 92             	lea    (%edx,%edx,4),%ecx
    5b91:	d1 e9                	shr    %ecx
    5b93:	ba 57 85 21 7f       	mov    $0x7f218557,%edx
    5b98:	89 c8                	mov    %ecx,%eax
    5b9a:	f7 e2                	mul    %edx
    5b9c:	c1 ea 09             	shr    $0x9,%edx
    5b9f:	69 c2 07 04 00 00    	imul   $0x407,%edx,%eax
    5ba5:	29 c1                	sub    %eax,%ecx
    5ba7:	89 4d e0             	mov    %ecx,-0x20(%ebp)
    5baa:	8b 3c 8d 20 be 12 00 	mov    0x12be20(,%ecx,4),%edi
    5bb1:	85 ff                	test   %edi,%edi
    5bb3:	74 37                	je     5bec <scheme_make_symbol+0xac>
    5bb5:	89 5d e4             	mov    %ebx,-0x1c(%ebp)
    5bb8:	8b 77 04             	mov    0x4(%edi),%esi
    5bbb:	8b 4d e4             	mov    -0x1c(%ebp),%ecx
    5bbe:	eb 0a                	jmp    5bca <scheme_make_symbol+0x8a>
    5bc0:	38 d0                	cmp    %dl,%al
    5bc2:	75 22                	jne    5be6 <scheme_make_symbol+0xa6>
    5bc4:	83 c6 01             	add    $0x1,%esi
    5bc7:	83 c1 01             	add    $0x1,%ecx
    5bca:	0f b6 06             	movzbl (%esi),%eax
    5bcd:	84 c0                	test   %al,%al
    5bcf:	74 09                	je     5bda <scheme_make_symbol+0x9a>
    5bd1:	0f b6 11             	movzbl (%ecx),%edx
    5bd4:	84 d2                	test   %dl,%dl
    5bd6:	75 e8                	jne    5bc0 <scheme_make_symbol+0x80>
    5bd8:	eb 0c                	jmp    5be6 <scheme_make_symbol+0xa6>
    5bda:	80 39 00             	cmpb   $0x0,(%ecx)
    5bdd:	8d 76 00             	lea    0x0(%esi),%esi
    5be0:	0f 84 80 00 00 00    	je     5c66 <scheme_make_symbol+0x126>
    5be6:	8b 3f                	mov    (%edi),%edi
    5be8:	85 ff                	test   %edi,%edi
    5bea:	75 cc                	jne    5bb8 <scheme_make_symbol+0x78>
    5bec:	b8 00 00 00 00       	mov    $0x0,%eax
    5bf1:	80 7d df 00          	cmpb   $0x0,-0x21(%ebp)
    5bf5:	74 09                	je     5c00 <scheme_make_symbol+0xc0>
    5bf7:	83 c0 01             	add    $0x1,%eax
    5bfa:	80 3c 03 00          	cmpb   $0x0,(%ebx,%eax,1)
    5bfe:	75 f7                	jne    5bf7 <scheme_make_symbol+0xb7>
    5c00:	89 04 24             	mov    %eax,(%esp)
    5c03:	e8 4c 15 00 00       	call   7154 <kmalloc>
    5c08:	89 c6                	mov    %eax,%esi
    5c0a:	ba 00 00 00 00       	mov    $0x0,%edx
    5c0f:	0f b6 0c 13          	movzbl (%ebx,%edx,1),%ecx
    5c13:	88 0c 10             	mov    %cl,(%eax,%edx,1)
    5c16:	83 c2 01             	add    $0x1,%edx
    5c19:	84 c9                	test   %cl,%cl
    5c1b:	75 f2                	jne    5c0f <scheme_make_symbol+0xcf>
    5c1d:	c7 04 24 10 00 00 00 	movl   $0x10,(%esp)
    5c24:	e8 2b 15 00 00       	call   7154 <kmalloc>
    5c29:	89 c3                	mov    %eax,%ebx
    5c2b:	66 c7 00 12 00       	movw   $0x12,(%eax)
    5c30:	89 70 04             	mov    %esi,0x4(%eax)
    5c33:	c7 40 08 00 00 00 00 	movl   $0x0,0x8(%eax)
    5c3a:	c7 04 24 0c 00 00 00 	movl   $0xc,(%esp)
    5c41:	e8 0e 15 00 00       	call   7154 <kmalloc>
    5c46:	89 70 04             	mov    %esi,0x4(%eax)
    5c49:	89 58 08             	mov    %ebx,0x8(%eax)
    5c4c:	ba 20 be 12 00       	mov    $0x12be20,%edx
    5c51:	8b 75 e0             	mov    -0x20(%ebp),%esi
    5c54:	8b 0c b2             	mov    (%edx,%esi,4),%ecx
    5c57:	89 08                	mov    %ecx,(%eax)
    5c59:	89 04 b2             	mov    %eax,(%edx,%esi,4)
    5c5c:	89 d8                	mov    %ebx,%eax
    5c5e:	83 c4 2c             	add    $0x2c,%esp
    5c61:	5b                   	pop    %ebx
    5c62:	5e                   	pop    %esi
    5c63:	5f                   	pop    %edi
    5c64:	5d                   	pop    %ebp
    5c65:	c3                   	ret    
    5c66:	8b 5f 08             	mov    0x8(%edi),%ebx
    5c69:	eb f1                	jmp    5c5c <scheme_make_symbol+0x11c>

00005c6b <string_to_symbol>:
    5c6b:	55                   	push   %ebp
    5c6c:	89 e5                	mov    %esp,%ebp
    5c6e:	83 ec 18             	sub    $0x18,%esp
    5c71:	8b 45 0c             	mov    0xc(%ebp),%eax
    5c74:	8b 00                	mov    (%eax),%eax
    5c76:	8b 40 04             	mov    0x4(%eax),%eax
    5c79:	89 04 24             	mov    %eax,(%esp)
    5c7c:	e8 bf fe ff ff       	call   5b40 <scheme_make_symbol>
    5c81:	c9                   	leave  
    5c82:	c3                   	ret    

00005c83 <scheme_init_symbol>:
    5c83:	55                   	push   %ebp
    5c84:	89 e5                	mov    %esp,%ebp
    5c86:	53                   	push   %ebx
    5c87:	83 ec 24             	sub    $0x24,%esp
    5c8a:	8b 5d 08             	mov    0x8(%ebp),%ebx
    5c8d:	b8 00 00 00 00       	mov    $0x0,%eax
    5c92:	ba 20 be 12 00       	mov    $0x12be20,%edx
    5c97:	c7 04 82 00 00 00 00 	movl   $0x0,(%edx,%eax,4)
    5c9e:	83 c0 01             	add    $0x1,%eax
    5ca1:	3d 07 04 00 00       	cmp    $0x407,%eax
    5ca6:	75 ef                	jne    5c97 <scheme_init_symbol+0x14>
    5ca8:	89 5c 24 10          	mov    %ebx,0x10(%esp)
    5cac:	c7 44 24 0c 01 00 00 	movl   $0x1,0xc(%esp)
    5cb3:	00 
    5cb4:	c7 44 24 08 01 00 00 	movl   $0x1,0x8(%esp)
    5cbb:	00 
    5cbc:	c7 44 24 04 f0 5a 00 	movl   $0x5af0,0x4(%esp)
    5cc3:	00 
    5cc4:	c7 04 24 b1 7f 00 00 	movl   $0x7fb1,(%esp)
    5ccb:	e8 0a 04 00 00       	call   60da <scheme_register_primitive>
    5cd0:	89 5c 24 10          	mov    %ebx,0x10(%esp)
    5cd4:	c7 44 24 0c 02 00 00 	movl   $0x2,0xc(%esp)
    5cdb:	00 
    5cdc:	c7 44 24 08 02 00 00 	movl   $0x2,0x8(%esp)
    5ce3:	00 
    5ce4:	c7 44 24 04 0f 5b 00 	movl   $0x5b0f,0x4(%esp)
    5ceb:	00 
    5cec:	c7 04 24 b9 7f 00 00 	movl   $0x7fb9,(%esp)
    5cf3:	e8 e2 03 00 00       	call   60da <scheme_register_primitive>
    5cf8:	89 5c 24 10          	mov    %ebx,0x10(%esp)
    5cfc:	c7 44 24 0c 01 00 00 	movl   $0x1,0xc(%esp)
    5d03:	00 
    5d04:	c7 44 24 08 01 00 00 	movl   $0x1,0x8(%esp)
    5d0b:	00 
    5d0c:	c7 44 24 04 28 5b 00 	movl   $0x5b28,0x4(%esp)
    5d13:	00 
    5d14:	c7 04 24 bd 7f 00 00 	movl   $0x7fbd,(%esp)
    5d1b:	e8 ba 03 00 00       	call   60da <scheme_register_primitive>
    5d20:	89 5c 24 10          	mov    %ebx,0x10(%esp)
    5d24:	c7 44 24 0c 01 00 00 	movl   $0x1,0xc(%esp)
    5d2b:	00 
    5d2c:	c7 44 24 08 01 00 00 	movl   $0x1,0x8(%esp)
    5d33:	00 
    5d34:	c7 44 24 04 6b 5c 00 	movl   $0x5c6b,0x4(%esp)
    5d3b:	00 
    5d3c:	c7 04 24 cc 7f 00 00 	movl   $0x7fcc,(%esp)
    5d43:	e8 92 03 00 00       	call   60da <scheme_register_primitive>
    5d48:	83 c4 24             	add    $0x24,%esp
    5d4b:	5b                   	pop    %ebx
    5d4c:	5d                   	pop    %ebp
    5d4d:	c3                   	ret    
    5d4e:	90                   	nop
    5d4f:	90                   	nop

00005d50 <scheme_obj_to_string>:
    5d50:	55                   	push   %ebp
    5d51:	89 e5                	mov    %esp,%ebp
    5d53:	56                   	push   %esi
    5d54:	53                   	push   %ebx
    5d55:	83 ec 10             	sub    $0x10,%esp
    5d58:	8b 55 08             	mov    0x8(%ebp),%edx
    5d5b:	8b 45 0c             	mov    0xc(%ebp),%eax
    5d5e:	89 c1                	mov    %eax,%ecx
    5d60:	a8 01                	test   $0x1,%al
    5d62:	74 66                	je     5dca <scheme_obj_to_string+0x7a>
    5d64:	c6 02 23             	movb   $0x23,(%edx)
    5d67:	c6 42 01 5c          	movb   $0x5c,0x1(%edx)
    5d6b:	d1 f9                	sar    %ecx
    5d6d:	80 f9 20             	cmp    $0x20,%cl
    5d70:	75 21                	jne    5d93 <scheme_obj_to_string+0x43>
    5d72:	83 c2 02             	add    $0x2,%edx
    5d75:	b8 db 7f 00 00       	mov    $0x7fdb,%eax
    5d7a:	0f b6 08             	movzbl (%eax),%ecx
    5d7d:	88 0a                	mov    %cl,(%edx)
    5d7f:	83 c2 01             	add    $0x1,%edx
    5d82:	83 c0 01             	add    $0x1,%eax
    5d85:	84 c9                	test   %cl,%cl
    5d87:	75 f1                	jne    5d7a <scheme_obj_to_string+0x2a>
    5d89:	b8 07 00 00 00       	mov    $0x7,%eax
    5d8e:	e9 cc 01 00 00       	jmp    5f5f <scheme_obj_to_string+0x20f>
    5d93:	80 f9 0a             	cmp    $0xa,%cl
    5d96:	75 21                	jne    5db9 <scheme_obj_to_string+0x69>
    5d98:	83 c2 02             	add    $0x2,%edx
    5d9b:	b8 e1 7f 00 00       	mov    $0x7fe1,%eax
    5da0:	0f b6 08             	movzbl (%eax),%ecx
    5da3:	88 0a                	mov    %cl,(%edx)
    5da5:	83 c2 01             	add    $0x1,%edx
    5da8:	83 c0 01             	add    $0x1,%eax
    5dab:	84 c9                	test   %cl,%cl
    5dad:	75 f1                	jne    5da0 <scheme_obj_to_string+0x50>
    5daf:	b8 09 00 00 00       	mov    $0x9,%eax
    5db4:	e9 a6 01 00 00       	jmp    5f5f <scheme_obj_to_string+0x20f>
    5db9:	88 4a 02             	mov    %cl,0x2(%edx)
    5dbc:	c6 42 03 00          	movb   $0x0,0x3(%edx)
    5dc0:	b8 03 00 00 00       	mov    $0x3,%eax
    5dc5:	e9 95 01 00 00       	jmp    5f5f <scheme_obj_to_string+0x20f>
    5dca:	66 83 38 19          	cmpw   $0x19,(%eax)
    5dce:	0f 87 7f 01 00 00    	ja     5f53 <scheme_obj_to_string+0x203>
    5dd4:	0f b7 08             	movzwl (%eax),%ecx
    5dd7:	ff 24 8d c0 7b 00 00 	jmp    *0x7bc0(,%ecx,4)
    5dde:	89 44 24 08          	mov    %eax,0x8(%esp)
    5de2:	c7 44 24 04 e9 7f 00 	movl   $0x7fe9,0x4(%esp)
    5de9:	00 
    5dea:	89 14 24             	mov    %edx,(%esp)
    5ded:	e8 31 17 00 00       	call   7523 <sprintf>
    5df2:	e9 68 01 00 00       	jmp    5f5f <scheme_obj_to_string+0x20f>
    5df7:	8b 40 04             	mov    0x4(%eax),%eax
    5dfa:	89 44 24 08          	mov    %eax,0x8(%esp)
    5dfe:	c7 44 24 04 fd 7f 00 	movl   $0x7ffd,0x4(%esp)
    5e05:	00 
    5e06:	89 14 24             	mov    %edx,(%esp)
    5e09:	e8 15 17 00 00       	call   7523 <sprintf>
    5e0e:	e9 4c 01 00 00       	jmp    5f5f <scheme_obj_to_string+0x20f>
    5e13:	8b 40 08             	mov    0x8(%eax),%eax
    5e16:	89 44 24 08          	mov    %eax,0x8(%esp)
    5e1a:	c7 44 24 04 0d 80 00 	movl   $0x800d,0x4(%esp)
    5e21:	00 
    5e22:	89 14 24             	mov    %edx,(%esp)
    5e25:	e8 f9 16 00 00       	call   7523 <sprintf>
    5e2a:	e9 30 01 00 00       	jmp    5f5f <scheme_obj_to_string+0x20f>
    5e2f:	8b 40 04             	mov    0x4(%eax),%eax
    5e32:	89 44 24 08          	mov    %eax,0x8(%esp)
    5e36:	c7 44 24 04 1f 80 00 	movl   $0x801f,0x4(%esp)
    5e3d:	00 
    5e3e:	89 14 24             	mov    %edx,(%esp)
    5e41:	e8 dd 16 00 00       	call   7523 <sprintf>
    5e46:	e9 14 01 00 00       	jmp    5f5f <scheme_obj_to_string+0x20f>
    5e4b:	c6 02 22             	movb   $0x22,(%edx)
    5e4e:	8d 5a 01             	lea    0x1(%edx),%ebx
    5e51:	8b 70 04             	mov    0x4(%eax),%esi
    5e54:	b8 00 00 00 00       	mov    $0x0,%eax
    5e59:	0f b6 0c 06          	movzbl (%esi,%eax,1),%ecx
    5e5d:	88 4c 02 01          	mov    %cl,0x1(%edx,%eax,1)
    5e61:	83 c0 01             	add    $0x1,%eax
    5e64:	84 c9                	test   %cl,%cl
    5e66:	75 f1                	jne    5e59 <scheme_obj_to_string+0x109>
    5e68:	b8 00 00 00 00       	mov    $0x0,%eax
    5e6d:	80 3b 00             	cmpb   $0x0,(%ebx)
    5e70:	74 0a                	je     5e7c <scheme_obj_to_string+0x12c>
    5e72:	83 c0 01             	add    $0x1,%eax
    5e75:	80 7c 02 01 00       	cmpb   $0x0,0x1(%edx,%eax,1)
    5e7a:	75 f6                	jne    5e72 <scheme_obj_to_string+0x122>
    5e7c:	01 c3                	add    %eax,%ebx
    5e7e:	c6 03 22             	movb   $0x22,(%ebx)
    5e81:	c6 43 01 00          	movb   $0x0,0x1(%ebx)
    5e85:	83 c0 02             	add    $0x2,%eax
    5e88:	e9 d2 00 00 00       	jmp    5f5f <scheme_obj_to_string+0x20f>
    5e8d:	8b 58 04             	mov    0x4(%eax),%ebx
    5e90:	b8 00 00 00 00       	mov    $0x0,%eax
    5e95:	0f b6 0c 03          	movzbl (%ebx,%eax,1),%ecx
    5e99:	88 0c 02             	mov    %cl,(%edx,%eax,1)
    5e9c:	83 c0 01             	add    $0x1,%eax
    5e9f:	84 c9                	test   %cl,%cl
    5ea1:	75 f2                	jne    5e95 <scheme_obj_to_string+0x145>
    5ea3:	80 3a 00             	cmpb   $0x0,(%edx)
    5ea6:	0f 84 a7 00 00 00    	je     5f53 <scheme_obj_to_string+0x203>
    5eac:	b8 00 00 00 00       	mov    $0x0,%eax
    5eb1:	83 c0 01             	add    $0x1,%eax
    5eb4:	80 3c 02 00          	cmpb   $0x0,(%edx,%eax,1)
    5eb8:	75 f7                	jne    5eb1 <scheme_obj_to_string+0x161>
    5eba:	e9 a0 00 00 00       	jmp    5f5f <scheme_obj_to_string+0x20f>
    5ebf:	b8 22 80 00 00       	mov    $0x8022,%eax
    5ec4:	0f b6 08             	movzbl (%eax),%ecx
    5ec7:	88 0a                	mov    %cl,(%edx)
    5ec9:	83 c2 01             	add    $0x1,%edx
    5ecc:	83 c0 01             	add    $0x1,%eax
    5ecf:	84 c9                	test   %cl,%cl
    5ed1:	75 f1                	jne    5ec4 <scheme_obj_to_string+0x174>
    5ed3:	e9 82 00 00 00       	jmp    5f5a <scheme_obj_to_string+0x20a>
    5ed8:	89 44 24 04          	mov    %eax,0x4(%esp)
    5edc:	89 14 24             	mov    %edx,(%esp)
    5edf:	e8 cc e2 ff ff       	call   41b0 <scheme_list_to_string>
    5ee4:	eb 79                	jmp    5f5f <scheme_obj_to_string+0x20f>
    5ee6:	89 44 24 04          	mov    %eax,0x4(%esp)
    5eea:	89 14 24             	mov    %edx,(%esp)
    5eed:	e8 23 e5 ff ff       	call   4415 <scheme_vector_to_string>
    5ef2:	eb 6b                	jmp    5f5f <scheme_obj_to_string+0x20f>
    5ef4:	b8 25 80 00 00       	mov    $0x8025,%eax
    5ef9:	0f b6 08             	movzbl (%eax),%ecx
    5efc:	88 0a                	mov    %cl,(%edx)
    5efe:	83 c2 01             	add    $0x1,%edx
    5f01:	83 c0 01             	add    $0x1,%eax
    5f04:	84 c9                	test   %cl,%cl
    5f06:	75 f1                	jne    5ef9 <scheme_obj_to_string+0x1a9>
    5f08:	eb 49                	jmp    5f53 <scheme_obj_to_string+0x203>
    5f0a:	b8 2f 80 00 00       	mov    $0x802f,%eax
    5f0f:	0f b6 08             	movzbl (%eax),%ecx
    5f12:	88 0a                	mov    %cl,(%edx)
    5f14:	83 c2 01             	add    $0x1,%edx
    5f17:	83 c0 01             	add    $0x1,%eax
    5f1a:	84 c9                	test   %cl,%cl
    5f1c:	75 f1                	jne    5f0f <scheme_obj_to_string+0x1bf>
    5f1e:	eb 33                	jmp    5f53 <scheme_obj_to_string+0x203>
    5f20:	3d 80 ce 12 00       	cmp    $0x12ce80,%eax
    5f25:	74 16                	je     5f3d <scheme_obj_to_string+0x1ed>
    5f27:	b8 39 80 00 00       	mov    $0x8039,%eax
    5f2c:	0f b6 08             	movzbl (%eax),%ecx
    5f2f:	88 0a                	mov    %cl,(%edx)
    5f31:	83 c2 01             	add    $0x1,%edx
    5f34:	83 c0 01             	add    $0x1,%eax
    5f37:	84 c9                	test   %cl,%cl
    5f39:	75 f1                	jne    5f2c <scheme_obj_to_string+0x1dc>
    5f3b:	eb 1d                	jmp    5f5a <scheme_obj_to_string+0x20a>
    5f3d:	b8 3c 80 00 00       	mov    $0x803c,%eax
    5f42:	0f b6 08             	movzbl (%eax),%ecx
    5f45:	88 0a                	mov    %cl,(%edx)
    5f47:	83 c2 01             	add    $0x1,%edx
    5f4a:	83 c0 01             	add    $0x1,%eax
    5f4d:	84 c9                	test   %cl,%cl
    5f4f:	75 f1                	jne    5f42 <scheme_obj_to_string+0x1f2>
    5f51:	eb 07                	jmp    5f5a <scheme_obj_to_string+0x20a>
    5f53:	b8 00 00 00 00       	mov    $0x0,%eax
    5f58:	eb 05                	jmp    5f5f <scheme_obj_to_string+0x20f>
    5f5a:	b8 02 00 00 00       	mov    $0x2,%eax
    5f5f:	83 c4 10             	add    $0x10,%esp
    5f62:	5b                   	pop    %ebx
    5f63:	5e                   	pop    %esi
    5f64:	5d                   	pop    %ebp
    5f65:	c3                   	ret    
    5f66:	90                   	nop
    5f67:	90                   	nop
    5f68:	90                   	nop
    5f69:	90                   	nop
    5f6a:	90                   	nop
    5f6b:	90                   	nop
    5f6c:	90                   	nop
    5f6d:	90                   	nop
    5f6e:	90                   	nop
    5f6f:	90                   	nop

00005f70 <scheme_lookup_var>:
    5f70:	55                   	push   %ebp
    5f71:	89 e5                	mov    %esp,%ebp
    5f73:	57                   	push   %edi
    5f74:	56                   	push   %esi
    5f75:	53                   	push   %ebx
    5f76:	8b 5d 08             	mov    0x8(%ebp),%ebx
    5f79:	8b 75 0c             	mov    0xc(%ebp),%esi
    5f7c:	81 fe 50 ce 12 00    	cmp    $0x12ce50,%esi
    5f82:	74 38                	je     5fbc <scheme_lookup_var+0x4c>
    5f84:	bf 00 00 00 00       	mov    $0x0,%edi
    5f89:	8b 56 08             	mov    0x8(%esi),%edx
    5f8c:	8b 42 04             	mov    0x4(%edx),%eax
    5f8f:	0f bf 0a             	movswl (%edx),%ecx
    5f92:	85 c9                	test   %ecx,%ecx
    5f94:	7e 1b                	jle    5fb1 <scheme_lookup_var+0x41>
    5f96:	39 18                	cmp    %ebx,(%eax)
    5f98:	75 0e                	jne    5fa8 <scheme_lookup_var+0x38>
    5f9a:	eb 07                	jmp    5fa3 <scheme_lookup_var+0x33>
    5f9c:	83 c0 08             	add    $0x8,%eax
    5f9f:	39 18                	cmp    %ebx,(%eax)
    5fa1:	75 07                	jne    5faa <scheme_lookup_var+0x3a>
    5fa3:	8b 40 04             	mov    0x4(%eax),%eax
    5fa6:	eb 19                	jmp    5fc1 <scheme_lookup_var+0x51>
    5fa8:	89 fa                	mov    %edi,%edx
    5faa:	83 c2 01             	add    $0x1,%edx
    5fad:	39 ca                	cmp    %ecx,%edx
    5faf:	7c eb                	jl     5f9c <scheme_lookup_var+0x2c>
    5fb1:	8b 76 0c             	mov    0xc(%esi),%esi
    5fb4:	81 fe 50 ce 12 00    	cmp    $0x12ce50,%esi
    5fba:	75 cd                	jne    5f89 <scheme_lookup_var+0x19>
    5fbc:	b8 40 ce 12 00       	mov    $0x12ce40,%eax
    5fc1:	5b                   	pop    %ebx
    5fc2:	5e                   	pop    %esi
    5fc3:	5f                   	pop    %edi
    5fc4:	5d                   	pop    %ebp
    5fc5:	c3                   	ret    

00005fc6 <scheme_set_var>:
    5fc6:	55                   	push   %ebp
    5fc7:	89 e5                	mov    %esp,%ebp
    5fc9:	53                   	push   %ebx
    5fca:	8b 5d 08             	mov    0x8(%ebp),%ebx
    5fcd:	8b 45 10             	mov    0x10(%ebp),%eax
    5fd0:	8b 40 08             	mov    0x8(%eax),%eax
    5fd3:	8b 50 04             	mov    0x4(%eax),%edx
    5fd6:	0f bf 08             	movswl (%eax),%ecx
    5fd9:	85 c9                	test   %ecx,%ecx
    5fdb:	7e 27                	jle    6004 <scheme_set_var+0x3e>
    5fdd:	b8 00 00 00 00       	mov    $0x0,%eax
    5fe2:	39 1a                	cmp    %ebx,(%edx)
    5fe4:	75 17                	jne    5ffd <scheme_set_var+0x37>
    5fe6:	eb 0a                	jmp    5ff2 <scheme_set_var+0x2c>
    5fe8:	83 c2 08             	add    $0x8,%edx
    5feb:	39 1a                	cmp    %ebx,(%edx)
    5fed:	8d 76 00             	lea    0x0(%esi),%esi
    5ff0:	75 0b                	jne    5ffd <scheme_set_var+0x37>
    5ff2:	8b 42 04             	mov    0x4(%edx),%eax
    5ff5:	8b 4d 0c             	mov    0xc(%ebp),%ecx
    5ff8:	89 4a 04             	mov    %ecx,0x4(%edx)
    5ffb:	eb 0c                	jmp    6009 <scheme_set_var+0x43>
    5ffd:	83 c0 01             	add    $0x1,%eax
    6000:	39 c8                	cmp    %ecx,%eax
    6002:	7c e4                	jl     5fe8 <scheme_set_var+0x22>
    6004:	b8 40 ce 12 00       	mov    $0x12ce40,%eax
    6009:	5b                   	pop    %ebx
    600a:	5d                   	pop    %ebp
    600b:	c3                   	ret    

0000600c <scheme_report_environment>:
    600c:	55                   	push   %ebp
    600d:	89 e5                	mov    %esp,%ebp
    600f:	b8 70 ce 12 00       	mov    $0x12ce70,%eax
    6014:	5d                   	pop    %ebp
    6015:	c3                   	ret    

00006016 <null_environment>:
    6016:	55                   	push   %ebp
    6017:	89 e5                	mov    %esp,%ebp
    6019:	b8 50 ce 12 00       	mov    $0x12ce50,%eax
    601e:	5d                   	pop    %ebp
    601f:	c3                   	ret    

00006020 <interaction_environment>:
    6020:	55                   	push   %ebp
    6021:	89 e5                	mov    %esp,%ebp
    6023:	b8 70 ce 12 00       	mov    $0x12ce70,%eax
    6028:	5d                   	pop    %ebp
    6029:	c3                   	ret    

0000602a <scheme_define_var>:
    602a:	55                   	push   %ebp
    602b:	89 e5                	mov    %esp,%ebp
    602d:	57                   	push   %edi
    602e:	56                   	push   %esi
    602f:	53                   	push   %ebx
    6030:	83 ec 2c             	sub    $0x2c,%esp
    6033:	8b 5d 08             	mov    0x8(%ebp),%ebx
    6036:	8b 45 10             	mov    0x10(%ebp),%eax
    6039:	8b 40 08             	mov    0x8(%eax),%eax
    603c:	89 45 e4             	mov    %eax,-0x1c(%ebp)
    603f:	89 c2                	mov    %eax,%edx
    6041:	8b 40 04             	mov    0x4(%eax),%eax
    6044:	0f bf 0a             	movswl (%edx),%ecx
    6047:	ba 00 00 00 00       	mov    $0x0,%edx
    604c:	85 c9                	test   %ecx,%ecx
    604e:	7e 1c                	jle    606c <scheme_define_var+0x42>
    6050:	39 18                	cmp    %ebx,(%eax)
    6052:	75 0e                	jne    6062 <scheme_define_var+0x38>
    6054:	eb 04                	jmp    605a <scheme_define_var+0x30>
    6056:	39 18                	cmp    %ebx,(%eax)
    6058:	75 08                	jne    6062 <scheme_define_var+0x38>
    605a:	8b 4d 0c             	mov    0xc(%ebp),%ecx
    605d:	89 48 04             	mov    %ecx,0x4(%eax)
    6060:	eb 6e                	jmp    60d0 <scheme_define_var+0xa6>
    6062:	83 c0 08             	add    $0x8,%eax
    6065:	83 c2 01             	add    $0x1,%edx
    6068:	39 ca                	cmp    %ecx,%edx
    606a:	7c ea                	jl     6056 <scheme_define_var+0x2c>
    606c:	8b 75 e4             	mov    -0x1c(%ebp),%esi
    606f:	0f b7 4e 02          	movzwl 0x2(%esi),%ecx
    6073:	0f bf f1             	movswl %cx,%esi
    6076:	39 d6                	cmp    %edx,%esi
    6078:	75 47                	jne    60c1 <scheme_define_var+0x97>
    607a:	83 c1 20             	add    $0x20,%ecx
    607d:	8b 45 e4             	mov    -0x1c(%ebp),%eax
    6080:	66 89 48 02          	mov    %cx,0x2(%eax)
    6084:	0f bf c1             	movswl %cx,%eax
    6087:	c1 e0 03             	shl    $0x3,%eax
    608a:	89 04 24             	mov    %eax,(%esp)
    608d:	e8 c2 10 00 00       	call   7154 <kmalloc>
    6092:	89 c7                	mov    %eax,%edi
    6094:	c1 e6 03             	shl    $0x3,%esi
    6097:	89 75 e0             	mov    %esi,-0x20(%ebp)
    609a:	8b 55 e4             	mov    -0x1c(%ebp),%edx
    609d:	8b 72 04             	mov    0x4(%edx),%esi
    60a0:	8b 4d e0             	mov    -0x20(%ebp),%ecx
    60a3:	56                   	push   %esi
    60a4:	57                   	push   %edi
    60a5:	fc                   	cld    
    60a6:	f3 a4                	rep movsb %ds:(%esi),%es:(%edi)
    60a8:	5f                   	pop    %edi
    60a9:	5e                   	pop    %esi
    60aa:	8b 42 04             	mov    0x4(%edx),%eax
    60ad:	89 04 24             	mov    %eax,(%esp)
    60b0:	e8 36 10 00 00       	call   70eb <kfree>
    60b5:	8b 75 e4             	mov    -0x1c(%ebp),%esi
    60b8:	89 7e 04             	mov    %edi,0x4(%esi)
    60bb:	8b 55 e0             	mov    -0x20(%ebp),%edx
    60be:	8d 04 17             	lea    (%edi,%edx,1),%eax
    60c1:	8b 4d e4             	mov    -0x1c(%ebp),%ecx
    60c4:	66 83 01 01          	addw   $0x1,(%ecx)
    60c8:	89 18                	mov    %ebx,(%eax)
    60ca:	8b 75 0c             	mov    0xc(%ebp),%esi
    60cd:	89 70 04             	mov    %esi,0x4(%eax)
    60d0:	89 d8                	mov    %ebx,%eax
    60d2:	83 c4 2c             	add    $0x2c,%esp
    60d5:	5b                   	pop    %ebx
    60d6:	5e                   	pop    %esi
    60d7:	5f                   	pop    %edi
    60d8:	5d                   	pop    %ebp
    60d9:	c3                   	ret    

000060da <scheme_register_primitive>:
    60da:	55                   	push   %ebp
    60db:	89 e5                	mov    %esp,%ebp
    60dd:	53                   	push   %ebx
    60de:	83 ec 14             	sub    $0x14,%esp
    60e1:	8b 45 14             	mov    0x14(%ebp),%eax
    60e4:	89 44 24 08          	mov    %eax,0x8(%esp)
    60e8:	8b 45 10             	mov    0x10(%ebp),%eax
    60eb:	89 44 24 04          	mov    %eax,0x4(%esp)
    60ef:	8b 45 0c             	mov    0xc(%ebp),%eax
    60f2:	89 04 24             	mov    %eax,(%esp)
    60f5:	e8 45 03 00 00       	call   643f <scheme_make_prim_proc>
    60fa:	89 c3                	mov    %eax,%ebx
    60fc:	8b 45 08             	mov    0x8(%ebp),%eax
    60ff:	89 04 24             	mov    %eax,(%esp)
    6102:	e8 39 fa ff ff       	call   5b40 <scheme_make_symbol>
    6107:	8b 55 18             	mov    0x18(%ebp),%edx
    610a:	89 54 24 08          	mov    %edx,0x8(%esp)
    610e:	89 5c 24 04          	mov    %ebx,0x4(%esp)
    6112:	89 04 24             	mov    %eax,(%esp)
    6115:	e8 10 ff ff ff       	call   602a <scheme_define_var>
    611a:	83 c4 14             	add    $0x14,%esp
    611d:	5b                   	pop    %ebx
    611e:	5d                   	pop    %ebp
    611f:	c3                   	ret    

00006120 <scheme_register_prims>:
    6120:	55                   	push   %ebp
    6121:	89 e5                	mov    %esp,%ebp
    6123:	56                   	push   %esi
    6124:	53                   	push   %ebx
    6125:	83 ec 10             	sub    $0x10,%esp
    6128:	8b 5d 08             	mov    0x8(%ebp),%ebx
    612b:	8b 43 04             	mov    0x4(%ebx),%eax
    612e:	85 c0                	test   %eax,%eax
    6130:	74 40                	je     6172 <scheme_register_prims+0x52>
    6132:	8b 53 0c             	mov    0xc(%ebx),%edx
    6135:	89 54 24 08          	mov    %edx,0x8(%esp)
    6139:	8b 53 08             	mov    0x8(%ebx),%edx
    613c:	89 54 24 04          	mov    %edx,0x4(%esp)
    6140:	89 04 24             	mov    %eax,(%esp)
    6143:	e8 f7 02 00 00       	call   643f <scheme_make_prim_proc>
    6148:	89 c6                	mov    %eax,%esi
    614a:	8b 03                	mov    (%ebx),%eax
    614c:	89 04 24             	mov    %eax,(%esp)
    614f:	e8 ec f9 ff ff       	call   5b40 <scheme_make_symbol>
    6154:	c7 44 24 08 70 ce 12 	movl   $0x12ce70,0x8(%esp)
    615b:	00 
    615c:	89 74 24 04          	mov    %esi,0x4(%esp)
    6160:	89 04 24             	mov    %eax,(%esp)
    6163:	e8 c2 fe ff ff       	call   602a <scheme_define_var>
    6168:	83 c3 10             	add    $0x10,%ebx
    616b:	8b 43 04             	mov    0x4(%ebx),%eax
    616e:	85 c0                	test   %eax,%eax
    6170:	75 c0                	jne    6132 <scheme_register_prims+0x12>
    6172:	83 c4 10             	add    $0x10,%esp
    6175:	5b                   	pop    %ebx
    6176:	5e                   	pop    %esi
    6177:	5d                   	pop    %ebp
    6178:	c3                   	ret    

00006179 <scheme_extend_env>:
    6179:	55                   	push   %ebp
    617a:	89 e5                	mov    %esp,%ebp
    617c:	57                   	push   %edi
    617d:	56                   	push   %esi
    617e:	53                   	push   %ebx
    617f:	83 ec 2c             	sub    $0x2c,%esp
    6182:	8b 5d 08             	mov    0x8(%ebp),%ebx
    6185:	8b 75 0c             	mov    0xc(%ebp),%esi
    6188:	89 d8                	mov    %ebx,%eax
    618a:	c7 45 e4 00 00 00 00 	movl   $0x0,-0x1c(%ebp)
    6191:	ba 00 00 00 00       	mov    $0x0,%edx
    6196:	eb 06                	jmp    619e <scheme_extend_env+0x25>
    6198:	8b 40 08             	mov    0x8(%eax),%eax
    619b:	83 c2 01             	add    $0x1,%edx
    619e:	a8 01                	test   $0x1,%al
    61a0:	75 17                	jne    61b9 <scheme_extend_env+0x40>
    61a2:	66 83 38 14          	cmpw   $0x14,(%eax)
    61a6:	74 f0                	je     6198 <scheme_extend_env+0x1f>
    61a8:	89 55 e4             	mov    %edx,-0x1c(%ebp)
    61ab:	66 83 38 12          	cmpw   $0x12,(%eax)
    61af:	75 0b                	jne    61bc <scheme_extend_env+0x43>
    61b1:	83 c2 01             	add    $0x1,%edx
    61b4:	89 55 e4             	mov    %edx,-0x1c(%ebp)
    61b7:	eb 03                	jmp    61bc <scheme_extend_env+0x43>
    61b9:	89 55 e4             	mov    %edx,-0x1c(%ebp)
    61bc:	8b 55 e4             	mov    -0x1c(%ebp),%edx
    61bf:	83 c2 1f             	add    $0x1f,%edx
    61c2:	89 d0                	mov    %edx,%eax
    61c4:	c1 f8 1f             	sar    $0x1f,%eax
    61c7:	c1 e8 1b             	shr    $0x1b,%eax
    61ca:	01 d0                	add    %edx,%eax
    61cc:	c1 f8 05             	sar    $0x5,%eax
    61cf:	89 c2                	mov    %eax,%edx
    61d1:	c1 e2 05             	shl    $0x5,%edx
    61d4:	89 55 dc             	mov    %edx,-0x24(%ebp)
    61d7:	c1 e0 08             	shl    $0x8,%eax
    61da:	89 04 24             	mov    %eax,(%esp)
    61dd:	e8 72 0f 00 00       	call   7154 <kmalloc>
    61e2:	89 c7                	mov    %eax,%edi
    61e4:	c7 04 24 08 00 00 00 	movl   $0x8,(%esp)
    61eb:	e8 64 0f 00 00       	call   7154 <kmalloc>
    61f0:	89 45 e0             	mov    %eax,-0x20(%ebp)
    61f3:	c7 04 24 10 00 00 00 	movl   $0x10,(%esp)
    61fa:	e8 55 0f 00 00       	call   7154 <kmalloc>
    61ff:	85 ff                	test   %edi,%edi
    6201:	74 06                	je     6209 <scheme_extend_env+0x90>
    6203:	83 7d e0 00          	cmpl   $0x0,-0x20(%ebp)
    6207:	75 1e                	jne    6227 <scheme_extend_env+0xae>
    6209:	89 3c 24             	mov    %edi,(%esp)
    620c:	8d 74 26 00          	lea    0x0(%esi,%eiz,1),%esi
    6210:	e8 d6 0e 00 00       	call   70eb <kfree>
    6215:	8b 4d e0             	mov    -0x20(%ebp),%ecx
    6218:	89 0c 24             	mov    %ecx,(%esp)
    621b:	e8 cb 0e 00 00       	call   70eb <kfree>
    6220:	b8 40 ce 12 00       	mov    $0x12ce40,%eax
    6225:	eb 59                	jmp    6280 <scheme_extend_env+0x107>
    6227:	0f b7 4d dc          	movzwl -0x24(%ebp),%ecx
    622b:	8b 55 e0             	mov    -0x20(%ebp),%edx
    622e:	66 89 4a 02          	mov    %cx,0x2(%edx)
    6232:	0f b7 4d e4          	movzwl -0x1c(%ebp),%ecx
    6236:	66 89 0a             	mov    %cx,(%edx)
    6239:	89 7a 04             	mov    %edi,0x4(%edx)
    623c:	eb 14                	jmp    6252 <scheme_extend_env+0xd9>
    623e:	8b 53 04             	mov    0x4(%ebx),%edx
    6241:	89 17                	mov    %edx,(%edi)
    6243:	8b 56 04             	mov    0x4(%esi),%edx
    6246:	89 57 04             	mov    %edx,0x4(%edi)
    6249:	8b 5b 08             	mov    0x8(%ebx),%ebx
    624c:	8b 76 08             	mov    0x8(%esi),%esi
    624f:	83 c7 08             	add    $0x8,%edi
    6252:	f6 c3 01             	test   $0x1,%bl
    6255:	75 11                	jne    6268 <scheme_extend_env+0xef>
    6257:	66 83 3b 14          	cmpw   $0x14,(%ebx)
    625b:	74 e1                	je     623e <scheme_extend_env+0xc5>
    625d:	66 83 3b 12          	cmpw   $0x12,(%ebx)
    6261:	75 05                	jne    6268 <scheme_extend_env+0xef>
    6263:	89 1f                	mov    %ebx,(%edi)
    6265:	89 77 04             	mov    %esi,0x4(%edi)
    6268:	66 c7 00 00 00       	movw   $0x0,(%eax)
    626d:	c7 40 04 50 ce 12 00 	movl   $0x12ce50,0x4(%eax)
    6274:	8b 55 10             	mov    0x10(%ebp),%edx
    6277:	89 50 0c             	mov    %edx,0xc(%eax)
    627a:	8b 55 e0             	mov    -0x20(%ebp),%edx
    627d:	89 50 08             	mov    %edx,0x8(%eax)
    6280:	83 c4 2c             	add    $0x2c,%esp
    6283:	5b                   	pop    %ebx
    6284:	5e                   	pop    %esi
    6285:	5f                   	pop    %edi
    6286:	5d                   	pop    %ebp
    6287:	c3                   	ret    

00006288 <scheme_init_env>:
    6288:	55                   	push   %ebp
    6289:	89 e5                	mov    %esp,%ebp
    628b:	56                   	push   %esi
    628c:	53                   	push   %ebx
    628d:	83 ec 20             	sub    $0x20,%esp
    6290:	c7 04 24 00 04 00 00 	movl   $0x400,(%esp)
    6297:	e8 b8 0e 00 00       	call   7154 <kmalloc>
    629c:	89 c6                	mov    %eax,%esi
    629e:	c7 04 24 08 00 00 00 	movl   $0x8,(%esp)
    62a5:	e8 aa 0e 00 00       	call   7154 <kmalloc>
    62aa:	89 c3                	mov    %eax,%ebx
    62ac:	85 f6                	test   %esi,%esi
    62ae:	74 04                	je     62b4 <scheme_init_env+0x2c>
    62b0:	85 c0                	test   %eax,%eax
    62b2:	75 15                	jne    62c9 <scheme_init_env+0x41>
    62b4:	89 34 24             	mov    %esi,(%esp)
    62b7:	e8 2f 0e 00 00       	call   70eb <kfree>
    62bc:	89 1c 24             	mov    %ebx,(%esp)
    62bf:	e8 27 0e 00 00       	call   70eb <kfree>
    62c4:	e9 aa 00 00 00       	jmp    6373 <scheme_init_env+0xeb>
    62c9:	66 c7 00 00 00       	movw   $0x0,(%eax)
    62ce:	66 c7 40 02 80 00    	movw   $0x80,0x2(%eax)
    62d4:	89 70 04             	mov    %esi,0x4(%eax)
    62d7:	66 c7 05 70 ce 12 00 	movw   $0x0,0x12ce70
    62de:	00 00 
    62e0:	a3 78 ce 12 00       	mov    %eax,0x12ce78
    62e5:	c7 05 7c ce 12 00 50 	movl   $0x12ce50,0x12ce7c
    62ec:	ce 12 00 
    62ef:	c7 44 24 10 70 ce 12 	movl   $0x12ce70,0x10(%esp)
    62f6:	00 
    62f7:	c7 44 24 0c 01 00 00 	movl   $0x1,0xc(%esp)
    62fe:	00 
    62ff:	c7 44 24 08 01 00 00 	movl   $0x1,0x8(%esp)
    6306:	00 
    6307:	c7 44 24 04 0c 60 00 	movl   $0x600c,0x4(%esp)
    630e:	00 
    630f:	c7 04 24 3f 80 00 00 	movl   $0x803f,(%esp)
    6316:	e8 bf fd ff ff       	call   60da <scheme_register_primitive>
    631b:	c7 44 24 10 70 ce 12 	movl   $0x12ce70,0x10(%esp)
    6322:	00 
    6323:	c7 44 24 0c 01 00 00 	movl   $0x1,0xc(%esp)
    632a:	00 
    632b:	c7 44 24 08 01 00 00 	movl   $0x1,0x8(%esp)
    6332:	00 
    6333:	c7 44 24 04 16 60 00 	movl   $0x6016,0x4(%esp)
    633a:	00 
    633b:	c7 04 24 59 80 00 00 	movl   $0x8059,(%esp)
    6342:	e8 93 fd ff ff       	call   60da <scheme_register_primitive>
    6347:	c7 44 24 10 70 ce 12 	movl   $0x12ce70,0x10(%esp)
    634e:	00 
    634f:	c7 44 24 0c 00 00 00 	movl   $0x0,0xc(%esp)
    6356:	00 
    6357:	c7 44 24 08 00 00 00 	movl   $0x0,0x8(%esp)
    635e:	00 
    635f:	c7 44 24 04 20 60 00 	movl   $0x6020,0x4(%esp)
    6366:	00 
    6367:	c7 04 24 6a 80 00 00 	movl   $0x806a,(%esp)
    636e:	e8 67 fd ff ff       	call   60da <scheme_register_primitive>
    6373:	83 c4 20             	add    $0x20,%esp
    6376:	5b                   	pop    %ebx
    6377:	5e                   	pop    %esi
    6378:	5d                   	pop    %ebp
    6379:	c3                   	ret    
    637a:	90                   	nop
    637b:	90                   	nop
    637c:	90                   	nop
    637d:	90                   	nop
    637e:	90                   	nop
    637f:	90                   	nop

00006380 <scheme_init_proc>:
    6380:	55                   	push   %ebp
    6381:	89 e5                	mov    %esp,%ebp
    6383:	66 c7 05 40 ce 12 00 	movw   $0x1a,0x12ce40
    638a:	1a 00 
    638c:	5d                   	pop    %ebp
    638d:	c3                   	ret    

0000638e <scheme_make_procedure>:
    638e:	55                   	push   %ebp
    638f:	89 e5                	mov    %esp,%ebp
    6391:	83 ec 18             	sub    $0x18,%esp
    6394:	c7 04 24 10 00 00 00 	movl   $0x10,(%esp)
    639b:	e8 b4 0d 00 00       	call   7154 <kmalloc>
    63a0:	8b 55 0c             	mov    0xc(%ebp),%edx
    63a3:	89 50 08             	mov    %edx,0x8(%eax)
    63a6:	8b 55 08             	mov    0x8(%ebp),%edx
    63a9:	89 50 04             	mov    %edx,0x4(%eax)
    63ac:	8b 55 10             	mov    0x10(%ebp),%edx
    63af:	89 50 0c             	mov    %edx,0xc(%eax)
    63b2:	66 c7 00 05 00       	movw   $0x5,(%eax)
    63b7:	c9                   	leave  
    63b8:	c3                   	ret    

000063b9 <scheme_apply_prim_proc>:
    63b9:	55                   	push   %ebp
    63ba:	89 e5                	mov    %esp,%ebp
    63bc:	57                   	push   %edi
    63bd:	56                   	push   %esi
    63be:	53                   	push   %ebx
    63bf:	83 ec 2c             	sub    $0x2c,%esp
    63c2:	8b 7d 08             	mov    0x8(%ebp),%edi
    63c5:	8b 75 0c             	mov    0xc(%ebp),%esi
    63c8:	89 f0                	mov    %esi,%eax
    63ca:	bb 00 00 00 00       	mov    $0x0,%ebx
    63cf:	81 fe 50 ce 12 00    	cmp    $0x12ce50,%esi
    63d5:	74 0d                	je     63e4 <scheme_apply_prim_proc+0x2b>
    63d7:	8b 40 08             	mov    0x8(%eax),%eax
    63da:	83 c3 01             	add    $0x1,%ebx
    63dd:	3d 50 ce 12 00       	cmp    $0x12ce50,%eax
    63e2:	75 f3                	jne    63d7 <scheme_apply_prim_proc+0x1e>
    63e4:	8b 57 0c             	mov    0xc(%edi),%edx
    63e7:	85 d2                	test   %edx,%edx
    63e9:	7e 09                	jle    63f4 <scheme_apply_prim_proc+0x3b>
    63eb:	b8 40 ce 12 00       	mov    $0x12ce40,%eax
    63f0:	39 da                	cmp    %ebx,%edx
    63f2:	7c 43                	jl     6437 <scheme_apply_prim_proc+0x7e>
    63f4:	b8 40 ce 12 00       	mov    $0x12ce40,%eax
    63f9:	39 5f 08             	cmp    %ebx,0x8(%edi)
    63fc:	7f 39                	jg     6437 <scheme_apply_prim_proc+0x7e>
    63fe:	8d 04 9d 00 00 00 00 	lea    0x0(,%ebx,4),%eax
    6405:	89 04 24             	mov    %eax,(%esp)
    6408:	e8 47 0d 00 00       	call   7154 <kmalloc>
    640d:	89 45 e4             	mov    %eax,-0x1c(%ebp)
    6410:	85 db                	test   %ebx,%ebx
    6412:	7e 16                	jle    642a <scheme_apply_prim_proc+0x71>
    6414:	ba 00 00 00 00       	mov    $0x0,%edx
    6419:	83 c2 01             	add    $0x1,%edx
    641c:	8b 4e 04             	mov    0x4(%esi),%ecx
    641f:	89 4c 90 fc          	mov    %ecx,-0x4(%eax,%edx,4)
    6423:	8b 76 08             	mov    0x8(%esi),%esi
    6426:	39 da                	cmp    %ebx,%edx
    6428:	75 ef                	jne    6419 <scheme_apply_prim_proc+0x60>
    642a:	8b 45 e4             	mov    -0x1c(%ebp),%eax
    642d:	89 44 24 04          	mov    %eax,0x4(%esp)
    6431:	89 1c 24             	mov    %ebx,(%esp)
    6434:	ff 57 04             	call   *0x4(%edi)
    6437:	83 c4 2c             	add    $0x2c,%esp
    643a:	5b                   	pop    %ebx
    643b:	5e                   	pop    %esi
    643c:	5f                   	pop    %edi
    643d:	5d                   	pop    %ebp
    643e:	c3                   	ret    

0000643f <scheme_make_prim_proc>:
    643f:	55                   	push   %ebp
    6440:	89 e5                	mov    %esp,%ebp
    6442:	83 ec 18             	sub    $0x18,%esp
    6445:	c7 04 24 10 00 00 00 	movl   $0x10,(%esp)
    644c:	e8 03 0d 00 00       	call   7154 <kmalloc>
    6451:	8b 55 08             	mov    0x8(%ebp),%edx
    6454:	89 50 04             	mov    %edx,0x4(%eax)
    6457:	8b 55 10             	mov    0x10(%ebp),%edx
    645a:	89 50 0c             	mov    %edx,0xc(%eax)
    645d:	8b 55 0c             	mov    0xc(%ebp),%edx
    6460:	89 50 08             	mov    %edx,0x8(%eax)
    6463:	66 c7 00 04 00       	movw   $0x4,(%eax)
    6468:	c9                   	leave  
    6469:	c3                   	ret    

0000646a <scheme_apply>:
    646a:	55                   	push   %ebp
    646b:	89 e5                	mov    %esp,%ebp
    646d:	53                   	push   %ebx
    646e:	83 ec 14             	sub    $0x14,%esp
    6471:	8b 5d 08             	mov    0x8(%ebp),%ebx
    6474:	8b 45 0c             	mov    0xc(%ebp),%eax
    6477:	f6 c3 01             	test   $0x1,%bl
    647a:	75 4d                	jne    64c9 <scheme_apply+0x5f>
    647c:	0f b7 13             	movzwl (%ebx),%edx
    647f:	66 83 fa 04          	cmp    $0x4,%dx
    6483:	74 0d                	je     6492 <scheme_apply+0x28>
    6485:	66 83 fa 05          	cmp    $0x5,%dx
    6489:	75 3e                	jne    64c9 <scheme_apply+0x5f>
    648b:	90                   	nop
    648c:	8d 74 26 00          	lea    0x0(%esi,%eiz,1),%esi
    6490:	eb 10                	jmp    64a2 <scheme_apply+0x38>
    6492:	89 44 24 04          	mov    %eax,0x4(%esp)
    6496:	89 1c 24             	mov    %ebx,(%esp)
    6499:	e8 1b ff ff ff       	call   63b9 <scheme_apply_prim_proc>
    649e:	66 90                	xchg   %ax,%ax
    64a0:	eb 38                	jmp    64da <scheme_apply+0x70>
    64a2:	8b 53 0c             	mov    0xc(%ebx),%edx
    64a5:	89 54 24 08          	mov    %edx,0x8(%esp)
    64a9:	89 44 24 04          	mov    %eax,0x4(%esp)
    64ad:	8b 43 04             	mov    0x4(%ebx),%eax
    64b0:	89 04 24             	mov    %eax,(%esp)
    64b3:	e8 c1 fc ff ff       	call   6179 <scheme_extend_env>
    64b8:	89 44 24 04          	mov    %eax,0x4(%esp)
    64bc:	8b 43 08             	mov    0x8(%ebx),%eax
    64bf:	89 04 24             	mov    %eax,(%esp)
    64c2:	e8 1f 06 00 00       	call   6ae6 <scheme_eval_sequence>
    64c7:	eb 11                	jmp    64da <scheme_apply+0x70>
    64c9:	c7 04 24 58 81 00 00 	movl   $0x8158,(%esp)
    64d0:	e8 6f 10 00 00       	call   7544 <printf>
    64d5:	b8 40 ce 12 00       	mov    $0x12ce40,%eax
    64da:	83 c4 14             	add    $0x14,%esp
    64dd:	5b                   	pop    %ebx
    64de:	5d                   	pop    %ebp
    64df:	c3                   	ret    

000064e0 <apply>:
    64e0:	55                   	push   %ebp
    64e1:	89 e5                	mov    %esp,%ebp
    64e3:	83 ec 18             	sub    $0x18,%esp
    64e6:	8b 45 0c             	mov    0xc(%ebp),%eax
    64e9:	8b 50 04             	mov    0x4(%eax),%edx
    64ec:	89 54 24 04          	mov    %edx,0x4(%esp)
    64f0:	8b 00                	mov    (%eax),%eax
    64f2:	89 04 24             	mov    %eax,(%esp)
    64f5:	e8 70 ff ff ff       	call   646a <scheme_apply>
    64fa:	c9                   	leave  
    64fb:	c3                   	ret    
    64fc:	90                   	nop
    64fd:	90                   	nop
    64fe:	90                   	nop
    64ff:	90                   	nop

00006500 <_analyze_case>:
    6500:	55                   	push   %ebp
    6501:	89 e5                	mov    %esp,%ebp
    6503:	b8 00 00 00 00       	mov    $0x0,%eax
    6508:	5d                   	pop    %ebp
    6509:	c3                   	ret    

0000650a <_analyze_delay>:
    650a:	55                   	push   %ebp
    650b:	89 e5                	mov    %esp,%ebp
    650d:	b8 00 00 00 00       	mov    $0x0,%eax
    6512:	5d                   	pop    %ebp
    6513:	c3                   	ret    

00006514 <_analyze_loop>:
    6514:	55                   	push   %ebp
    6515:	89 e5                	mov    %esp,%ebp
    6517:	b8 00 00 00 00       	mov    $0x0,%eax
    651c:	5d                   	pop    %ebp
    651d:	c3                   	ret    

0000651e <_analyze_else>:
    651e:	55                   	push   %ebp
    651f:	89 e5                	mov    %esp,%ebp
    6521:	b8 94 ce 12 00       	mov    $0x12ce94,%eax
    6526:	5d                   	pop    %ebp
    6527:	c3                   	ret    

00006528 <_analyze_let>:
    6528:	55                   	push   %ebp
    6529:	89 e5                	mov    %esp,%ebp
    652b:	b8 00 00 00 00       	mov    $0x0,%eax
    6530:	5d                   	pop    %ebp
    6531:	c3                   	ret    

00006532 <_analyze_letrec>:
    6532:	55                   	push   %ebp
    6533:	89 e5                	mov    %esp,%ebp
    6535:	b8 00 00 00 00       	mov    $0x0,%eax
    653a:	5d                   	pop    %ebp
    653b:	c3                   	ret    

0000653c <_analyze_let_star>:
    653c:	55                   	push   %ebp
    653d:	89 e5                	mov    %esp,%ebp
    653f:	b8 00 00 00 00       	mov    $0x0,%eax
    6544:	5d                   	pop    %ebp
    6545:	c3                   	ret    

00006546 <_analyze_quasiquote>:
    6546:	55                   	push   %ebp
    6547:	89 e5                	mov    %esp,%ebp
    6549:	b8 00 00 00 00       	mov    $0x0,%eax
    654e:	5d                   	pop    %ebp
    654f:	c3                   	ret    

00006550 <_analyze>:
    6550:	55                   	push   %ebp
    6551:	89 e5                	mov    %esp,%ebp
    6553:	57                   	push   %edi
    6554:	56                   	push   %esi
    6555:	53                   	push   %ebx
    6556:	83 ec 4c             	sub    $0x4c,%esp
    6559:	89 45 e4             	mov    %eax,-0x1c(%ebp)
    655c:	a8 01                	test   $0x1,%al
    655e:	75 3b                	jne    659b <_analyze+0x4b>
    6560:	66 83 38 1c          	cmpw   $0x1c,(%eax)
    6564:	0f 8f c0 01 00 00    	jg     672a <_analyze+0x1da>
    656a:	66 83 38 19          	cmpw   $0x19,(%eax)
    656e:	77 1f                	ja     658f <_analyze+0x3f>
    6570:	0f bf 08             	movswl (%eax),%ecx
    6573:	b8 01 00 00 00       	mov    $0x1,%eax
    6578:	d3 e0                	shl    %cl,%eax
    657a:	a9 00 ff 2a 02       	test   $0x22aff00,%eax
    657f:	75 1a                	jne    659b <_analyze+0x4b>
    6581:	a9 00 00 10 00       	test   $0x100000,%eax
    6586:	75 51                	jne    65d9 <_analyze+0x89>
    6588:	a9 00 00 04 00       	test   $0x40000,%eax
    658d:	75 2b                	jne    65ba <_analyze+0x6a>
    658f:	c7 45 e4 40 ce 12 00 	movl   $0x12ce40,-0x1c(%ebp)
    6596:	e9 8f 01 00 00       	jmp    672a <_analyze+0x1da>
    659b:	c7 04 24 10 00 00 00 	movl   $0x10,(%esp)
    65a2:	e8 ad 0b 00 00       	call   7154 <kmalloc>
    65a7:	66 c7 00 1d 00       	movw   $0x1d,(%eax)
    65ac:	8b 55 e4             	mov    -0x1c(%ebp),%edx
    65af:	89 50 04             	mov    %edx,0x4(%eax)
    65b2:	89 45 e4             	mov    %eax,-0x1c(%ebp)
    65b5:	e9 70 01 00 00       	jmp    672a <_analyze+0x1da>
    65ba:	c7 04 24 10 00 00 00 	movl   $0x10,(%esp)
    65c1:	e8 8e 0b 00 00       	call   7154 <kmalloc>
    65c6:	66 c7 00 1f 00       	movw   $0x1f,(%eax)
    65cb:	8b 4d e4             	mov    -0x1c(%ebp),%ecx
    65ce:	89 48 04             	mov    %ecx,0x4(%eax)
    65d1:	89 45 e4             	mov    %eax,-0x1c(%ebp)
    65d4:	e9 51 01 00 00       	jmp    672a <_analyze+0x1da>
    65d9:	8b 5d e4             	mov    -0x1c(%ebp),%ebx
    65dc:	8b 43 04             	mov    0x4(%ebx),%eax
    65df:	a8 01                	test   $0x1,%al
    65e1:	0f 85 3c 01 00 00    	jne    6723 <_analyze+0x1d3>
    65e7:	0f b7 10             	movzwl (%eax),%edx
    65ea:	66 83 fa 12          	cmp    $0x12,%dx
    65ee:	74 0f                	je     65ff <_analyze+0xaf>
    65f0:	66 83 fa 14          	cmp    $0x14,%dx
    65f4:	0f 85 29 01 00 00    	jne    6723 <_analyze+0x1d3>
    65fa:	e9 12 01 00 00       	jmp    6711 <_analyze+0x1c1>
    65ff:	8b 40 04             	mov    0x4(%eax),%eax
    6602:	89 45 dc             	mov    %eax,-0x24(%ebp)
    6605:	0f b6 30             	movzbl (%eax),%esi
    6608:	89 f0                	mov    %esi,%eax
    660a:	84 c0                	test   %al,%al
    660c:	0f 84 e2 00 00 00    	je     66f4 <_analyze+0x1a4>
    6612:	bb 00 00 00 00       	mov    $0x0,%ebx
    6617:	ba 11 00 00 00       	mov    $0x11,%edx
    661c:	c7 45 e0 00 00 00 00 	movl   $0x0,-0x20(%ebp)
    6623:	b8 00 00 00 00       	mov    $0x0,%eax
    6628:	89 5d d0             	mov    %ebx,-0x30(%ebp)
    662b:	e9 9c 00 00 00       	jmp    66cc <_analyze+0x17c>
    6630:	8b 39                	mov    (%ecx),%edi
    6632:	83 c1 08             	add    $0x8,%ecx
    6635:	89 f2                	mov    %esi,%edx
    6637:	38 14 1f             	cmp    %dl,(%edi,%ebx,1)
    663a:	75 0b                	jne    6647 <_analyze+0xf7>
    663c:	eb 19                	jmp    6657 <_analyze+0x107>
    663e:	8b 4d d4             	mov    -0x2c(%ebp),%ecx
    6641:	8b 5d d0             	mov    -0x30(%ebp),%ebx
    6644:	89 55 d4             	mov    %edx,-0x2c(%ebp)
    6647:	83 c0 01             	add    $0x1,%eax
    664a:	3b 45 d4             	cmp    -0x2c(%ebp),%eax
    664d:	7c e1                	jl     6630 <_analyze+0xe0>
    664f:	89 5d d0             	mov    %ebx,-0x30(%ebp)
    6652:	8b 55 d4             	mov    -0x2c(%ebp),%edx
    6655:	eb 06                	jmp    665d <_analyze+0x10d>
    6657:	89 5d d0             	mov    %ebx,-0x30(%ebp)
    665a:	8b 55 d4             	mov    -0x2c(%ebp),%edx
    665d:	39 d0                	cmp    %edx,%eax
    665f:	0f 84 ac 00 00 00    	je     6711 <_analyze+0x1c1>
    6665:	8d 50 01             	lea    0x1(%eax),%edx
    6668:	8b 0c d5 60 95 00 00 	mov    0x9560(,%edx,8),%ecx
    666f:	85 c9                	test   %ecx,%ecx
    6671:	74 42                	je     66b5 <_analyze+0x165>
    6673:	8b 5d d0             	mov    -0x30(%ebp),%ebx
    6676:	0f b6 3c 19          	movzbl (%ecx,%ebx,1),%edi
    667a:	8d 0c c5 70 95 00 00 	lea    0x9570(,%eax,8),%ecx
    6681:	89 4d d4             	mov    %ecx,-0x2c(%ebp)
    6684:	89 fb                	mov    %edi,%ebx
    6686:	89 f1                	mov    %esi,%ecx
    6688:	38 cb                	cmp    %cl,%bl
    668a:	74 0e                	je     669a <_analyze+0x14a>
    668c:	eb 27                	jmp    66b5 <_analyze+0x165>
    668e:	83 c1 08             	add    $0x8,%ecx
    6691:	3a 04 1e             	cmp    (%esi,%ebx,1),%al
    6694:	74 10                	je     66a6 <_analyze+0x156>
    6696:	66 90                	xchg   %ax,%ax
    6698:	eb 19                	jmp    66b3 <_analyze+0x163>
    669a:	8b 4d d4             	mov    -0x2c(%ebp),%ecx
    669d:	8b 5d d0             	mov    -0x30(%ebp),%ebx
    66a0:	89 c6                	mov    %eax,%esi
    66a2:	89 f8                	mov    %edi,%eax
    66a4:	89 f7                	mov    %esi,%edi
    66a6:	83 c2 01             	add    $0x1,%edx
    66a9:	8b 31                	mov    (%ecx),%esi
    66ab:	85 f6                	test   %esi,%esi
    66ad:	75 df                	jne    668e <_analyze+0x13e>
    66af:	89 f8                	mov    %edi,%eax
    66b1:	eb 02                	jmp    66b5 <_analyze+0x165>
    66b3:	89 f8                	mov    %edi,%eax
    66b5:	83 45 e0 01          	addl   $0x1,-0x20(%ebp)
    66b9:	8b 5d e0             	mov    -0x20(%ebp),%ebx
    66bc:	89 5d d0             	mov    %ebx,-0x30(%ebp)
    66bf:	8b 7d dc             	mov    -0x24(%ebp),%edi
    66c2:	0f b6 34 1f          	movzbl (%edi,%ebx,1),%esi
    66c6:	89 f1                	mov    %esi,%ecx
    66c8:	84 c9                	test   %cl,%cl
    66ca:	74 2d                	je     66f9 <_analyze+0x1a9>
    66cc:	39 d0                	cmp    %edx,%eax
    66ce:	7d 8d                	jge    665d <_analyze+0x10d>
    66d0:	8b 1c c5 60 95 00 00 	mov    0x9560(,%eax,8),%ebx
    66d7:	8d 3c c5 68 95 00 00 	lea    0x9568(,%eax,8),%edi
    66de:	89 7d d4             	mov    %edi,-0x2c(%ebp)
    66e1:	89 f1                	mov    %esi,%ecx
    66e3:	8b 7d d0             	mov    -0x30(%ebp),%edi
    66e6:	38 0c 3b             	cmp    %cl,(%ebx,%edi,1)
    66e9:	0f 85 4f ff ff ff    	jne    663e <_analyze+0xee>
    66ef:	e9 69 ff ff ff       	jmp    665d <_analyze+0x10d>
    66f4:	b8 00 00 00 00       	mov    $0x0,%eax
    66f9:	8b 04 c5 64 95 00 00 	mov    0x9564(,%eax,8),%eax
    6700:	85 c0                	test   %eax,%eax
    6702:	74 0d                	je     6711 <_analyze+0x1c1>
    6704:	8b 55 e4             	mov    -0x1c(%ebp),%edx
    6707:	89 14 24             	mov    %edx,(%esp)
    670a:	ff d0                	call   *%eax
    670c:	89 45 e4             	mov    %eax,-0x1c(%ebp)
    670f:	eb 19                	jmp    672a <_analyze+0x1da>
    6711:	8b 45 e4             	mov    -0x1c(%ebp),%eax
    6714:	e8 60 00 00 00       	call   6779 <_analyze_sequence>
    6719:	66 c7 00 28 00       	movw   $0x28,(%eax)
    671e:	89 45 e4             	mov    %eax,-0x1c(%ebp)
    6721:	eb 07                	jmp    672a <_analyze+0x1da>
    6723:	c7 45 e4 40 ce 12 00 	movl   $0x12ce40,-0x1c(%ebp)
    672a:	8b 45 e4             	mov    -0x1c(%ebp),%eax
    672d:	83 c4 4c             	add    $0x4c,%esp
    6730:	5b                   	pop    %ebx
    6731:	5e                   	pop    %esi
    6732:	5f                   	pop    %edi
    6733:	5d                   	pop    %ebp
    6734:	c3                   	ret    

00006735 <_analyze_assignment>:
    6735:	55                   	push   %ebp
    6736:	89 e5                	mov    %esp,%ebp
    6738:	53                   	push   %ebx
    6739:	83 ec 14             	sub    $0x14,%esp
    673c:	8b 45 08             	mov    0x8(%ebp),%eax
    673f:	8b 40 08             	mov    0x8(%eax),%eax
    6742:	8b 58 04             	mov    0x4(%eax),%ebx
    6745:	f6 c3 01             	test   $0x1,%bl
    6748:	75 24                	jne    676e <_analyze_assignment+0x39>
    674a:	66 83 3b 12          	cmpw   $0x12,(%ebx)
    674e:	75 1e                	jne    676e <_analyze_assignment+0x39>
    6750:	8b 40 08             	mov    0x8(%eax),%eax
    6753:	8b 40 04             	mov    0x4(%eax),%eax
    6756:	e8 f5 fd ff ff       	call   6550 <_analyze>
    675b:	89 44 24 04          	mov    %eax,0x4(%esp)
    675f:	89 1c 24             	mov    %ebx,(%esp)
    6762:	e8 b2 d8 ff ff       	call   4019 <scheme_make_pair>
    6767:	66 c7 00 20 00       	movw   $0x20,(%eax)
    676c:	eb 05                	jmp    6773 <_analyze_assignment+0x3e>
    676e:	b8 40 ce 12 00       	mov    $0x12ce40,%eax
    6773:	83 c4 14             	add    $0x14,%esp
    6776:	5b                   	pop    %ebx
    6777:	5d                   	pop    %ebp
    6778:	c3                   	ret    

00006779 <_analyze_sequence>:
    6779:	55                   	push   %ebp
    677a:	89 e5                	mov    %esp,%ebp
    677c:	57                   	push   %edi
    677d:	56                   	push   %esi
    677e:	53                   	push   %ebx
    677f:	83 ec 1c             	sub    $0x1c,%esp
    6782:	89 c3                	mov    %eax,%ebx
    6784:	bf 50 ce 12 00       	mov    $0x12ce50,%edi
    6789:	39 f8                	cmp    %edi,%eax
    678b:	75 45                	jne    67d2 <_analyze_sequence+0x59>
    678d:	eb 34                	jmp    67c3 <_analyze_sequence+0x4a>
    678f:	8b 43 04             	mov    0x4(%ebx),%eax
    6792:	e8 b9 fd ff ff       	call   6550 <_analyze>
    6797:	c7 44 24 04 50 ce 12 	movl   $0x12ce50,0x4(%esp)
    679e:	00 
    679f:	89 04 24             	mov    %eax,(%esp)
    67a2:	e8 72 d8 ff ff       	call   4019 <scheme_make_pair>
    67a7:	81 ff 50 ce 12 00    	cmp    $0x12ce50,%edi
    67ad:	75 04                	jne    67b3 <_analyze_sequence+0x3a>
    67af:	89 c7                	mov    %eax,%edi
    67b1:	eb 03                	jmp    67b6 <_analyze_sequence+0x3d>
    67b3:	89 46 08             	mov    %eax,0x8(%esi)
    67b6:	89 c6                	mov    %eax,%esi
    67b8:	8b 5b 08             	mov    0x8(%ebx),%ebx
    67bb:	81 fb 50 ce 12 00    	cmp    $0x12ce50,%ebx
    67c1:	75 cc                	jne    678f <_analyze_sequence+0x16>
    67c3:	66 c7 07 26 00       	movw   $0x26,(%edi)
    67c8:	89 f8                	mov    %edi,%eax
    67ca:	83 c4 1c             	add    $0x1c,%esp
    67cd:	5b                   	pop    %ebx
    67ce:	5e                   	pop    %esi
    67cf:	5f                   	pop    %edi
    67d0:	5d                   	pop    %ebp
    67d1:	c3                   	ret    
    67d2:	8b 40 04             	mov    0x4(%eax),%eax
    67d5:	e8 76 fd ff ff       	call   6550 <_analyze>
    67da:	c7 44 24 04 50 ce 12 	movl   $0x12ce50,0x4(%esp)
    67e1:	00 
    67e2:	89 04 24             	mov    %eax,(%esp)
    67e5:	e8 2f d8 ff ff       	call   4019 <scheme_make_pair>
    67ea:	89 c6                	mov    %eax,%esi
    67ec:	89 c7                	mov    %eax,%edi
    67ee:	eb c8                	jmp    67b8 <_analyze_sequence+0x3f>

000067f0 <_analyze_or>:
    67f0:	55                   	push   %ebp
    67f1:	89 e5                	mov    %esp,%ebp
    67f3:	83 ec 08             	sub    $0x8,%esp
    67f6:	8b 45 08             	mov    0x8(%ebp),%eax
    67f9:	8b 40 08             	mov    0x8(%eax),%eax
    67fc:	e8 78 ff ff ff       	call   6779 <_analyze_sequence>
    6801:	66 c7 00 2a 00       	movw   $0x2a,(%eax)
    6806:	c9                   	leave  
    6807:	c3                   	ret    

00006808 <_analyze_lambda>:
    6808:	55                   	push   %ebp
    6809:	89 e5                	mov    %esp,%ebp
    680b:	53                   	push   %ebx
    680c:	83 ec 14             	sub    $0x14,%esp
    680f:	8b 45 08             	mov    0x8(%ebp),%eax
    6812:	8b 40 08             	mov    0x8(%eax),%eax
    6815:	8b 58 04             	mov    0x4(%eax),%ebx
    6818:	8b 40 08             	mov    0x8(%eax),%eax
    681b:	e8 59 ff ff ff       	call   6779 <_analyze_sequence>
    6820:	89 44 24 04          	mov    %eax,0x4(%esp)
    6824:	89 1c 24             	mov    %ebx,(%esp)
    6827:	e8 ed d7 ff ff       	call   4019 <scheme_make_pair>
    682c:	66 c7 00 24 00       	movw   $0x24,(%eax)
    6831:	83 c4 14             	add    $0x14,%esp
    6834:	5b                   	pop    %ebx
    6835:	5d                   	pop    %ebp
    6836:	c3                   	ret    

00006837 <_analyze_begin>:
    6837:	55                   	push   %ebp
    6838:	89 e5                	mov    %esp,%ebp
    683a:	83 ec 08             	sub    $0x8,%esp
    683d:	8b 45 08             	mov    0x8(%ebp),%eax
    6840:	8b 40 08             	mov    0x8(%eax),%eax
    6843:	e8 31 ff ff ff       	call   6779 <_analyze_sequence>
    6848:	66 c7 00 25 00       	movw   $0x25,(%eax)
    684d:	c9                   	leave  
    684e:	c3                   	ret    

0000684f <_analyze_and>:
    684f:	55                   	push   %ebp
    6850:	89 e5                	mov    %esp,%ebp
    6852:	83 ec 08             	sub    $0x8,%esp
    6855:	8b 45 08             	mov    0x8(%ebp),%eax
    6858:	8b 40 08             	mov    0x8(%eax),%eax
    685b:	e8 19 ff ff ff       	call   6779 <_analyze_sequence>
    6860:	66 c7 00 29 00       	movw   $0x29,(%eax)
    6865:	c9                   	leave  
    6866:	c3                   	ret    

00006867 <_analyze_if>:
    6867:	55                   	push   %ebp
    6868:	89 e5                	mov    %esp,%ebp
    686a:	83 ec 28             	sub    $0x28,%esp
    686d:	89 5d f4             	mov    %ebx,-0xc(%ebp)
    6870:	89 75 f8             	mov    %esi,-0x8(%ebp)
    6873:	89 7d fc             	mov    %edi,-0x4(%ebp)
    6876:	8b 45 08             	mov    0x8(%ebp),%eax
    6879:	8b 58 08             	mov    0x8(%eax),%ebx
    687c:	f6 c3 01             	test   $0x1,%bl
    687f:	0f 85 9a 00 00 00    	jne    691f <_analyze_if+0xb8>
    6885:	66 83 3b 14          	cmpw   $0x14,(%ebx)
    6889:	0f 85 90 00 00 00    	jne    691f <_analyze_if+0xb8>
    688f:	8b 43 04             	mov    0x4(%ebx),%eax
    6892:	e8 b9 fc ff ff       	call   6550 <_analyze>
    6897:	89 c6                	mov    %eax,%esi
    6899:	8b 5b 08             	mov    0x8(%ebx),%ebx
    689c:	f6 c3 01             	test   $0x1,%bl
    689f:	75 36                	jne    68d7 <_analyze_if+0x70>
    68a1:	66 83 3b 14          	cmpw   $0x14,(%ebx)
    68a5:	75 12                	jne    68b9 <_analyze_if+0x52>
    68a7:	8b 43 04             	mov    0x4(%ebx),%eax
    68aa:	e8 a1 fc ff ff       	call   6550 <_analyze>
    68af:	89 c7                	mov    %eax,%edi
    68b1:	8b 5b 08             	mov    0x8(%ebx),%ebx
    68b4:	f6 c3 01             	test   $0x1,%bl
    68b7:	75 1e                	jne    68d7 <_analyze_if+0x70>
    68b9:	66 83 3b 14          	cmpw   $0x14,(%ebx)
    68bd:	75 18                	jne    68d7 <_analyze_if+0x70>
    68bf:	b8 40 ce 12 00       	mov    $0x12ce40,%eax
    68c4:	81 7b 08 50 ce 12 00 	cmpl   $0x12ce50,0x8(%ebx)
    68cb:	75 5e                	jne    692b <_analyze_if+0xc4>
    68cd:	8b 43 04             	mov    0x4(%ebx),%eax
    68d0:	e8 7b fc ff ff       	call   6550 <_analyze>
    68d5:	eb 12                	jmp    68e9 <_analyze_if+0x82>
    68d7:	b8 40 ce 12 00       	mov    $0x12ce40,%eax
    68dc:	81 fb 50 ce 12 00    	cmp    $0x12ce50,%ebx
    68e2:	75 47                	jne    692b <_analyze_if+0xc4>
    68e4:	b8 50 ce 12 00       	mov    $0x12ce50,%eax
    68e9:	81 fe 40 ce 12 00    	cmp    $0x12ce40,%esi
    68ef:	74 35                	je     6926 <_analyze_if+0xbf>
    68f1:	81 ff 40 ce 12 00    	cmp    $0x12ce40,%edi
    68f7:	74 2d                	je     6926 <_analyze_if+0xbf>
    68f9:	3d 40 ce 12 00       	cmp    $0x12ce40,%eax
    68fe:	74 26                	je     6926 <_analyze_if+0xbf>
    6900:	89 44 24 04          	mov    %eax,0x4(%esp)
    6904:	89 3c 24             	mov    %edi,(%esp)
    6907:	e8 0d d7 ff ff       	call   4019 <scheme_make_pair>
    690c:	89 44 24 04          	mov    %eax,0x4(%esp)
    6910:	89 34 24             	mov    %esi,(%esp)
    6913:	e8 01 d7 ff ff       	call   4019 <scheme_make_pair>
    6918:	66 c7 00 23 00       	movw   $0x23,(%eax)
    691d:	eb 0c                	jmp    692b <_analyze_if+0xc4>
    691f:	b8 40 ce 12 00       	mov    $0x12ce40,%eax
    6924:	eb 05                	jmp    692b <_analyze_if+0xc4>
    6926:	b8 40 ce 12 00       	mov    $0x12ce40,%eax
    692b:	8b 5d f4             	mov    -0xc(%ebp),%ebx
    692e:	8b 75 f8             	mov    -0x8(%ebp),%esi
    6931:	8b 7d fc             	mov    -0x4(%ebp),%edi
    6934:	89 ec                	mov    %ebp,%esp
    6936:	5d                   	pop    %ebp
    6937:	c3                   	ret    

00006938 <_analyze_definition>:
    6938:	55                   	push   %ebp
    6939:	89 e5                	mov    %esp,%ebp
    693b:	83 ec 18             	sub    $0x18,%esp
    693e:	89 5d f8             	mov    %ebx,-0x8(%ebp)
    6941:	89 75 fc             	mov    %esi,-0x4(%ebp)
    6944:	8b 55 08             	mov    0x8(%ebp),%edx
    6947:	8b 52 08             	mov    0x8(%edx),%edx
    694a:	8b 5a 04             	mov    0x4(%edx),%ebx
    694d:	f6 c3 01             	test   $0x1,%bl
    6950:	75 55                	jne    69a7 <_analyze_definition+0x6f>
    6952:	66 83 3b 12          	cmpw   $0x12,(%ebx)
    6956:	75 1e                	jne    6976 <_analyze_definition+0x3e>
    6958:	8b 42 08             	mov    0x8(%edx),%eax
    695b:	8b 40 04             	mov    0x4(%eax),%eax
    695e:	e8 ed fb ff ff       	call   6550 <_analyze>
    6963:	89 44 24 04          	mov    %eax,0x4(%esp)
    6967:	89 1c 24             	mov    %ebx,(%esp)
    696a:	e8 aa d6 ff ff       	call   4019 <scheme_make_pair>
    696f:	66 c7 00 21 00       	movw   $0x21,(%eax)
    6974:	eb 31                	jmp    69a7 <_analyze_definition+0x6f>
    6976:	66 83 3b 14          	cmpw   $0x14,(%ebx)
    697a:	75 2b                	jne    69a7 <_analyze_definition+0x6f>
    697c:	8b 73 04             	mov    0x4(%ebx),%esi
    697f:	8b 42 08             	mov    0x8(%edx),%eax
    6982:	e8 f2 fd ff ff       	call   6779 <_analyze_sequence>
    6987:	89 44 24 04          	mov    %eax,0x4(%esp)
    698b:	8b 43 08             	mov    0x8(%ebx),%eax
    698e:	89 04 24             	mov    %eax,(%esp)
    6991:	e8 83 d6 ff ff       	call   4019 <scheme_make_pair>
    6996:	89 44 24 04          	mov    %eax,0x4(%esp)
    699a:	89 34 24             	mov    %esi,(%esp)
    699d:	e8 77 d6 ff ff       	call   4019 <scheme_make_pair>
    69a2:	66 c7 00 22 00       	movw   $0x22,(%eax)
    69a7:	8b 5d f8             	mov    -0x8(%ebp),%ebx
    69aa:	8b 75 fc             	mov    -0x4(%ebp),%esi
    69ad:	89 ec                	mov    %ebp,%esp
    69af:	5d                   	pop    %ebp
    69b0:	c3                   	ret    

000069b1 <_analyze_cond>:
    69b1:	55                   	push   %ebp
    69b2:	89 e5                	mov    %esp,%ebp
    69b4:	57                   	push   %edi
    69b5:	56                   	push   %esi
    69b6:	53                   	push   %ebx
    69b7:	83 ec 2c             	sub    $0x2c,%esp
    69ba:	8b 45 08             	mov    0x8(%ebp),%eax
    69bd:	8b 58 08             	mov    0x8(%eax),%ebx
    69c0:	c7 45 e0 50 ce 12 00 	movl   $0x12ce50,-0x20(%ebp)
    69c7:	81 fb 50 ce 12 00    	cmp    $0x12ce50,%ebx
    69cd:	75 68                	jne    6a37 <_analyze_cond+0x86>
    69cf:	eb 53                	jmp    6a24 <_analyze_cond+0x73>
    69d1:	8b 73 04             	mov    0x4(%ebx),%esi
    69d4:	8b 46 04             	mov    0x4(%esi),%eax
    69d7:	e8 74 fb ff ff       	call   6550 <_analyze>
    69dc:	89 45 e4             	mov    %eax,-0x1c(%ebp)
    69df:	8b 46 08             	mov    0x8(%esi),%eax
    69e2:	e8 92 fd ff ff       	call   6779 <_analyze_sequence>
    69e7:	89 44 24 04          	mov    %eax,0x4(%esp)
    69eb:	8b 45 e4             	mov    -0x1c(%ebp),%eax
    69ee:	89 04 24             	mov    %eax,(%esp)
    69f1:	e8 23 d6 ff ff       	call   4019 <scheme_make_pair>
    69f6:	c7 44 24 04 50 ce 12 	movl   $0x12ce50,0x4(%esp)
    69fd:	00 
    69fe:	89 04 24             	mov    %eax,(%esp)
    6a01:	e8 13 d6 ff ff       	call   4019 <scheme_make_pair>
    6a06:	81 7d e0 50 ce 12 00 	cmpl   $0x12ce50,-0x20(%ebp)
    6a0d:	75 05                	jne    6a14 <_analyze_cond+0x63>
    6a0f:	89 45 e0             	mov    %eax,-0x20(%ebp)
    6a12:	eb 03                	jmp    6a17 <_analyze_cond+0x66>
    6a14:	89 47 08             	mov    %eax,0x8(%edi)
    6a17:	89 c7                	mov    %eax,%edi
    6a19:	8b 5b 08             	mov    0x8(%ebx),%ebx
    6a1c:	81 fb 50 ce 12 00    	cmp    $0x12ce50,%ebx
    6a22:	75 ad                	jne    69d1 <_analyze_cond+0x20>
    6a24:	8b 45 e0             	mov    -0x20(%ebp),%eax
    6a27:	66 c7 00 27 00       	movw   $0x27,(%eax)
    6a2c:	8b 45 e0             	mov    -0x20(%ebp),%eax
    6a2f:	83 c4 2c             	add    $0x2c,%esp
    6a32:	5b                   	pop    %ebx
    6a33:	5e                   	pop    %esi
    6a34:	5f                   	pop    %edi
    6a35:	5d                   	pop    %ebp
    6a36:	c3                   	ret    
    6a37:	8b 73 04             	mov    0x4(%ebx),%esi
    6a3a:	8b 46 04             	mov    0x4(%esi),%eax
    6a3d:	e8 0e fb ff ff       	call   6550 <_analyze>
    6a42:	89 c7                	mov    %eax,%edi
    6a44:	8b 46 08             	mov    0x8(%esi),%eax
    6a47:	e8 2d fd ff ff       	call   6779 <_analyze_sequence>
    6a4c:	89 44 24 04          	mov    %eax,0x4(%esp)
    6a50:	89 3c 24             	mov    %edi,(%esp)
    6a53:	e8 c1 d5 ff ff       	call   4019 <scheme_make_pair>
    6a58:	c7 44 24 04 50 ce 12 	movl   $0x12ce50,0x4(%esp)
    6a5f:	00 
    6a60:	89 04 24             	mov    %eax,(%esp)
    6a63:	e8 b1 d5 ff ff       	call   4019 <scheme_make_pair>
    6a68:	89 c7                	mov    %eax,%edi
    6a6a:	89 45 e0             	mov    %eax,-0x20(%ebp)
    6a6d:	eb aa                	jmp    6a19 <_analyze_cond+0x68>

00006a6f <scheme_eval>:
    6a6f:	55                   	push   %ebp
    6a70:	89 e5                	mov    %esp,%ebp
    6a72:	83 ec 18             	sub    $0x18,%esp
    6a75:	8b 55 08             	mov    0x8(%ebp),%edx
    6a78:	b8 50 ce 12 00       	mov    $0x12ce50,%eax
    6a7d:	39 c2                	cmp    %eax,%edx
    6a7f:	74 47                	je     6ac8 <scheme_eval+0x59>
    6a81:	89 d0                	mov    %edx,%eax
    6a83:	e8 c8 fa ff ff       	call   6550 <_analyze>
    6a88:	89 c2                	mov    %eax,%edx
    6a8a:	b8 ec ff ff ff       	mov    $0xffffffec,%eax
    6a8f:	f6 c2 01             	test   $0x1,%dl
    6a92:	75 18                	jne    6aac <scheme_eval+0x3d>
    6a94:	0f b7 02             	movzwl (%edx),%eax
    6a97:	66 83 f8 1d          	cmp    $0x1d,%ax
    6a9b:	74 06                	je     6aa3 <scheme_eval+0x34>
    6a9d:	66 83 f8 1e          	cmp    $0x1e,%ax
    6aa1:	75 05                	jne    6aa8 <scheme_eval+0x39>
    6aa3:	8b 42 04             	mov    0x4(%edx),%eax
    6aa6:	eb 20                	jmp    6ac8 <scheme_eval+0x59>
    6aa8:	98                   	cwtl   
    6aa9:	83 e8 1c             	sub    $0x1c,%eax
    6aac:	8b 0c 85 40 7c 00 00 	mov    0x7c40(,%eax,4),%ecx
    6ab3:	b8 40 ce 12 00       	mov    $0x12ce40,%eax
    6ab8:	85 c9                	test   %ecx,%ecx
    6aba:	74 0c                	je     6ac8 <scheme_eval+0x59>
    6abc:	8b 45 0c             	mov    0xc(%ebp),%eax
    6abf:	89 44 24 04          	mov    %eax,0x4(%esp)
    6ac3:	89 14 24             	mov    %edx,(%esp)
    6ac6:	ff d1                	call   *%ecx
    6ac8:	c9                   	leave  
    6ac9:	c3                   	ret    

00006aca <eval>:
    6aca:	55                   	push   %ebp
    6acb:	89 e5                	mov    %esp,%ebp
    6acd:	83 ec 18             	sub    $0x18,%esp
    6ad0:	8b 45 0c             	mov    0xc(%ebp),%eax
    6ad3:	8b 50 04             	mov    0x4(%eax),%edx
    6ad6:	89 54 24 04          	mov    %edx,0x4(%esp)
    6ada:	8b 00                	mov    (%eax),%eax
    6adc:	89 04 24             	mov    %eax,(%esp)
    6adf:	e8 8b ff ff ff       	call   6a6f <scheme_eval>
    6ae4:	c9                   	leave  
    6ae5:	c3                   	ret    

00006ae6 <scheme_eval_sequence>:
    6ae6:	55                   	push   %ebp
    6ae7:	89 e5                	mov    %esp,%ebp
    6ae9:	56                   	push   %esi
    6aea:	53                   	push   %ebx
    6aeb:	83 ec 10             	sub    $0x10,%esp
    6aee:	8b 5d 08             	mov    0x8(%ebp),%ebx
    6af1:	8b 75 0c             	mov    0xc(%ebp),%esi
    6af4:	b8 50 ce 12 00       	mov    $0x12ce50,%eax
    6af9:	39 c3                	cmp    %eax,%ebx
    6afb:	74 2f                	je     6b2c <scheme_eval_sequence+0x46>
    6afd:	39 43 08             	cmp    %eax,0x8(%ebx)
    6b00:	74 1b                	je     6b1d <scheme_eval_sequence+0x37>
    6b02:	89 74 24 04          	mov    %esi,0x4(%esp)
    6b06:	8b 43 04             	mov    0x4(%ebx),%eax
    6b09:	89 04 24             	mov    %eax,(%esp)
    6b0c:	e8 5e ff ff ff       	call   6a6f <scheme_eval>
    6b11:	8b 5b 08             	mov    0x8(%ebx),%ebx
    6b14:	81 7b 08 50 ce 12 00 	cmpl   $0x12ce50,0x8(%ebx)
    6b1b:	75 e5                	jne    6b02 <scheme_eval_sequence+0x1c>
    6b1d:	89 74 24 04          	mov    %esi,0x4(%esp)
    6b21:	8b 43 04             	mov    0x4(%ebx),%eax
    6b24:	89 04 24             	mov    %eax,(%esp)
    6b27:	e8 43 ff ff ff       	call   6a6f <scheme_eval>
    6b2c:	83 c4 10             	add    $0x10,%esp
    6b2f:	5b                   	pop    %ebx
    6b30:	5e                   	pop    %esi
    6b31:	5d                   	pop    %ebp
    6b32:	c3                   	ret    

00006b33 <_eval_or>:
    6b33:	55                   	push   %ebp
    6b34:	89 e5                	mov    %esp,%ebp
    6b36:	56                   	push   %esi
    6b37:	53                   	push   %ebx
    6b38:	83 ec 10             	sub    $0x10,%esp
    6b3b:	8b 5d 08             	mov    0x8(%ebp),%ebx
    6b3e:	8b 75 0c             	mov    0xc(%ebp),%esi
    6b41:	81 fb 50 ce 12 00    	cmp    $0x12ce50,%ebx
    6b47:	74 28                	je     6b71 <_eval_or+0x3e>
    6b49:	89 74 24 04          	mov    %esi,0x4(%esp)
    6b4d:	8b 43 04             	mov    0x4(%ebx),%eax
    6b50:	89 04 24             	mov    %eax,(%esp)
    6b53:	e8 17 ff ff ff       	call   6a6f <scheme_eval>
    6b58:	3d 80 ce 12 00       	cmp    $0x12ce80,%eax
    6b5d:	74 07                	je     6b66 <_eval_or+0x33>
    6b5f:	b8 94 ce 12 00       	mov    $0x12ce94,%eax
    6b64:	eb 10                	jmp    6b76 <_eval_or+0x43>
    6b66:	8b 5b 08             	mov    0x8(%ebx),%ebx
    6b69:	81 fb 50 ce 12 00    	cmp    $0x12ce50,%ebx
    6b6f:	75 d8                	jne    6b49 <_eval_or+0x16>
    6b71:	b8 80 ce 12 00       	mov    $0x12ce80,%eax
    6b76:	83 c4 10             	add    $0x10,%esp
    6b79:	5b                   	pop    %ebx
    6b7a:	5e                   	pop    %esi
    6b7b:	5d                   	pop    %ebp
    6b7c:	c3                   	ret    

00006b7d <_eval_and>:
    6b7d:	55                   	push   %ebp
    6b7e:	89 e5                	mov    %esp,%ebp
    6b80:	56                   	push   %esi
    6b81:	53                   	push   %ebx
    6b82:	83 ec 10             	sub    $0x10,%esp
    6b85:	8b 5d 08             	mov    0x8(%ebp),%ebx
    6b88:	8b 75 0c             	mov    0xc(%ebp),%esi
    6b8b:	81 fb 50 ce 12 00    	cmp    $0x12ce50,%ebx
    6b91:	74 28                	je     6bbb <_eval_and+0x3e>
    6b93:	89 74 24 04          	mov    %esi,0x4(%esp)
    6b97:	8b 43 04             	mov    0x4(%ebx),%eax
    6b9a:	89 04 24             	mov    %eax,(%esp)
    6b9d:	e8 cd fe ff ff       	call   6a6f <scheme_eval>
    6ba2:	3d 80 ce 12 00       	cmp    $0x12ce80,%eax
    6ba7:	75 07                	jne    6bb0 <_eval_and+0x33>
    6ba9:	b8 80 ce 12 00       	mov    $0x12ce80,%eax
    6bae:	eb 10                	jmp    6bc0 <_eval_and+0x43>
    6bb0:	8b 5b 08             	mov    0x8(%ebx),%ebx
    6bb3:	81 fb 50 ce 12 00    	cmp    $0x12ce50,%ebx
    6bb9:	75 d8                	jne    6b93 <_eval_and+0x16>
    6bbb:	b8 94 ce 12 00       	mov    $0x12ce94,%eax
    6bc0:	83 c4 10             	add    $0x10,%esp
    6bc3:	5b                   	pop    %ebx
    6bc4:	5e                   	pop    %esi
    6bc5:	5d                   	pop    %ebp
    6bc6:	c3                   	ret    

00006bc7 <_eval_cond>:
    6bc7:	55                   	push   %ebp
    6bc8:	89 e5                	mov    %esp,%ebp
    6bca:	57                   	push   %edi
    6bcb:	56                   	push   %esi
    6bcc:	53                   	push   %ebx
    6bcd:	83 ec 1c             	sub    $0x1c,%esp
    6bd0:	8b 5d 08             	mov    0x8(%ebp),%ebx
    6bd3:	8b 7d 0c             	mov    0xc(%ebp),%edi
    6bd6:	81 fb 50 ce 12 00    	cmp    $0x12ce50,%ebx
    6bdc:	74 4b                	je     6c29 <_eval_cond+0x62>
    6bde:	8b 73 04             	mov    0x4(%ebx),%esi
    6be1:	8b 46 04             	mov    0x4(%esi),%eax
    6be4:	3d 94 ce 12 00       	cmp    $0x12ce94,%eax
    6be9:	75 0f                	jne    6bfa <_eval_cond+0x33>
    6beb:	eb 20                	jmp    6c0d <_eval_cond+0x46>
    6bed:	8b 73 04             	mov    0x4(%ebx),%esi
    6bf0:	8b 46 04             	mov    0x4(%esi),%eax
    6bf3:	3d 94 ce 12 00       	cmp    $0x12ce94,%eax
    6bf8:	74 13                	je     6c0d <_eval_cond+0x46>
    6bfa:	89 7c 24 04          	mov    %edi,0x4(%esp)
    6bfe:	89 04 24             	mov    %eax,(%esp)
    6c01:	e8 69 fe ff ff       	call   6a6f <scheme_eval>
    6c06:	3d 80 ce 12 00       	cmp    $0x12ce80,%eax
    6c0b:	74 11                	je     6c1e <_eval_cond+0x57>
    6c0d:	89 7c 24 04          	mov    %edi,0x4(%esp)
    6c11:	8b 46 08             	mov    0x8(%esi),%eax
    6c14:	89 04 24             	mov    %eax,(%esp)
    6c17:	e8 ca fe ff ff       	call   6ae6 <scheme_eval_sequence>
    6c1c:	eb 10                	jmp    6c2e <_eval_cond+0x67>
    6c1e:	8b 5b 08             	mov    0x8(%ebx),%ebx
    6c21:	81 fb 50 ce 12 00    	cmp    $0x12ce50,%ebx
    6c27:	75 c4                	jne    6bed <_eval_cond+0x26>
    6c29:	b8 40 ce 12 00       	mov    $0x12ce40,%eax
    6c2e:	83 c4 1c             	add    $0x1c,%esp
    6c31:	5b                   	pop    %ebx
    6c32:	5e                   	pop    %esi
    6c33:	5f                   	pop    %edi
    6c34:	5d                   	pop    %ebp
    6c35:	c3                   	ret    

00006c36 <_eval_if>:
    6c36:	55                   	push   %ebp
    6c37:	89 e5                	mov    %esp,%ebp
    6c39:	83 ec 28             	sub    $0x28,%esp
    6c3c:	89 5d f4             	mov    %ebx,-0xc(%ebp)
    6c3f:	89 75 f8             	mov    %esi,-0x8(%ebp)
    6c42:	89 7d fc             	mov    %edi,-0x4(%ebp)
    6c45:	8b 45 08             	mov    0x8(%ebp),%eax
    6c48:	8b 5d 0c             	mov    0xc(%ebp),%ebx
    6c4b:	8b 50 08             	mov    0x8(%eax),%edx
    6c4e:	8b 72 04             	mov    0x4(%edx),%esi
    6c51:	8b 7a 08             	mov    0x8(%edx),%edi
    6c54:	89 5c 24 04          	mov    %ebx,0x4(%esp)
    6c58:	8b 40 04             	mov    0x4(%eax),%eax
    6c5b:	89 04 24             	mov    %eax,(%esp)
    6c5e:	e8 0c fe ff ff       	call   6a6f <scheme_eval>
    6c63:	3d 80 ce 12 00       	cmp    $0x12ce80,%eax
    6c68:	74 0e                	je     6c78 <_eval_if+0x42>
    6c6a:	89 5c 24 04          	mov    %ebx,0x4(%esp)
    6c6e:	89 34 24             	mov    %esi,(%esp)
    6c71:	e8 f9 fd ff ff       	call   6a6f <scheme_eval>
    6c76:	eb 0c                	jmp    6c84 <_eval_if+0x4e>
    6c78:	89 5c 24 04          	mov    %ebx,0x4(%esp)
    6c7c:	89 3c 24             	mov    %edi,(%esp)
    6c7f:	e8 eb fd ff ff       	call   6a6f <scheme_eval>
    6c84:	8b 5d f4             	mov    -0xc(%ebp),%ebx
    6c87:	8b 75 f8             	mov    -0x8(%ebp),%esi
    6c8a:	8b 7d fc             	mov    -0x4(%ebp),%edi
    6c8d:	89 ec                	mov    %ebp,%esp
    6c8f:	5d                   	pop    %ebp
    6c90:	c3                   	ret    

00006c91 <_analyze_quoted>:
    6c91:	55                   	push   %ebp
    6c92:	89 e5                	mov    %esp,%ebp
    6c94:	83 ec 18             	sub    $0x18,%esp
    6c97:	c7 04 24 10 00 00 00 	movl   $0x10,(%esp)
    6c9e:	e8 b1 04 00 00       	call   7154 <kmalloc>
    6ca3:	66 c7 00 1e 00       	movw   $0x1e,(%eax)
    6ca8:	8b 55 08             	mov    0x8(%ebp),%edx
    6cab:	8b 52 08             	mov    0x8(%edx),%edx
    6cae:	8b 52 04             	mov    0x4(%edx),%edx
    6cb1:	89 50 04             	mov    %edx,0x4(%eax)
    6cb4:	c9                   	leave  
    6cb5:	c3                   	ret    

00006cb6 <_eval_application>:
    6cb6:	55                   	push   %ebp
    6cb7:	89 e5                	mov    %esp,%ebp
    6cb9:	57                   	push   %edi
    6cba:	56                   	push   %esi
    6cbb:	53                   	push   %ebx
    6cbc:	83 ec 2c             	sub    $0x2c,%esp
    6cbf:	8b 5d 08             	mov    0x8(%ebp),%ebx
    6cc2:	8b 7d 0c             	mov    0xc(%ebp),%edi
    6cc5:	89 7c 24 04          	mov    %edi,0x4(%esp)
    6cc9:	8b 43 04             	mov    0x4(%ebx),%eax
    6ccc:	89 04 24             	mov    %eax,(%esp)
    6ccf:	e8 9b fd ff ff       	call   6a6f <scheme_eval>
    6cd4:	89 45 e0             	mov    %eax,-0x20(%ebp)
    6cd7:	3d 40 ce 12 00       	cmp    $0x12ce40,%eax
    6cdc:	75 13                	jne    6cf1 <_eval_application+0x3b>
    6cde:	c7 04 24 88 80 00 00 	movl   $0x8088,(%esp)
    6ce5:	e8 5a 08 00 00       	call   7544 <printf>
    6cea:	b8 40 ce 12 00       	mov    $0x12ce40,%eax
    6cef:	eb 62                	jmp    6d53 <_eval_application+0x9d>
    6cf1:	8b 5b 08             	mov    0x8(%ebx),%ebx
    6cf4:	c7 45 e4 50 ce 12 00 	movl   $0x12ce50,-0x1c(%ebp)
    6cfb:	81 fb 50 ce 12 00    	cmp    $0x12ce50,%ebx
    6d01:	75 58                	jne    6d5b <_eval_application+0xa5>
    6d03:	eb 3c                	jmp    6d41 <_eval_application+0x8b>
    6d05:	89 7c 24 04          	mov    %edi,0x4(%esp)
    6d09:	8b 43 04             	mov    0x4(%ebx),%eax
    6d0c:	89 04 24             	mov    %eax,(%esp)
    6d0f:	e8 5b fd ff ff       	call   6a6f <scheme_eval>
    6d14:	c7 44 24 04 50 ce 12 	movl   $0x12ce50,0x4(%esp)
    6d1b:	00 
    6d1c:	89 04 24             	mov    %eax,(%esp)
    6d1f:	e8 f5 d2 ff ff       	call   4019 <scheme_make_pair>
    6d24:	81 fe 50 ce 12 00    	cmp    $0x12ce50,%esi
    6d2a:	75 05                	jne    6d31 <_eval_application+0x7b>
    6d2c:	89 45 e4             	mov    %eax,-0x1c(%ebp)
    6d2f:	eb 03                	jmp    6d34 <_eval_application+0x7e>
    6d31:	89 46 08             	mov    %eax,0x8(%esi)
    6d34:	89 c6                	mov    %eax,%esi
    6d36:	8b 5b 08             	mov    0x8(%ebx),%ebx
    6d39:	81 fb 50 ce 12 00    	cmp    $0x12ce50,%ebx
    6d3f:	75 c4                	jne    6d05 <_eval_application+0x4f>
    6d41:	8b 45 e4             	mov    -0x1c(%ebp),%eax
    6d44:	89 44 24 04          	mov    %eax,0x4(%esp)
    6d48:	8b 45 e0             	mov    -0x20(%ebp),%eax
    6d4b:	89 04 24             	mov    %eax,(%esp)
    6d4e:	e8 17 f7 ff ff       	call   646a <scheme_apply>
    6d53:	83 c4 2c             	add    $0x2c,%esp
    6d56:	5b                   	pop    %ebx
    6d57:	5e                   	pop    %esi
    6d58:	5f                   	pop    %edi
    6d59:	5d                   	pop    %ebp
    6d5a:	c3                   	ret    
    6d5b:	89 7c 24 04          	mov    %edi,0x4(%esp)
    6d5f:	8b 43 04             	mov    0x4(%ebx),%eax
    6d62:	89 04 24             	mov    %eax,(%esp)
    6d65:	e8 05 fd ff ff       	call   6a6f <scheme_eval>
    6d6a:	c7 44 24 04 50 ce 12 	movl   $0x12ce50,0x4(%esp)
    6d71:	00 
    6d72:	89 04 24             	mov    %eax,(%esp)
    6d75:	e8 9f d2 ff ff       	call   4019 <scheme_make_pair>
    6d7a:	89 45 e4             	mov    %eax,-0x1c(%ebp)
    6d7d:	89 c6                	mov    %eax,%esi
    6d7f:	eb b5                	jmp    6d36 <_eval_application+0x80>

00006d81 <_eval_lambda>:
    6d81:	55                   	push   %ebp
    6d82:	89 e5                	mov    %esp,%ebp
    6d84:	83 ec 18             	sub    $0x18,%esp
    6d87:	8b 45 08             	mov    0x8(%ebp),%eax
    6d8a:	8b 55 0c             	mov    0xc(%ebp),%edx
    6d8d:	89 54 24 08          	mov    %edx,0x8(%esp)
    6d91:	8b 50 08             	mov    0x8(%eax),%edx
    6d94:	89 54 24 04          	mov    %edx,0x4(%esp)
    6d98:	8b 40 04             	mov    0x4(%eax),%eax
    6d9b:	89 04 24             	mov    %eax,(%esp)
    6d9e:	e8 eb f5 ff ff       	call   638e <scheme_make_procedure>
    6da3:	c9                   	leave  
    6da4:	c3                   	ret    

00006da5 <_eval_defun>:
    6da5:	55                   	push   %ebp
    6da6:	89 e5                	mov    %esp,%ebp
    6da8:	83 ec 18             	sub    $0x18,%esp
    6dab:	89 5d f8             	mov    %ebx,-0x8(%ebp)
    6dae:	89 75 fc             	mov    %esi,-0x4(%ebp)
    6db1:	8b 5d 08             	mov    0x8(%ebp),%ebx
    6db4:	8b 75 0c             	mov    0xc(%ebp),%esi
    6db7:	8b 43 08             	mov    0x8(%ebx),%eax
    6dba:	89 74 24 08          	mov    %esi,0x8(%esp)
    6dbe:	8b 50 08             	mov    0x8(%eax),%edx
    6dc1:	89 54 24 04          	mov    %edx,0x4(%esp)
    6dc5:	8b 40 04             	mov    0x4(%eax),%eax
    6dc8:	89 04 24             	mov    %eax,(%esp)
    6dcb:	e8 be f5 ff ff       	call   638e <scheme_make_procedure>
    6dd0:	89 74 24 08          	mov    %esi,0x8(%esp)
    6dd4:	89 44 24 04          	mov    %eax,0x4(%esp)
    6dd8:	8b 43 04             	mov    0x4(%ebx),%eax
    6ddb:	89 04 24             	mov    %eax,(%esp)
    6dde:	e8 47 f2 ff ff       	call   602a <scheme_define_var>
    6de3:	8b 5d f8             	mov    -0x8(%ebp),%ebx
    6de6:	8b 75 fc             	mov    -0x4(%ebp),%esi
    6de9:	89 ec                	mov    %ebp,%esp
    6deb:	5d                   	pop    %ebp
    6dec:	c3                   	ret    

00006ded <_eval_defvar>:
    6ded:	55                   	push   %ebp
    6dee:	89 e5                	mov    %esp,%ebp
    6df0:	83 ec 18             	sub    $0x18,%esp
    6df3:	89 5d f8             	mov    %ebx,-0x8(%ebp)
    6df6:	89 75 fc             	mov    %esi,-0x4(%ebp)
    6df9:	8b 5d 08             	mov    0x8(%ebp),%ebx
    6dfc:	8b 75 0c             	mov    0xc(%ebp),%esi
    6dff:	89 74 24 04          	mov    %esi,0x4(%esp)
    6e03:	8b 43 08             	mov    0x8(%ebx),%eax
    6e06:	89 04 24             	mov    %eax,(%esp)
    6e09:	e8 61 fc ff ff       	call   6a6f <scheme_eval>
    6e0e:	89 74 24 08          	mov    %esi,0x8(%esp)
    6e12:	89 44 24 04          	mov    %eax,0x4(%esp)
    6e16:	8b 43 04             	mov    0x4(%ebx),%eax
    6e19:	89 04 24             	mov    %eax,(%esp)
    6e1c:	e8 09 f2 ff ff       	call   602a <scheme_define_var>
    6e21:	8b 5d f8             	mov    -0x8(%ebp),%ebx
    6e24:	8b 75 fc             	mov    -0x4(%ebp),%esi
    6e27:	89 ec                	mov    %ebp,%esp
    6e29:	5d                   	pop    %ebp
    6e2a:	c3                   	ret    

00006e2b <_eval_assignment>:
    6e2b:	55                   	push   %ebp
    6e2c:	89 e5                	mov    %esp,%ebp
    6e2e:	83 ec 18             	sub    $0x18,%esp
    6e31:	89 5d f8             	mov    %ebx,-0x8(%ebp)
    6e34:	89 75 fc             	mov    %esi,-0x4(%ebp)
    6e37:	8b 5d 08             	mov    0x8(%ebp),%ebx
    6e3a:	8b 75 0c             	mov    0xc(%ebp),%esi
    6e3d:	89 74 24 04          	mov    %esi,0x4(%esp)
    6e41:	8b 43 08             	mov    0x8(%ebx),%eax
    6e44:	89 04 24             	mov    %eax,(%esp)
    6e47:	e8 23 fc ff ff       	call   6a6f <scheme_eval>
    6e4c:	89 74 24 08          	mov    %esi,0x8(%esp)
    6e50:	89 44 24 04          	mov    %eax,0x4(%esp)
    6e54:	8b 43 04             	mov    0x4(%ebx),%eax
    6e57:	89 04 24             	mov    %eax,(%esp)
    6e5a:	e8 67 f1 ff ff       	call   5fc6 <scheme_set_var>
    6e5f:	8b 5d f8             	mov    -0x8(%ebp),%ebx
    6e62:	8b 75 fc             	mov    -0x4(%ebp),%esi
    6e65:	89 ec                	mov    %ebp,%esp
    6e67:	5d                   	pop    %ebp
    6e68:	c3                   	ret    

00006e69 <_eval_variable>:
    6e69:	55                   	push   %ebp
    6e6a:	89 e5                	mov    %esp,%ebp
    6e6c:	83 ec 18             	sub    $0x18,%esp
    6e6f:	8b 45 0c             	mov    0xc(%ebp),%eax
    6e72:	89 44 24 04          	mov    %eax,0x4(%esp)
    6e76:	8b 45 08             	mov    0x8(%ebp),%eax
    6e79:	8b 40 04             	mov    0x4(%eax),%eax
    6e7c:	89 04 24             	mov    %eax,(%esp)
    6e7f:	e8 ec f0 ff ff       	call   5f70 <scheme_lookup_var>
    6e84:	c9                   	leave  
    6e85:	c3                   	ret    
    6e86:	90                   	nop
    6e87:	90                   	nop

00006e88 <scheme_driven_loop>:
    6e88:	55                   	push   %ebp
    6e89:	89 e5                	mov    %esp,%ebp
    6e8b:	5d                   	pop    %ebp
    6e8c:	c3                   	ret    

00006e8d <scheme_init>:
    6e8d:	55                   	push   %ebp
    6e8e:	89 e5                	mov    %esp,%ebp
    6e90:	83 ec 18             	sub    $0x18,%esp
    6e93:	c7 04 24 00 00 00 00 	movl   $0x0,(%esp)
    6e9a:	e8 e9 f3 ff ff       	call   6288 <scheme_init_env>
    6e9f:	c7 04 24 70 ce 12 00 	movl   $0x12ce70,(%esp)
    6ea6:	e8 4d df ff ff       	call   4df8 <scheme_init_read>
    6eab:	c7 04 24 70 ce 12 00 	movl   $0x12ce70,(%esp)
    6eb2:	e8 93 e2 ff ff       	call   514a <scheme_init_port>
    6eb7:	c7 04 24 70 ce 12 00 	movl   $0x12ce70,(%esp)
    6ebe:	e8 ad c7 ff ff       	call   3670 <scheme_init_bool>
    6ec3:	c7 04 24 70 ce 12 00 	movl   $0x12ce70,(%esp)
    6eca:	e8 a3 e8 ff ff       	call   5772 <scheme_init_number>
    6ecf:	c7 04 24 70 ce 12 00 	movl   $0x12ce70,(%esp)
    6ed6:	e8 9e cc ff ff       	call   3b79 <scheme_init_string>
    6edb:	c7 04 24 70 ce 12 00 	movl   $0x12ce70,(%esp)
    6ee2:	e8 58 d3 ff ff       	call   423f <scheme_init_list>
    6ee7:	c9                   	leave  
    6ee8:	c3                   	ret    
    6ee9:	90                   	nop
    6eea:	90                   	nop
    6eeb:	90                   	nop

00006eec <scheme_init_arch>:
    6eec:	55                   	push   %ebp
    6eed:	89 e5                	mov    %esp,%ebp
    6eef:	5d                   	pop    %ebp
    6ef0:	c3                   	ret    
    6ef1:	90                   	nop
    6ef2:	90                   	nop
    6ef3:	90                   	nop
    6ef4:	90                   	nop
    6ef5:	90                   	nop
    6ef6:	90                   	nop
    6ef7:	90                   	nop
    6ef8:	90                   	nop
    6ef9:	90                   	nop
    6efa:	90                   	nop
    6efb:	90                   	nop
    6efc:	90                   	nop
    6efd:	90                   	nop
    6efe:	90                   	nop
    6eff:	90                   	nop

00006f00 <_itoa>:
    6f00:	55                   	push   %ebp
    6f01:	89 e5                	mov    %esp,%ebp
    6f03:	8b 45 0c             	mov    0xc(%ebp),%eax
    6f06:	5d                   	pop    %ebp
    6f07:	c3                   	ret    

00006f08 <_itoaU>:
    6f08:	55                   	push   %ebp
    6f09:	89 e5                	mov    %esp,%ebp
    6f0b:	57                   	push   %edi
    6f0c:	56                   	push   %esi
    6f0d:	53                   	push   %ebx
    6f0e:	8b 4d 08             	mov    0x8(%ebp),%ecx
    6f11:	8b 45 10             	mov    0x10(%ebp),%eax
    6f14:	83 f8 08             	cmp    $0x8,%eax
    6f17:	0f 84 2e 01 00 00    	je     704b <_itoaU+0x143>
    6f1d:	83 f8 10             	cmp    $0x10,%eax
    6f20:	75 74                	jne    6f96 <_itoaU+0x8e>
    6f22:	8b 45 0c             	mov    0xc(%ebp),%eax
    6f25:	c6 00 30             	movb   $0x30,(%eax)
    6f28:	c6 40 01 00          	movb   $0x0,0x1(%eax)
    6f2c:	85 c9                	test   %ecx,%ecx
    6f2e:	0f 84 17 01 00 00    	je     704b <_itoaU+0x143>
    6f34:	b8 08 00 00 00       	mov    $0x8,%eax
    6f39:	f7 c1 00 00 00 f0    	test   $0xf0000000,%ecx
    6f3f:	74 0c                	je     6f4d <_itoaU+0x45>
    6f41:	ba 00 00 00 00       	mov    $0x0,%edx
    6f46:	89 c6                	mov    %eax,%esi
    6f48:	8b 7d 0c             	mov    0xc(%ebp),%edi
    6f4b:	eb 1b                	jmp    6f68 <_itoaU+0x60>
    6f4d:	c1 e1 04             	shl    $0x4,%ecx
    6f50:	83 e8 01             	sub    $0x1,%eax
    6f53:	f7 c1 00 00 00 f0    	test   $0xf0000000,%ecx
    6f59:	75 04                	jne    6f5f <_itoaU+0x57>
    6f5b:	85 c0                	test   %eax,%eax
    6f5d:	7f ee                	jg     6f4d <_itoaU+0x45>
    6f5f:	8b 5d 0c             	mov    0xc(%ebp),%ebx
    6f62:	85 c0                	test   %eax,%eax
    6f64:	75 db                	jne    6f41 <_itoaU+0x39>
    6f66:	eb 26                	jmp    6f8e <_itoaU+0x86>
    6f68:	89 cb                	mov    %ecx,%ebx
    6f6a:	c1 eb 1c             	shr    $0x1c,%ebx
    6f6d:	83 fb 09             	cmp    $0x9,%ebx
    6f70:	77 05                	ja     6f77 <_itoaU+0x6f>
    6f72:	83 c3 30             	add    $0x30,%ebx
    6f75:	eb 03                	jmp    6f7a <_itoaU+0x72>
    6f77:	83 c3 37             	add    $0x37,%ebx
    6f7a:	88 1c 17             	mov    %bl,(%edi,%edx,1)
    6f7d:	83 c2 01             	add    $0x1,%edx
    6f80:	89 f3                	mov    %esi,%ebx
    6f82:	39 d0                	cmp    %edx,%eax
    6f84:	74 05                	je     6f8b <_itoaU+0x83>
    6f86:	c1 e1 04             	shl    $0x4,%ecx
    6f89:	eb dd                	jmp    6f68 <_itoaU+0x60>
    6f8b:	03 5d 0c             	add    0xc(%ebp),%ebx
    6f8e:	c6 03 00             	movb   $0x0,(%ebx)
    6f91:	e9 b5 00 00 00       	jmp    704b <_itoaU+0x143>
    6f96:	8b 55 0c             	mov    0xc(%ebp),%edx
    6f99:	c6 02 30             	movb   $0x30,(%edx)
    6f9c:	89 d6                	mov    %edx,%esi
    6f9e:	83 c6 01             	add    $0x1,%esi
    6fa1:	c6 06 00             	movb   $0x0,(%esi)
    6fa4:	85 c9                	test   %ecx,%ecx
    6fa6:	0f 84 9f 00 00 00    	je     704b <_itoaU+0x143>
    6fac:	bf 00 00 00 00       	mov    $0x0,%edi
    6fb1:	bb 00 e1 f5 05       	mov    $0x5f5e100,%ebx
    6fb6:	81 f9 ff c9 9a 3b    	cmp    $0x3b9ac9ff,%ecx
    6fbc:	76 1e                	jbe    6fdc <_itoaU+0xd4>
    6fbe:	e9 90 00 00 00       	jmp    7053 <_itoaU+0x14b>
    6fc3:	b8 67 66 66 66       	mov    $0x66666667,%eax
    6fc8:	f7 eb                	imul   %ebx
    6fca:	c1 fa 02             	sar    $0x2,%edx
    6fcd:	c1 fb 1f             	sar    $0x1f,%ebx
    6fd0:	29 da                	sub    %ebx,%edx
    6fd2:	89 d3                	mov    %edx,%ebx
    6fd4:	83 c7 01             	add    $0x1,%edi
    6fd7:	83 ff 09             	cmp    $0x9,%edi
    6fda:	74 0d                	je     6fe9 <_itoaU+0xe1>
    6fdc:	89 c8                	mov    %ecx,%eax
    6fde:	ba 00 00 00 00       	mov    $0x0,%edx
    6fe3:	f7 f3                	div    %ebx
    6fe5:	85 c0                	test   %eax,%eax
    6fe7:	74 da                	je     6fc3 <_itoaU+0xbb>
    6fe9:	89 df                	mov    %ebx,%edi
    6feb:	89 c8                	mov    %ecx,%eax
    6fed:	ba 00 00 00 00       	mov    $0x0,%edx
    6ff2:	f7 f3                	div    %ebx
    6ff4:	83 c0 30             	add    $0x30,%eax
    6ff7:	8b 55 0c             	mov    0xc(%ebp),%edx
    6ffa:	88 02                	mov    %al,(%edx)
    6ffc:	ba 67 66 66 66       	mov    $0x66666667,%edx
    7001:	89 d8                	mov    %ebx,%eax
    7003:	f7 ea                	imul   %edx
    7005:	89 d3                	mov    %edx,%ebx
    7007:	c1 fb 02             	sar    $0x2,%ebx
    700a:	89 f8                	mov    %edi,%eax
    700c:	c1 f8 1f             	sar    $0x1f,%eax
    700f:	29 c3                	sub    %eax,%ebx
    7011:	74 35                	je     7048 <_itoaU+0x140>
    7013:	89 c8                	mov    %ecx,%eax
    7015:	ba 00 00 00 00       	mov    $0x0,%edx
    701a:	f7 f7                	div    %edi
    701c:	89 d1                	mov    %edx,%ecx
    701e:	bf 67 66 66 66       	mov    $0x66666667,%edi
    7023:	89 c8                	mov    %ecx,%eax
    7025:	ba 00 00 00 00       	mov    $0x0,%edx
    702a:	f7 f3                	div    %ebx
    702c:	89 c1                	mov    %eax,%ecx
    702e:	83 c1 30             	add    $0x30,%ecx
    7031:	88 0e                	mov    %cl,(%esi)
    7033:	83 c6 01             	add    $0x1,%esi
    7036:	89 d1                	mov    %edx,%ecx
    7038:	89 d8                	mov    %ebx,%eax
    703a:	f7 ef                	imul   %edi
    703c:	c1 fa 02             	sar    $0x2,%edx
    703f:	c1 fb 1f             	sar    $0x1f,%ebx
    7042:	29 da                	sub    %ebx,%edx
    7044:	89 d3                	mov    %edx,%ebx
    7046:	75 db                	jne    7023 <_itoaU+0x11b>
    7048:	c6 06 00             	movb   $0x0,(%esi)
    704b:	8b 45 0c             	mov    0xc(%ebp),%eax
    704e:	5b                   	pop    %ebx
    704f:	5e                   	pop    %esi
    7050:	5f                   	pop    %edi
    7051:	5d                   	pop    %ebp
    7052:	c3                   	ret    
    7053:	89 c8                	mov    %ecx,%eax
    7055:	c1 e8 09             	shr    $0x9,%eax
    7058:	ba 83 4b 04 00       	mov    $0x44b83,%edx
    705d:	f7 e2                	mul    %edx
    705f:	c1 ea 07             	shr    $0x7,%edx
    7062:	8d 42 30             	lea    0x30(%edx),%eax
    7065:	8b 5d 0c             	mov    0xc(%ebp),%ebx
    7068:	88 03                	mov    %al,(%ebx)
    706a:	69 d2 00 ca 9a 3b    	imul   $0x3b9aca00,%edx,%edx
    7070:	29 d1                	sub    %edx,%ecx
    7072:	bb 00 e1 f5 05       	mov    $0x5f5e100,%ebx
    7077:	eb a5                	jmp    701e <_itoaU+0x116>

00007079 <atol>:
    7079:	55                   	push   %ebp
    707a:	89 e5                	mov    %esp,%ebp
    707c:	83 ec 18             	sub    $0x18,%esp
    707f:	c7 44 24 08 0a 00 00 	movl   $0xa,0x8(%esp)
    7086:	00 
    7087:	c7 44 24 04 00 00 00 	movl   $0x0,0x4(%esp)
    708e:	00 
    708f:	8b 45 08             	mov    0x8(%ebp),%eax
    7092:	89 04 24             	mov    %eax,(%esp)
    7095:	e8 76 01 00 00       	call   7210 <strtol>
    709a:	c9                   	leave  
    709b:	c3                   	ret    

0000709c <atoi>:
    709c:	55                   	push   %ebp
    709d:	89 e5                	mov    %esp,%ebp
    709f:	83 ec 18             	sub    $0x18,%esp
    70a2:	c7 44 24 08 0a 00 00 	movl   $0xa,0x8(%esp)
    70a9:	00 
    70aa:	c7 44 24 04 00 00 00 	movl   $0x0,0x4(%esp)
    70b1:	00 
    70b2:	8b 45 08             	mov    0x8(%ebp),%eax
    70b5:	89 04 24             	mov    %eax,(%esp)
    70b8:	e8 53 01 00 00       	call   7210 <strtol>
    70bd:	c9                   	leave  
    70be:	c3                   	ret    
    70bf:	90                   	nop

000070c0 <kscm_init_heap>:
    70c0:	55                   	push   %ebp
    70c1:	89 e5                	mov    %esp,%ebp
    70c3:	c7 05 cc ba 11 00 fe 	movl   $0x1fe,0x11bacc
    70ca:	01 00 00 
    70cd:	c7 05 c8 ba 11 00 00 	movl   $0x800000,0x11bac8
    70d4:	00 80 00 
    70d7:	b8 00 00 80 00       	mov    $0x800000,%eax
    70dc:	c7 00 00 02 00 00    	movl   $0x200,(%eax)
    70e2:	c7 40 04 00 00 80 00 	movl   $0x800000,0x4(%eax)
    70e9:	5d                   	pop    %ebp
    70ea:	c3                   	ret    

000070eb <kfree>:
    70eb:	55                   	push   %ebp
    70ec:	89 e5                	mov    %esp,%ebp
    70ee:	56                   	push   %esi
    70ef:	53                   	push   %ebx
    70f0:	8b 4d 08             	mov    0x8(%ebp),%ecx
    70f3:	83 e9 08             	sub    $0x8,%ecx
    70f6:	a1 c8 ba 11 00       	mov    0x11bac8,%eax
    70fb:	eb 11                	jmp    710e <kfree+0x23>
    70fd:	8b 50 04             	mov    0x4(%eax),%edx
    7100:	39 d0                	cmp    %edx,%eax
    7102:	72 08                	jb     710c <kfree+0x21>
    7104:	39 c8                	cmp    %ecx,%eax
    7106:	72 0f                	jb     7117 <kfree+0x2c>
    7108:	39 d1                	cmp    %edx,%ecx
    710a:	72 0b                	jb     7117 <kfree+0x2c>
    710c:	89 d0                	mov    %edx,%eax
    710e:	39 c8                	cmp    %ecx,%eax
    7110:	73 eb                	jae    70fd <kfree+0x12>
    7112:	3b 48 04             	cmp    0x4(%eax),%ecx
    7115:	73 e6                	jae    70fd <kfree+0x12>
    7117:	89 c2                	mov    %eax,%edx
    7119:	8b 30                	mov    (%eax),%esi
    711b:	8d 1c f0             	lea    (%eax,%esi,8),%ebx
    711e:	39 cb                	cmp    %ecx,%ebx
    7120:	75 08                	jne    712a <kfree+0x3f>
    7122:	03 33                	add    (%ebx),%esi
    7124:	89 30                	mov    %esi,(%eax)
    7126:	89 c1                	mov    %eax,%ecx
    7128:	eb 03                	jmp    712d <kfree+0x42>
    712a:	89 48 04             	mov    %ecx,0x4(%eax)
    712d:	8b 31                	mov    (%ecx),%esi
    712f:	8d 1c f1             	lea    (%ecx,%esi,8),%ebx
    7132:	8b 42 04             	mov    0x4(%edx),%eax
    7135:	39 c3                	cmp    %eax,%ebx
    7137:	75 0f                	jne    7148 <kfree+0x5d>
    7139:	03 33                	add    (%ebx),%esi
    713b:	89 31                	mov    %esi,(%ecx)
    713d:	8b 42 04             	mov    0x4(%edx),%eax
    7140:	8b 40 04             	mov    0x4(%eax),%eax
    7143:	89 41 04             	mov    %eax,0x4(%ecx)
    7146:	eb 03                	jmp    714b <kfree+0x60>
    7148:	89 41 04             	mov    %eax,0x4(%ecx)
    714b:	5b                   	pop    %ebx
    714c:	5e                   	pop    %esi
    714d:	5d                   	pop    %ebp
    714e:	c3                   	ret    

0000714f <alloc_memory>:
    714f:	55                   	push   %ebp
    7150:	89 e5                	mov    %esp,%ebp
    7152:	5d                   	pop    %ebp
    7153:	c3                   	ret    

00007154 <kmalloc>:
    7154:	55                   	push   %ebp
    7155:	89 e5                	mov    %esp,%ebp
    7157:	57                   	push   %edi
    7158:	56                   	push   %esi
    7159:	53                   	push   %ebx
    715a:	83 ec 1c             	sub    $0x1c,%esp
    715d:	8b 7d 08             	mov    0x8(%ebp),%edi
    7160:	83 c7 07             	add    $0x7,%edi
    7163:	c1 ef 03             	shr    $0x3,%edi
    7166:	83 c7 01             	add    $0x1,%edi
    7169:	83 3d c8 ba 11 00 00 	cmpl   $0x0,0x11bac8
    7170:	75 1a                	jne    718c <kmalloc+0x38>
    7172:	c7 04 24 01 00 00 00 	movl   $0x1,(%esp)
    7179:	e8 07 07 00 00       	call   7885 <expand_region>
    717e:	a3 c8 ba 11 00       	mov    %eax,0x11bac8
    7183:	c7 00 00 02 00 00    	movl   $0x200,(%eax)
    7189:	89 40 04             	mov    %eax,0x4(%eax)
    718c:	8b 35 c8 ba 11 00    	mov    0x11bac8,%esi
    7192:	8b 46 04             	mov    0x4(%esi),%eax
    7195:	8b 10                	mov    (%eax),%edx
    7197:	89 c3                	mov    %eax,%ebx
    7199:	39 d7                	cmp    %edx,%edi
    719b:	77 2e                	ja     71cb <kmalloc+0x77>
    719d:	39 d7                	cmp    %edx,%edi
    719f:	75 18                	jne    71b9 <kmalloc+0x65>
    71a1:	8b 50 04             	mov    0x4(%eax),%edx
    71a4:	89 56 04             	mov    %edx,0x4(%esi)
    71a7:	39 c6                	cmp    %eax,%esi
    71a9:	75 17                	jne    71c2 <kmalloc+0x6e>
    71ab:	c7 05 c8 ba 11 00 00 	movl   $0x0,0x11bac8
    71b2:	00 00 00 
    71b5:	89 f0                	mov    %esi,%eax
    71b7:	eb 09                	jmp    71c2 <kmalloc+0x6e>
    71b9:	29 fa                	sub    %edi,%edx
    71bb:	89 10                	mov    %edx,(%eax)
    71bd:	8d 04 d0             	lea    (%eax,%edx,8),%eax
    71c0:	89 38                	mov    %edi,(%eax)
    71c2:	83 c0 08             	add    $0x8,%eax
    71c5:	eb 3a                	jmp    7201 <kmalloc+0xad>
    71c7:	89 de                	mov    %ebx,%esi
    71c9:	89 c3                	mov    %eax,%ebx
    71cb:	3b 1d c8 ba 11 00    	cmp    0x11bac8,%ebx
    71d1:	75 1c                	jne    71ef <kmalloc+0x9b>
    71d3:	c7 04 24 01 00 00 00 	movl   $0x1,(%esp)
    71da:	e8 a6 06 00 00       	call   7885 <expand_region>
    71df:	85 c0                	test   %eax,%eax
    71e1:	74 19                	je     71fc <kmalloc+0xa8>
    71e3:	89 46 04             	mov    %eax,0x4(%esi)
    71e6:	c7 00 00 02 00 00    	movl   $0x200,(%eax)
    71ec:	89 58 04             	mov    %ebx,0x4(%eax)
    71ef:	8b 43 04             	mov    0x4(%ebx),%eax
    71f2:	8b 10                	mov    (%eax),%edx
    71f4:	39 d7                	cmp    %edx,%edi
    71f6:	77 cf                	ja     71c7 <kmalloc+0x73>
    71f8:	89 de                	mov    %ebx,%esi
    71fa:	eb a1                	jmp    719d <kmalloc+0x49>
    71fc:	b8 00 00 00 00       	mov    $0x0,%eax
    7201:	83 c4 1c             	add    $0x1c,%esp
    7204:	5b                   	pop    %ebx
    7205:	5e                   	pop    %esi
    7206:	5f                   	pop    %edi
    7207:	5d                   	pop    %ebp
    7208:	c3                   	ret    
    7209:	90                   	nop
    720a:	90                   	nop
    720b:	90                   	nop
    720c:	90                   	nop
    720d:	90                   	nop
    720e:	90                   	nop
    720f:	90                   	nop

00007210 <strtol>:
    7210:	55                   	push   %ebp
    7211:	89 e5                	mov    %esp,%ebp
    7213:	57                   	push   %edi
    7214:	56                   	push   %esi
    7215:	53                   	push   %ebx
    7216:	83 ec 18             	sub    $0x18,%esp
    7219:	8b 5d 10             	mov    0x10(%ebp),%ebx
    721c:	85 db                	test   %ebx,%ebx
    721e:	78 0a                	js     722a <strtol+0x1a>
    7220:	83 fb 01             	cmp    $0x1,%ebx
    7223:	74 05                	je     722a <strtol+0x1a>
    7225:	83 fb 24             	cmp    $0x24,%ebx
    7228:	7e 05                	jle    722f <strtol+0x1f>
    722a:	bb 0a 00 00 00       	mov    $0xa,%ebx
    722f:	8b 4d 08             	mov    0x8(%ebp),%ecx
    7232:	eb 03                	jmp    7237 <strtol+0x27>
    7234:	83 c1 01             	add    $0x1,%ecx
    7237:	0f b6 01             	movzbl (%ecx),%eax
    723a:	3c 0b                	cmp    $0xb,%al
    723c:	74 f6                	je     7234 <strtol+0x24>
    723e:	3c 09                	cmp    $0x9,%al
    7240:	74 f2                	je     7234 <strtol+0x24>
    7242:	3c 20                	cmp    $0x20,%al
    7244:	74 ee                	je     7234 <strtol+0x24>
    7246:	3c 0a                	cmp    $0xa,%al
    7248:	74 ea                	je     7234 <strtol+0x24>
    724a:	3c 0d                	cmp    $0xd,%al
    724c:	8d 74 26 00          	lea    0x0(%esi,%eiz,1),%esi
    7250:	74 e2                	je     7234 <strtol+0x24>
    7252:	3c 0c                	cmp    $0xc,%al
    7254:	74 de                	je     7234 <strtol+0x24>
    7256:	84 c0                	test   %al,%al
    7258:	0f 84 2a 01 00 00    	je     7388 <strtol+0x178>
    725e:	3c 2d                	cmp    $0x2d,%al
    7260:	75 0c                	jne    726e <strtol+0x5e>
    7262:	8d 49 01             	lea    0x1(%ecx),%ecx
    7265:	c7 45 e8 01 00 00 00 	movl   $0x1,-0x18(%ebp)
    726c:	eb 0e                	jmp    727c <strtol+0x6c>
    726e:	c7 45 e8 00 00 00 00 	movl   $0x0,-0x18(%ebp)
    7275:	3c 2b                	cmp    $0x2b,%al
    7277:	75 03                	jne    727c <strtol+0x6c>
    7279:	8d 49 01             	lea    0x1(%ecx),%ecx
    727c:	83 fb 10             	cmp    $0x10,%ebx
    727f:	75 11                	jne    7292 <strtol+0x82>
    7281:	80 39 30             	cmpb   $0x30,(%ecx)
    7284:	75 0c                	jne    7292 <strtol+0x82>
    7286:	80 79 01 58          	cmpb   $0x58,0x1(%ecx)
    728a:	75 1e                	jne    72aa <strtol+0x9a>
    728c:	83 c1 02             	add    $0x2,%ecx
    728f:	90                   	nop
    7290:	eb 18                	jmp    72aa <strtol+0x9a>
    7292:	85 db                	test   %ebx,%ebx
    7294:	75 14                	jne    72aa <strtol+0x9a>
    7296:	b3 0a                	mov    $0xa,%bl
    7298:	80 39 30             	cmpb   $0x30,(%ecx)
    729b:	75 0d                	jne    72aa <strtol+0x9a>
    729d:	b3 08                	mov    $0x8,%bl
    729f:	80 79 01 58          	cmpb   $0x58,0x1(%ecx)
    72a3:	75 05                	jne    72aa <strtol+0x9a>
    72a5:	83 c1 02             	add    $0x2,%ecx
    72a8:	b3 10                	mov    $0x10,%bl
    72aa:	89 5d ec             	mov    %ebx,-0x14(%ebp)
    72ad:	b8 ff ff ff ff       	mov    $0xffffffff,%eax
    72b2:	ba 00 00 00 00       	mov    $0x0,%edx
    72b7:	f7 f3                	div    %ebx
    72b9:	89 55 e4             	mov    %edx,-0x1c(%ebp)
    72bc:	89 c7                	mov    %eax,%edi
    72be:	0f b6 01             	movzbl (%ecx),%eax
    72c1:	84 c0                	test   %al,%al
    72c3:	0f 84 bf 00 00 00    	je     7388 <strtol+0x178>
    72c9:	83 e8 30             	sub    $0x30,%eax
    72cc:	3c 09                	cmp    $0x9,%al
    72ce:	0f 87 b4 00 00 00    	ja     7388 <strtol+0x178>
    72d4:	0f b6 d0             	movzbl %al,%edx
    72d7:	39 d3                	cmp    %edx,%ebx
    72d9:	0f 8e a9 00 00 00    	jle    7388 <strtol+0x178>
    72df:	89 ca                	mov    %ecx,%edx
    72e1:	c7 45 f0 00 00 00 00 	movl   $0x0,-0x10(%ebp)
    72e8:	be 00 00 00 00       	mov    $0x0,%esi
    72ed:	89 7d dc             	mov    %edi,-0x24(%ebp)
    72f0:	89 4d e0             	mov    %ecx,-0x20(%ebp)
    72f3:	eb 0e                	jmp    7303 <strtol+0xf3>
    72f5:	83 e8 30             	sub    $0x30,%eax
    72f8:	3c 09                	cmp    $0x9,%al
    72fa:	77 42                	ja     733e <strtol+0x12e>
    72fc:	0f b6 c8             	movzbl %al,%ecx
    72ff:	39 cb                	cmp    %ecx,%ebx
    7301:	7e 3b                	jle    733e <strtol+0x12e>
    7303:	39 fe                	cmp    %edi,%esi
    7305:	76 0b                	jbe    7312 <strtol+0x102>
    7307:	c7 45 f0 01 00 00 00 	movl   $0x1,-0x10(%ebp)
    730e:	66 90                	xchg   %ax,%ax
    7310:	eb 22                	jmp    7334 <strtol+0x124>
    7312:	39 fe                	cmp    %edi,%esi
    7314:	75 14                	jne    732a <strtol+0x11a>
    7316:	0f b6 c8             	movzbl %al,%ecx
    7319:	39 4d e4             	cmp    %ecx,-0x1c(%ebp)
    731c:	73 0c                	jae    732a <strtol+0x11a>
    731e:	8b 75 dc             	mov    -0x24(%ebp),%esi
    7321:	c7 45 f0 01 00 00 00 	movl   $0x1,-0x10(%ebp)
    7328:	eb 0a                	jmp    7334 <strtol+0x124>
    732a:	0f af 75 ec          	imul   -0x14(%ebp),%esi
    732e:	0f b6 c0             	movzbl %al,%eax
    7331:	8d 34 30             	lea    (%eax,%esi,1),%esi
    7334:	83 c2 01             	add    $0x1,%edx
    7337:	0f b6 02             	movzbl (%edx),%eax
    733a:	84 c0                	test   %al,%al
    733c:	75 b7                	jne    72f5 <strtol+0xe5>
    733e:	8b 4d e0             	mov    -0x20(%ebp),%ecx
    7341:	39 d1                	cmp    %edx,%ecx
    7343:	74 43                	je     7388 <strtol+0x178>
    7345:	83 7d 0c 00          	cmpl   $0x0,0xc(%ebp)
    7349:	74 05                	je     7350 <strtol+0x140>
    734b:	8b 45 0c             	mov    0xc(%ebp),%eax
    734e:	89 10                	mov    %edx,(%eax)
    7350:	83 7d e8 01          	cmpl   $0x1,-0x18(%ebp)
    7354:	19 c0                	sbb    %eax,%eax
    7356:	2d 00 00 00 80       	sub    $0x80000000,%eax
    735b:	39 f0                	cmp    %esi,%eax
    735d:	72 06                	jb     7365 <strtol+0x155>
    735f:	83 7d f0 00          	cmpl   $0x0,-0x10(%ebp)
    7363:	74 17                	je     737c <strtol+0x16c>
    7365:	c7 05 a4 ce 12 00 00 	movl   $0x0,0x12cea4
    736c:	00 00 00 
    736f:	83 7d e8 01          	cmpl   $0x1,-0x18(%ebp)
    7373:	19 c0                	sbb    %eax,%eax
    7375:	2d 00 00 00 80       	sub    $0x80000000,%eax
    737a:	eb 24                	jmp    73a0 <strtol+0x190>
    737c:	89 f0                	mov    %esi,%eax
    737e:	83 7d e8 00          	cmpl   $0x0,-0x18(%ebp)
    7382:	74 1c                	je     73a0 <strtol+0x190>
    7384:	f7 d8                	neg    %eax
    7386:	eb 18                	jmp    73a0 <strtol+0x190>
    7388:	b8 00 00 00 00       	mov    $0x0,%eax
    738d:	83 7d 0c 00          	cmpl   $0x0,0xc(%ebp)
    7391:	74 0d                	je     73a0 <strtol+0x190>
    7393:	8b 45 08             	mov    0x8(%ebp),%eax
    7396:	8b 55 0c             	mov    0xc(%ebp),%edx
    7399:	89 02                	mov    %eax,(%edx)
    739b:	b8 00 00 00 00       	mov    $0x0,%eax
    73a0:	83 c4 18             	add    $0x18,%esp
    73a3:	5b                   	pop    %ebx
    73a4:	5e                   	pop    %esi
    73a5:	5f                   	pop    %edi
    73a6:	5d                   	pop    %ebp
    73a7:	c3                   	ret    

000073a8 <memset>:
    73a8:	55                   	push   %ebp
    73a9:	89 e5                	mov    %esp,%ebp
    73ab:	57                   	push   %edi
    73ac:	8b 7d 08             	mov    0x8(%ebp),%edi
    73af:	8b 55 10             	mov    0x10(%ebp),%edx
    73b2:	0f b6 45 0c          	movzbl 0xc(%ebp),%eax
    73b6:	89 c1                	mov    %eax,%ecx
    73b8:	c1 e1 08             	shl    $0x8,%ecx
    73bb:	09 c8                	or     %ecx,%eax
    73bd:	89 c1                	mov    %eax,%ecx
    73bf:	c1 e1 10             	shl    $0x10,%ecx
    73c2:	09 c8                	or     %ecx,%eax
    73c4:	89 d1                	mov    %edx,%ecx
    73c6:	83 e1 fc             	and    $0xfffffffc,%ecx
    73c9:	83 e2 03             	and    $0x3,%edx
    73cc:	57                   	push   %edi
    73cd:	51                   	push   %ecx
    73ce:	fc                   	cld    
    73cf:	f3 ab                	rep stos %eax,%es:(%edi)
    73d1:	89 d1                	mov    %edx,%ecx
    73d3:	f3 aa                	rep stos %al,%es:(%edi)
    73d5:	59                   	pop    %ecx
    73d6:	5f                   	pop    %edi
    73d7:	89 f8                	mov    %edi,%eax
    73d9:	5f                   	pop    %edi
    73da:	5d                   	pop    %ebp
    73db:	c3                   	ret    
    73dc:	90                   	nop
    73dd:	90                   	nop
    73de:	90                   	nop
    73df:	90                   	nop

000073e0 <vsprintf>:
    73e0:	55                   	push   %ebp
    73e1:	89 e5                	mov    %esp,%ebp
    73e3:	57                   	push   %edi
    73e4:	56                   	push   %esi
    73e5:	53                   	push   %ebx
    73e6:	83 ec 2c             	sub    $0x2c,%esp
    73e9:	8b 5d 08             	mov    0x8(%ebp),%ebx
    73ec:	8b 7d 0c             	mov    0xc(%ebp),%edi
    73ef:	8b 55 10             	mov    0x10(%ebp),%edx
    73f2:	0f b6 07             	movzbl (%edi),%eax
    73f5:	be 00 00 00 00       	mov    $0x0,%esi
    73fa:	84 c0                	test   %al,%al
    73fc:	0f 84 14 01 00 00    	je     7516 <vsprintf+0x136>
    7402:	3c 25                	cmp    $0x25,%al
    7404:	74 10                	je     7416 <vsprintf+0x36>
    7406:	88 03                	mov    %al,(%ebx)
    7408:	83 c3 01             	add    $0x1,%ebx
    740b:	83 c6 01             	add    $0x1,%esi
    740e:	89 55 e4             	mov    %edx,-0x1c(%ebp)
    7411:	e9 ee 00 00 00       	jmp    7504 <vsprintf+0x124>
    7416:	83 c7 01             	add    $0x1,%edi
    7419:	0f b6 07             	movzbl (%edi),%eax
    741c:	3c 69                	cmp    $0x69,%al
    741e:	74 47                	je     7467 <vsprintf+0x87>
    7420:	3c 69                	cmp    $0x69,%al
    7422:	7f 16                	jg     743a <vsprintf+0x5a>
    7424:	3c 63                	cmp    $0x63,%al
    7426:	74 6e                	je     7496 <vsprintf+0xb6>
    7428:	3c 64                	cmp    $0x64,%al
    742a:	74 3b                	je     7467 <vsprintf+0x87>
    742c:	3c 25                	cmp    $0x25,%al
    742e:	66 90                	xchg   %ax,%ax
    7430:	75 1c                	jne    744e <vsprintf+0x6e>
    7432:	8d b6 00 00 00 00    	lea    0x0(%esi),%esi
    7438:	eb 1c                	jmp    7456 <vsprintf+0x76>
    743a:	3c 73                	cmp    $0x73,%al
    743c:	8d 74 26 00          	lea    0x0(%esi,%eiz,1),%esi
    7440:	74 67                	je     74a9 <vsprintf+0xc9>
    7442:	3c 78                	cmp    $0x78,%al
    7444:	8d 74 26 00          	lea    0x0(%esi,%eiz,1),%esi
    7448:	0f 84 89 00 00 00    	je     74d7 <vsprintf+0xf7>
    744e:	89 55 e4             	mov    %edx,-0x1c(%ebp)
    7451:	e9 ae 00 00 00       	jmp    7504 <vsprintf+0x124>
    7456:	c6 03 25             	movb   $0x25,(%ebx)
    7459:	83 c3 01             	add    $0x1,%ebx
    745c:	83 c6 01             	add    $0x1,%esi
    745f:	89 55 e4             	mov    %edx,-0x1c(%ebp)
    7462:	e9 9d 00 00 00       	jmp    7504 <vsprintf+0x124>
    7467:	83 c2 04             	add    $0x4,%edx
    746a:	89 55 e4             	mov    %edx,-0x1c(%ebp)
    746d:	c7 44 24 08 0a 00 00 	movl   $0xa,0x8(%esp)
    7474:	00 
    7475:	89 5c 24 04          	mov    %ebx,0x4(%esp)
    7479:	8b 42 fc             	mov    -0x4(%edx),%eax
    747c:	89 04 24             	mov    %eax,(%esp)
    747f:	e8 84 fa ff ff       	call   6f08 <_itoaU>
    7484:	80 3b 00             	cmpb   $0x0,(%ebx)
    7487:	74 7b                	je     7504 <vsprintf+0x124>
    7489:	83 c3 01             	add    $0x1,%ebx
    748c:	83 c6 01             	add    $0x1,%esi
    748f:	80 3b 00             	cmpb   $0x0,(%ebx)
    7492:	75 f5                	jne    7489 <vsprintf+0xa9>
    7494:	eb 6e                	jmp    7504 <vsprintf+0x124>
    7496:	8d 42 04             	lea    0x4(%edx),%eax
    7499:	89 45 e4             	mov    %eax,-0x1c(%ebp)
    749c:	0f b6 02             	movzbl (%edx),%eax
    749f:	88 03                	mov    %al,(%ebx)
    74a1:	83 c3 01             	add    $0x1,%ebx
    74a4:	83 c6 01             	add    $0x1,%esi
    74a7:	eb 5b                	jmp    7504 <vsprintf+0x124>
    74a9:	83 c2 04             	add    $0x4,%edx
    74ac:	89 55 e4             	mov    %edx,-0x1c(%ebp)
    74af:	8b 42 fc             	mov    -0x4(%edx),%eax
    74b2:	0f b6 10             	movzbl (%eax),%edx
    74b5:	88 13                	mov    %dl,(%ebx)
    74b7:	84 d2                	test   %dl,%dl
    74b9:	74 49                	je     7504 <vsprintf+0x124>
    74bb:	83 c3 01             	add    $0x1,%ebx
    74be:	83 c0 01             	add    $0x1,%eax
    74c1:	83 c6 01             	add    $0x1,%esi
    74c4:	0f b6 10             	movzbl (%eax),%edx
    74c7:	88 13                	mov    %dl,(%ebx)
    74c9:	8d 4b 01             	lea    0x1(%ebx),%ecx
    74cc:	83 c0 01             	add    $0x1,%eax
    74cf:	84 d2                	test   %dl,%dl
    74d1:	74 31                	je     7504 <vsprintf+0x124>
    74d3:	89 cb                	mov    %ecx,%ebx
    74d5:	eb ea                	jmp    74c1 <vsprintf+0xe1>
    74d7:	83 c2 04             	add    $0x4,%edx
    74da:	89 55 e4             	mov    %edx,-0x1c(%ebp)
    74dd:	c7 44 24 08 10 00 00 	movl   $0x10,0x8(%esp)
    74e4:	00 
    74e5:	89 5c 24 04          	mov    %ebx,0x4(%esp)
    74e9:	8b 42 fc             	mov    -0x4(%edx),%eax
    74ec:	89 04 24             	mov    %eax,(%esp)
    74ef:	e8 14 fa ff ff       	call   6f08 <_itoaU>
    74f4:	80 3b 00             	cmpb   $0x0,(%ebx)
    74f7:	74 0b                	je     7504 <vsprintf+0x124>
    74f9:	83 c3 01             	add    $0x1,%ebx
    74fc:	83 c6 01             	add    $0x1,%esi
    74ff:	80 3b 00             	cmpb   $0x0,(%ebx)
    7502:	75 f5                	jne    74f9 <vsprintf+0x119>
    7504:	83 c7 01             	add    $0x1,%edi
    7507:	0f b6 07             	movzbl (%edi),%eax
    750a:	84 c0                	test   %al,%al
    750c:	74 08                	je     7516 <vsprintf+0x136>
    750e:	8b 55 e4             	mov    -0x1c(%ebp),%edx
    7511:	e9 ec fe ff ff       	jmp    7402 <vsprintf+0x22>
    7516:	c6 03 00             	movb   $0x0,(%ebx)
    7519:	89 f0                	mov    %esi,%eax
    751b:	83 c4 2c             	add    $0x2c,%esp
    751e:	5b                   	pop    %ebx
    751f:	5e                   	pop    %esi
    7520:	5f                   	pop    %edi
    7521:	5d                   	pop    %ebp
    7522:	c3                   	ret    

00007523 <sprintf>:
    7523:	55                   	push   %ebp
    7524:	89 e5                	mov    %esp,%ebp
    7526:	83 ec 18             	sub    $0x18,%esp
    7529:	8d 45 10             	lea    0x10(%ebp),%eax
    752c:	89 44 24 08          	mov    %eax,0x8(%esp)
    7530:	8b 45 0c             	mov    0xc(%ebp),%eax
    7533:	89 44 24 04          	mov    %eax,0x4(%esp)
    7537:	8b 45 08             	mov    0x8(%ebp),%eax
    753a:	89 04 24             	mov    %eax,(%esp)
    753d:	e8 9e fe ff ff       	call   73e0 <vsprintf>
    7542:	c9                   	leave  
    7543:	c3                   	ret    

00007544 <printf>:
    7544:	55                   	push   %ebp
    7545:	89 e5                	mov    %esp,%ebp
    7547:	53                   	push   %ebx
    7548:	83 ec 14             	sub    $0x14,%esp
    754b:	8d 45 0c             	lea    0xc(%ebp),%eax
    754e:	89 44 24 08          	mov    %eax,0x8(%esp)
    7552:	8b 45 08             	mov    0x8(%ebp),%eax
    7555:	89 44 24 04          	mov    %eax,0x4(%esp)
    7559:	c7 04 24 e0 ba 11 00 	movl   $0x11bae0,(%esp)
    7560:	e8 7b fe ff ff       	call   73e0 <vsprintf>
    7565:	89 c3                	mov    %eax,%ebx
    7567:	c7 04 24 e0 ba 11 00 	movl   $0x11bae0,(%esp)
    756e:	e8 d6 bc ff ff       	call   3249 <console_print>
    7573:	89 d8                	mov    %ebx,%eax
    7575:	83 c4 14             	add    $0x14,%esp
    7578:	5b                   	pop    %ebx
    7579:	5d                   	pop    %ebp
    757a:	c3                   	ret    
    757b:	90                   	nop
    757c:	90                   	nop
    757d:	90                   	nop
    757e:	90                   	nop
    757f:	90                   	nop

00007580 <clear_page>:
    7580:	55                   	push   %ebp
    7581:	89 e5                	mov    %esp,%ebp
    7583:	8d 90 00 10 00 00    	lea    0x1000(%eax),%edx
    7589:	c7 00 00 00 00 00    	movl   $0x0,(%eax)
    758f:	83 c0 04             	add    $0x4,%eax
    7592:	39 d0                	cmp    %edx,%eax
    7594:	75 f3                	jne    7589 <clear_page+0x9>
    7596:	5d                   	pop    %ebp
    7597:	c3                   	ret    

00007598 <get_free_frame>:
    7598:	55                   	push   %ebp
    7599:	89 e5                	mov    %esp,%ebp
    759b:	53                   	push   %ebx
    759c:	b8 01 00 00 00       	mov    $0x1,%eax
    75a1:	ba 00 bf 11 00       	mov    $0x11bf00,%edx
    75a6:	83 3d 00 bf 11 00 00 	cmpl   $0x0,0x11bf00
    75ad:	74 0e                	je     75bd <get_free_frame+0x25>
    75af:	b0 00                	mov    $0x0,%al
    75b1:	eb 17                	jmp    75ca <get_free_frame+0x32>
    75b3:	83 c0 01             	add    $0x1,%eax
    75b6:	3d c0 3f 00 00       	cmp    $0x3fc0,%eax
    75bb:	74 54                	je     7611 <get_free_frame+0x79>
    75bd:	83 3c 82 00          	cmpl   $0x0,(%edx,%eax,4)
    75c1:	74 f0                	je     75b3 <get_free_frame+0x1b>
    75c3:	3d c0 3f 00 00       	cmp    $0x3fc0,%eax
    75c8:	74 47                	je     7611 <get_free_frame+0x79>
    75ca:	8b 1c 85 00 bf 11 00 	mov    0x11bf00(,%eax,4),%ebx
    75d1:	b9 02 00 00 00       	mov    $0x2,%ecx
    75d6:	ba 01 00 00 00       	mov    $0x1,%edx
    75db:	f6 c3 01             	test   $0x1,%bl
    75de:	74 06                	je     75e6 <get_free_frame+0x4e>
    75e0:	b1 01                	mov    $0x1,%cl
    75e2:	b2 00                	mov    $0x0,%dl
    75e4:	eb 04                	jmp    75ea <get_free_frame+0x52>
    75e6:	85 d9                	test   %ebx,%ecx
    75e8:	74 0d                	je     75f7 <get_free_frame+0x5f>
    75ea:	f7 d1                	not    %ecx
    75ec:	21 cb                	and    %ecx,%ebx
    75ee:	89 1c 85 00 bf 11 00 	mov    %ebx,0x11bf00(,%eax,4)
    75f5:	eb 0a                	jmp    7601 <get_free_frame+0x69>
    75f7:	83 c2 01             	add    $0x1,%edx
    75fa:	01 c9                	add    %ecx,%ecx
    75fc:	83 fa 20             	cmp    $0x20,%edx
    75ff:	75 e5                	jne    75e6 <get_free_frame+0x4e>
    7601:	c1 e0 05             	shl    $0x5,%eax
    7604:	8d 04 02             	lea    (%edx,%eax,1),%eax
    7607:	c1 e0 0c             	shl    $0xc,%eax
    760a:	05 00 00 80 00       	add    $0x800000,%eax
    760f:	eb 05                	jmp    7616 <get_free_frame+0x7e>
    7611:	b8 00 00 00 00       	mov    $0x0,%eax
    7616:	5b                   	pop    %ebx
    7617:	5d                   	pop    %ebp
    7618:	c3                   	ret    

00007619 <free_frame>:
    7619:	55                   	push   %ebp
    761a:	89 e5                	mov    %esp,%ebp
    761c:	8b 45 08             	mov    0x8(%ebp),%eax
    761f:	2d 00 00 80 00       	sub    $0x800000,%eax
    7624:	89 c1                	mov    %eax,%ecx
    7626:	c1 e9 0c             	shr    $0xc,%ecx
    7629:	c1 e8 11             	shr    $0x11,%eax
    762c:	83 e1 1f             	and    $0x1f,%ecx
    762f:	ba 01 00 00 00       	mov    $0x1,%edx
    7634:	d3 e2                	shl    %cl,%edx
    7636:	09 14 85 00 bf 11 00 	or     %edx,0x11bf00(,%eax,4)
    763d:	5d                   	pop    %ebp
    763e:	c3                   	ret    

0000763f <put_page>:
    763f:	55                   	push   %ebp
    7640:	89 e5                	mov    %esp,%ebp
    7642:	83 ec 14             	sub    $0x14,%esp
    7645:	89 5d f4             	mov    %ebx,-0xc(%ebp)
    7648:	89 75 f8             	mov    %esi,-0x8(%ebp)
    764b:	89 7d fc             	mov    %edi,-0x4(%ebp)
    764e:	8b 5d 08             	mov    0x8(%ebp),%ebx
    7651:	8b 75 0c             	mov    0xc(%ebp),%esi
    7654:	81 fe ff ff 7f 00    	cmp    $0x7fffff,%esi
    765a:	0f 86 93 00 00 00    	jbe    76f3 <put_page+0xb4>
    7660:	3b 35 e0 be 11 00    	cmp    0x11bee0,%esi
    7666:	0f 83 87 00 00 00    	jae    76f3 <put_page+0xb4>
    766c:	89 5d f0             	mov    %ebx,-0x10(%ebp)
    766f:	89 d8                	mov    %ebx,%eax
    7671:	c1 e8 16             	shr    $0x16,%eax
    7674:	8d 3c 85 00 00 00 00 	lea    0x0(,%eax,4),%edi
    767b:	8b 07                	mov    (%edi),%eax
    767d:	85 c0                	test   %eax,%eax
    767f:	75 31                	jne    76b2 <put_page+0x73>
    7681:	e8 12 ff ff ff       	call   7598 <get_free_frame>
    7686:	89 c2                	mov    %eax,%edx
    7688:	83 ca 03             	or     $0x3,%edx
    768b:	89 17                	mov    %edx,(%edi)
    768d:	89 c2                	mov    %eax,%edx
    768f:	81 e2 00 00 c0 ff    	and    $0xffc00000,%edx
    7695:	80 ca 87             	or     $0x87,%dl
    7698:	89 15 fc 03 00 00    	mov    %edx,0x3fc
    769e:	25 ff ff 3f 00       	and    $0x3fffff,%eax
    76a3:	0d 00 00 c0 3f       	or     $0x3fc00000,%eax
    76a8:	89 45 ec             	mov    %eax,-0x14(%ebp)
    76ab:	e8 d0 fe ff ff       	call   7580 <clear_page>
    76b0:	eb 23                	jmp    76d5 <put_page+0x96>
    76b2:	f6 07 01             	testb  $0x1,(%edi)
    76b5:	74 1e                	je     76d5 <put_page+0x96>
    76b7:	89 c2                	mov    %eax,%edx
    76b9:	81 e2 00 00 c0 ff    	and    $0xffc00000,%edx
    76bf:	80 ca 87             	or     $0x87,%dl
    76c2:	89 15 fc 03 00 00    	mov    %edx,0x3fc
    76c8:	25 00 f0 3f 00       	and    $0x3ff000,%eax
    76cd:	0d 00 00 c0 3f       	or     $0x3fc00000,%eax
    76d2:	89 45 ec             	mov    %eax,-0x14(%ebp)
    76d5:	8b 45 f0             	mov    -0x10(%ebp),%eax
    76d8:	c1 e8 0c             	shr    $0xc,%eax
    76db:	25 ff 03 00 00       	and    $0x3ff,%eax
    76e0:	83 ce 03             	or     $0x3,%esi
    76e3:	8b 55 ec             	mov    -0x14(%ebp),%edx
    76e6:	89 34 82             	mov    %esi,(%edx,%eax,4)
    76e9:	b8 00 00 40 00       	mov    $0x400000,%eax
    76ee:	0f 22 d8             	mov    %eax,%cr3
    76f1:	eb 05                	jmp    76f8 <put_page+0xb9>
    76f3:	bb 00 00 00 00       	mov    $0x0,%ebx
    76f8:	89 d8                	mov    %ebx,%eax
    76fa:	8b 5d f4             	mov    -0xc(%ebp),%ebx
    76fd:	8b 75 f8             	mov    -0x8(%ebp),%esi
    7700:	8b 7d fc             	mov    -0x4(%ebp),%edi
    7703:	89 ec                	mov    %ebp,%esp
    7705:	5d                   	pop    %ebp
    7706:	c3                   	ret    

00007707 <kscm_init_paging>:
    7707:	55                   	push   %ebp
    7708:	89 e5                	mov    %esp,%ebp
    770a:	57                   	push   %edi
    770b:	56                   	push   %esi
    770c:	53                   	push   %ebx
    770d:	83 ec 08             	sub    $0x8,%esp
    7710:	0f b7 05 02 00 09 00 	movzwl 0x90002,%eax
    7717:	c1 e0 0a             	shl    $0xa,%eax
    771a:	05 00 00 10 00       	add    $0x100000,%eax
    771f:	a3 e0 be 11 00       	mov    %eax,0x11bee0
    7724:	c7 05 00 96 00 00 00 	movl   $0x0,0x9600
    772b:	00 00 00 
    772e:	c7 05 04 96 00 00 00 	movl   $0x400000,0x9604
    7735:	00 40 00 
    7738:	66 c7 05 08 96 00 00 	movw   $0xffff,0x9608
    773f:	ff ff 
    7741:	c7 05 0c 96 00 00 00 	movl   $0x800000,0x960c
    7748:	00 80 00 
    774b:	c7 05 10 96 00 00 00 	movl   $0x1000,0x9610
    7752:	10 00 00 
    7755:	66 c7 05 14 96 00 00 	movw   $0x0,0x9614
    775c:	00 00 
    775e:	c7 05 18 96 00 00 00 	movl   $0x3fbff000,0x9618
    7765:	f0 bf 3f 
    7768:	c7 05 1c 96 00 00 00 	movl   $0x1000,0x961c
    776f:	10 00 00 
    7772:	66 c7 05 20 96 00 00 	movw   $0x1,0x9620
    7779:	01 00 
    777b:	c7 05 24 96 00 00 00 	movl   $0x40000000,0x9624
    7782:	00 00 40 
    7785:	c7 05 28 96 00 00 00 	movl   $0x1000,0x9628
    778c:	10 00 00 
    778f:	66 c7 05 2c 96 00 00 	movw   $0x0,0x962c
    7796:	00 00 
    7798:	a1 3c ce 12 00       	mov    0x12ce3c,%eax
    779d:	c7 00 00 96 00 00    	movl   $0x9600,(%eax)
    77a3:	b8 00 00 00 00       	mov    $0x0,%eax
    77a8:	ba 00 bf 11 00       	mov    $0x11bf00,%edx
    77ad:	c7 04 82 ff ff ff ff 	movl   $0xffffffff,(%edx,%eax,4)
    77b4:	83 c0 01             	add    $0x1,%eax
    77b7:	3d c0 3f 00 00       	cmp    $0x3fc0,%eax
    77bc:	75 ef                	jne    77ad <kscm_init_paging+0xa6>
    77be:	66 b8 02 00          	mov    $0x2,%ax
    77c2:	ba 00 00 00 00       	mov    $0x0,%edx
    77c7:	c7 04 82 00 00 00 00 	movl   $0x0,(%edx,%eax,4)
    77ce:	83 c0 01             	add    $0x1,%eax
    77d1:	3d 00 04 00 00       	cmp    $0x400,%eax
    77d6:	75 ef                	jne    77c7 <kscm_init_paging+0xc0>
    77d8:	b8 18 96 00 00       	mov    $0x9618,%eax
    77dd:	8b 38                	mov    (%eax),%edi
    77df:	e8 b4 fd ff ff       	call   7598 <get_free_frame>
    77e4:	89 fa                	mov    %edi,%edx
    77e6:	c1 ea 16             	shr    $0x16,%edx
    77e9:	89 c1                	mov    %eax,%ecx
    77eb:	83 c9 07             	or     $0x7,%ecx
    77ee:	89 0c 95 00 00 00 00 	mov    %ecx,0x0(,%edx,4)
    77f5:	89 c2                	mov    %eax,%edx
    77f7:	81 e2 00 00 c0 ff    	and    $0xffc00000,%edx
    77fd:	80 ca 87             	or     $0x87,%dl
    7800:	89 15 fc 03 00 00    	mov    %edx,0x3fc
    7806:	89 c3                	mov    %eax,%ebx
    7808:	81 e3 ff ff 3f 00    	and    $0x3fffff,%ebx
    780e:	81 cb 00 00 c0 3f    	or     $0x3fc00000,%ebx
    7814:	89 d8                	mov    %ebx,%eax
    7816:	e8 65 fd ff ff       	call   7580 <clear_page>
    781b:	e8 78 fd ff ff       	call   7598 <get_free_frame>
    7820:	89 fa                	mov    %edi,%edx
    7822:	c1 ea 0c             	shr    $0xc,%edx
    7825:	81 e2 ff 03 00 00    	and    $0x3ff,%edx
    782b:	83 c8 07             	or     $0x7,%eax
    782e:	89 04 93             	mov    %eax,(%ebx,%edx,4)
    7831:	b8 00 96 00 00       	mov    $0x9600,%eax
    7836:	ba 04 96 00 00       	mov    $0x9604,%edx
    783b:	8b 32                	mov    (%edx),%esi
    783d:	81 ee 00 10 00 00    	sub    $0x1000,%esi
    7843:	03 30                	add    (%eax),%esi
    7845:	b9 00 04 00 00       	mov    $0x400,%ecx
    784a:	56                   	push   %esi
    784b:	57                   	push   %edi
    784c:	fc                   	cld    
    784d:	f3 a5                	rep movsl %ds:(%esi),%es:(%edi)
    784f:	5f                   	pop    %edi
    7850:	5e                   	pop    %esi
    7851:	bb 18 96 00 00       	mov    $0x9618,%ebx
    7856:	8b 0b                	mov    (%ebx),%ecx
    7858:	03 0d 1c 96 00 00    	add    0x961c,%ecx
    785e:	2b 08                	sub    (%eax),%ecx
    7860:	89 c8                	mov    %ecx,%eax
    7862:	2b 02                	sub    (%edx),%eax
    7864:	01 c4                	add    %eax,%esp
    7866:	01 c5                	add    %eax,%ebp
    7868:	e8 2b fd ff ff       	call   7598 <get_free_frame>
    786d:	89 44 24 04          	mov    %eax,0x4(%esp)
    7871:	c7 04 24 00 00 80 00 	movl   $0x800000,(%esp)
    7878:	e8 c2 fd ff ff       	call   763f <put_page>
    787d:	83 c4 08             	add    $0x8,%esp
    7880:	5b                   	pop    %ebx
    7881:	5e                   	pop    %esi
    7882:	5f                   	pop    %edi
    7883:	5d                   	pop    %ebp
    7884:	c3                   	ret    

00007885 <expand_region>:
    7885:	55                   	push   %ebp
    7886:	89 e5                	mov    %esp,%ebp
    7888:	83 ec 14             	sub    $0x14,%esp
    788b:	89 5d f4             	mov    %ebx,-0xc(%ebp)
    788e:	89 75 f8             	mov    %esi,-0x8(%ebp)
    7891:	89 7d fc             	mov    %edi,-0x4(%ebp)
    7894:	8b 45 08             	mov    0x8(%ebp),%eax
    7897:	83 f8 03             	cmp    $0x3,%eax
    789a:	0f 8f 89 00 00 00    	jg     7929 <expand_region+0xa4>
    78a0:	8b 15 3c ce 12 00    	mov    0x12ce3c,%edx
    78a6:	8b 32                	mov    (%edx),%esi
    78a8:	8d 14 40             	lea    (%eax,%eax,2),%edx
    78ab:	8d 14 96             	lea    (%esi,%edx,4),%edx
    78ae:	0f b7 4a 08          	movzwl 0x8(%edx),%ecx
    78b2:	66 85 c9             	test   %cx,%cx
    78b5:	75 19                	jne    78d0 <expand_region+0x4b>
    78b7:	8b 1a                	mov    (%edx),%ebx
    78b9:	8b 4a 04             	mov    0x4(%edx),%ecx
    78bc:	8d bc 0b 00 10 00 00 	lea    0x1000(%ebx,%ecx,1),%edi
    78c3:	8d 44 40 03          	lea    0x3(%eax,%eax,2),%eax
    78c7:	39 3c 86             	cmp    %edi,(%esi,%eax,4)
    78ca:	72 5d                	jb     7929 <expand_region+0xa4>
    78cc:	01 cb                	add    %ecx,%ebx
    78ce:	eb 2c                	jmp    78fc <expand_region+0x77>
    78d0:	66 83 f9 01          	cmp    $0x1,%cx
    78d4:	75 1c                	jne    78f2 <expand_region+0x6d>
    78d6:	8d 44 40 fd          	lea    -0x3(%eax,%eax,2),%eax
    78da:	8d 04 86             	lea    (%esi,%eax,4),%eax
    78dd:	8b 1a                	mov    (%edx),%ebx
    78df:	81 eb 00 10 00 00    	sub    $0x1000,%ebx
    78e5:	8b 08                	mov    (%eax),%ecx
    78e7:	03 48 04             	add    0x4(%eax),%ecx
    78ea:	39 cb                	cmp    %ecx,%ebx
    78ec:	72 3b                	jb     7929 <expand_region+0xa4>
    78ee:	89 1a                	mov    %ebx,(%edx)
    78f0:	eb 0a                	jmp    78fc <expand_region+0x77>
    78f2:	66 85 c9             	test   %cx,%cx
    78f5:	78 32                	js     7929 <expand_region+0xa4>
    78f7:	bb 00 00 00 00       	mov    $0x0,%ebx
    78fc:	81 42 04 00 10 00 00 	addl   $0x1000,0x4(%edx)
    7903:	e8 90 fc ff ff       	call   7598 <get_free_frame>
    7908:	89 c6                	mov    %eax,%esi
    790a:	89 44 24 04          	mov    %eax,0x4(%esp)
    790e:	89 1c 24             	mov    %ebx,(%esp)
    7911:	e8 29 fd ff ff       	call   763f <put_page>
    7916:	85 c0                	test   %eax,%eax
    7918:	75 14                	jne    792e <expand_region+0xa9>
    791a:	89 34 24             	mov    %esi,(%esp)
    791d:	e8 f7 fc ff ff       	call   7619 <free_frame>
    7922:	bb 00 00 00 00       	mov    $0x0,%ebx
    7927:	eb 05                	jmp    792e <expand_region+0xa9>
    7929:	bb 00 00 00 00       	mov    $0x0,%ebx
    792e:	89 d8                	mov    %ebx,%eax
    7930:	8b 5d f4             	mov    -0xc(%ebp),%ebx
    7933:	8b 75 f8             	mov    -0x8(%ebp),%esi
    7936:	8b 7d fc             	mov    -0x4(%ebp),%edi
    7939:	89 ec                	mov    %ebp,%esp
    793b:	5d                   	pop    %ebp
    793c:	c3                   	ret    
