
debug/system.elf:     file format elf32-i386


Disassembly of section .text:

00000000 <G_page_dir>:
       0:	fc                   	cld    
       1:	66 b8 10 00          	mov    $0x10,%ax
       5:	8e d8                	mov    %eax,%ds
       7:	8e c0                	mov    %eax,%es
       9:	8e e0                	mov    %eax,%fs
       b:	8e e8                	mov    %eax,%gs
       d:	bc 00 00 40 00       	mov    $0x400000,%esp
      12:	e8 6d 00 00 00       	call   84 <setup_idt>
      17:	e8 98 00 00 00       	call   b4 <setup_gdt>
      1c:	b8 10 00 00 00       	mov    $0x10,%eax
      21:	8e d8                	mov    %eax,%ds
      23:	8e d0                	mov    %eax,%ss
      25:	8e c0                	mov    %eax,%es
      27:	8e e0                	mov    %eax,%fs
      29:	8e e8                	mov    %eax,%gs
      2b:	31 c0                	xor    %eax,%eax
      2d:	40                   	inc    %eax
      2e:	a3 00 00 00 00       	mov    %eax,0x0
      33:	39 05 00 00 10 00    	cmp    %eax,0x100000
      39:	74 f2                	je     2d <G_page_dir+0x2d>
      3b:	e9 c0 1f 00 00       	jmp    2000 <after_page_table>

00000040 <print_reg32>:
      40:	51                   	push   %ecx
      41:	53                   	push   %ebx
      42:	66 52                	push   %dx
      44:	06                   	push   %es
      45:	50                   	push   %eax
      46:	b8 10 00 00 00       	mov    $0x10,%eax
      4b:	8e c0                	mov    %eax,%es
      4d:	58                   	pop    %eax
      4e:	b9 08 00 00 00       	mov    $0x8,%ecx
      53:	bb 1e 80 0b 00       	mov    $0xb801e,%ebx
      58:	66 ba 0f 0f          	mov    $0xf0f,%dx

0000005c <l32_1>:
      5c:	20 c2                	and    %al,%dl
      5e:	80 fa 0a             	cmp    $0xa,%dl
      61:	7c 08                	jl     6b <l32_a>
      63:	80 ea 0a             	sub    $0xa,%dl
      66:	80 c2 41             	add    $0x41,%dl
      69:	eb 03                	jmp    6e <l32_pchar>

0000006b <l32_a>:
      6b:	80 c2 30             	add    $0x30,%dl

0000006e <l32_pchar>:
      6e:	26 66 89 13          	mov    %dx,%es:(%ebx)
      72:	c1 e8 04             	shr    $0x4,%eax
      75:	83 eb 02             	sub    $0x2,%ebx
      78:	66 ba 0f 0f          	mov    $0xf0f,%dx
      7c:	e2 de                	loop   5c <l32_1>
      7e:	07                   	pop    %es
      7f:	66 5a                	pop    %dx
      81:	5b                   	pop    %ebx
      82:	59                   	pop    %ecx
      83:	c3                   	ret    

00000084 <setup_idt>:
      84:	8d 15 3e 20 00 00    	lea    0x203e,%edx
      8a:	b8 00 00 08 00       	mov    $0x80000,%eax
      8f:	66 89 d0             	mov    %dx,%ax
      92:	66 ba 00 8e          	mov    $0x8e00,%dx
      96:	8d 3d fa 20 00 00    	lea    0x20fa,%edi
      9c:	b9 00 01 00 00       	mov    $0x100,%ecx

000000a1 <rp_sidt>:
      a1:	89 07                	mov    %eax,(%edi)
      a3:	89 57 04             	mov    %edx,0x4(%edi)
      a6:	83 c7 08             	add    $0x8,%edi
      a9:	49                   	dec    %ecx
      aa:	75 f5                	jne    a1 <rp_sidt>
      ac:	0f 01 1d ec 20 00 00 	lidtl  0x20ec
      b3:	c3                   	ret    

000000b4 <setup_gdt>:
      b4:	0f 01 15 f4 20 00 00 	lgdtl  0x20f4
      bb:	c3                   	ret    
	...

00001000 <pg0>:
	...

00002000 <after_page_table>:
    2000:	bc 00 00 40 00       	mov    $0x400000,%esp
    2005:	bd 00 00 40 00       	mov    $0x400000,%ebp
    200a:	e8 6f 00 00 00       	call   207e <setup_paging>
    200f:	e8 e8 13 00 00       	call   33fc <main>
    2014:	f4                   	hlt    

00002015 <shut_down_msg>:
    2015:	0a 0d 68 61 6c 74    	or     0x746c6168,%cl
    201b:	20 73 79             	and    %dh,0x79(%ebx)
    201e:	73 74                	jae    2094 <setup_paging+0x16>
    2020:	65                   	gs
    2021:	6d                   	insl   (%dx),%es:(%edi)
    2022:	2e 2e 2e 0a 0d 00 00 	or     %cs:0x6e550000,%cl
    2029:	55 6e 

00002029 <int_msg>:
    2029:	55                   	push   %ebp
    202a:	6e                   	outsb  %ds:(%esi),(%dx)
    202b:	6b 6e 6f 77          	imul   $0x77,0x6f(%esi),%ebp
    202f:	6e                   	outsb  %ds:(%esi),(%dx)
    2030:	20 69 6e             	and    %ch,0x6e(%ecx)
    2033:	74 65                	je     209a <setup_paging+0x1c>
    2035:	72 72                	jb     20a9 <setup_paging+0x2b>
    2037:	75 70                	jne    20a9 <setup_paging+0x2b>
    2039:	74 0a                	je     2045 <ignore_int+0x7>
    203b:	0d 00 00 fc 50       	or     $0x50fc0000,%eax

0000203e <ignore_int>:
    203e:	fc                   	cld    
    203f:	50                   	push   %eax
    2040:	51                   	push   %ecx
    2041:	52                   	push   %edx
    2042:	1e                   	push   %ds
    2043:	06                   	push   %es
    2044:	0f a0                	push   %fs
    2046:	b8 10 00 00 00       	mov    $0x10,%eax
    204b:	8e d8                	mov    %eax,%ds
    204d:	8e c0                	mov    %eax,%es
    204f:	8e e0                	mov    %eax,%fs
    2051:	68 29 20 00 00       	push   $0x2029
    2056:	e8 69 5e 00 00       	call   7ec4 <printf>
    205b:	58                   	pop    %eax
    205c:	0f a1                	pop    %fs
    205e:	07                   	pop    %es
    205f:	1f                   	pop    %ds
    2060:	5a                   	pop    %edx
    2061:	59                   	pop    %ecx
    2062:	58                   	pop    %eax
    2063:	cf                   	iret   

00002064 <setup_mtrr>:
    2064:	31 d2                	xor    %edx,%edx
    2066:	31 c0                	xor    %eax,%eax
    2068:	b9 50 02 00 00       	mov    $0x250,%ecx
    206d:	0f 30                	wrmsr  
    206f:	b9 58 02 00 00       	mov    $0x258,%ecx
    2074:	0f 30                	wrmsr  
    2076:	b9 59 02 00 00       	mov    $0x259,%ecx
    207b:	0f 30                	wrmsr  
    207d:	c3                   	ret    

0000207e <setup_paging>:
    207e:	c7 05 00 00 00 00 87 	movl   $0x87,0x0
    2085:	00 00 00 
    2088:	c7 05 04 00 00 00 87 	movl   $0x400087,0x4
    208f:	00 40 00 
    2092:	0f 20 e0             	mov    %cr4,%eax
    2095:	83 c8 10             	or     $0x10,%eax
    2098:	0f 22 e0             	mov    %eax,%cr4
    209b:	b8 00 00 00 00       	mov    $0x0,%eax
    20a0:	0f 22 d8             	mov    %eax,%cr3
    20a3:	0f 20 c0             	mov    %cr0,%eax
    20a6:	0d 00 00 00 80       	or     $0x80000000,%eax
    20ab:	0f 22 c0             	mov    %eax,%cr0
    20ae:	57                   	push   %edi
    20af:	56                   	push   %esi
    20b0:	b9 00 00 40 00       	mov    $0x400000,%ecx
    20b5:	be 00 00 00 00       	mov    $0x0,%esi
    20ba:	bf 00 00 40 00       	mov    $0x400000,%edi
    20bf:	fc                   	cld    
    20c0:	f3 a4                	rep movsb %ds:(%esi),%es:(%edi)
    20c2:	5e                   	pop    %esi
    20c3:	5f                   	pop    %edi
    20c4:	b8 00 00 40 00       	mov    $0x400000,%eax
    20c9:	0f 22 d8             	mov    %eax,%cr3
    20cc:	c7 05 00 00 40 00 87 	movl   $0x400087,0x400000
    20d3:	00 40 00 
    20d6:	c7 05 04 00 00 00 97 	movl   $0x97,0x4
    20dd:	00 00 00 
    20e0:	b8 00 00 40 00       	mov    $0x400000,%eax
    20e5:	0f 22 d8             	mov    %eax,%cr3
    20e8:	c3                   	ret    
    20e9:	90                   	nop
	...

000020ec <idt_descr>:
    20ec:	ff 07                	incl   (%edi)
    20ee:	fa                   	cli    
    20ef:	20 00                	and    %al,(%eax)
    20f1:	00 00                	add    %al,(%eax)
	...

000020f4 <gdt_descr>:
    20f4:	ff 07                	incl   (%edi)
    20f6:	fa                   	cli    
    20f7:	28 00                	sub    %al,(%eax)
	...

000020fa <G_idt>:
	...

000028fa <G_gdt>:
	...
    2902:	ff                   	(bad)  
    2903:	ff 00                	incl   (%eax)
    2905:	00 00                	add    %al,(%eax)
    2907:	9a cf 00 ff ff 00 00 	lcall  $0x0,$0xffff00cf
    290e:	00 92 cf 00 00 00    	add    %dl,0xcf(%edx)
	...
    30f0:	00 00                	add    %al,(%eax)
    30f2:	90                   	nop
    30f3:	90                   	nop
    30f4:	90                   	nop
    30f5:	90                   	nop
    30f6:	90                   	nop
    30f7:	90                   	nop
    30f8:	90                   	nop
    30f9:	90                   	nop
    30fa:	90                   	nop
    30fb:	90                   	nop
    30fc:	90                   	nop
    30fd:	90                   	nop
    30fe:	90                   	nop
    30ff:	90                   	nop

00003100 <console_init>:
    3100:	55                   	push   %ebp
    3101:	89 e5                	mov    %esp,%ebp
    3103:	53                   	push   %ebx
    3104:	83 3d d4 94 00 00 01 	cmpl   $0x1,0x94d4
    310b:	0f 84 b2 00 00 00    	je     31c3 <console_init+0xc3>
    3111:	0f b7 05 0a 00 09 00 	movzwl 0x9000a,%eax
    3118:	f6 c4 ff             	test   $0xff,%ah
    311b:	74 15                	je     3132 <console_init+0x32>
    311d:	66 c7 05 d8 94 00 00 	movw   $0x0,0x94d8
    3124:	00 00 
    3126:	c7 05 dc 94 00 00 00 	movl   $0x4b0000,0x94dc
    312d:	00 4b 00 
    3130:	eb 13                	jmp    3145 <console_init+0x45>
    3132:	66 c7 05 d8 94 00 00 	movw   $0x1,0x94d8
    3139:	01 00 
    313b:	c7 05 dc 94 00 00 00 	movl   $0x4b8000,0x94dc
    3142:	80 4b 00 
    3145:	0f b6 15 00 00 09 00 	movzbl 0x90000,%edx
    314c:	88 15 c0 94 00 00    	mov    %dl,0x94c0
    3152:	0f b6 05 01 00 09 00 	movzbl 0x90001,%eax
    3159:	a2 c1 94 00 00       	mov    %al,0x94c1
    315e:	0f b7 0d 06 00 09 00 	movzwl 0x90006,%ecx
    3165:	0f b6 c0             	movzbl %al,%eax
    3168:	89 cb                	mov    %ecx,%ebx
    316a:	c1 eb 08             	shr    $0x8,%ebx
    316d:	0f af c3             	imul   %ebx,%eax
    3170:	66 0f b6 d2          	movzbw %dl,%dx
    3174:	01 d0                	add    %edx,%eax
    3176:	66 a3 c2 94 00 00    	mov    %ax,0x94c2
    317c:	66 89 1d c6 94 00 00 	mov    %bx,0x94c6
    3183:	66 c7 05 c8 94 00 00 	movw   $0x19,0x94c8
    318a:	19 00 
    318c:	81 e1 ff 00 00 00    	and    $0xff,%ecx
    3192:	66 89 0d ca 94 00 00 	mov    %cx,0x94ca
    3199:	0f b7 05 04 00 09 00 	movzwl 0x90004,%eax
    31a0:	66 a3 cc 94 00 00    	mov    %ax,0x94cc
    31a6:	c1 e0 0c             	shl    $0xc,%eax
    31a9:	03 05 dc 94 00 00    	add    0x94dc,%eax
    31af:	2d 00 70 00 00       	sub    $0x7000,%eax
    31b4:	a3 d0 94 00 00       	mov    %eax,0x94d0
    31b9:	c7 05 d4 94 00 00 01 	movl   $0x1,0x94d4
    31c0:	00 00 00 
    31c3:	5b                   	pop    %ebx
    31c4:	5d                   	pop    %ebp
    31c5:	c3                   	ret    

000031c6 <scroll_down>:
    31c6:	55                   	push   %ebp
    31c7:	89 e5                	mov    %esp,%ebp
    31c9:	83 ec 18             	sub    $0x18,%esp
    31cc:	89 5d f4             	mov    %ebx,-0xc(%ebp)
    31cf:	89 75 f8             	mov    %esi,-0x8(%ebp)
    31d2:	89 7d fc             	mov    %edi,-0x4(%ebp)
    31d5:	a1 d0 94 00 00       	mov    0x94d0,%eax
    31da:	89 45 f0             	mov    %eax,-0x10(%ebp)
    31dd:	0f b7 05 c6 94 00 00 	movzwl 0x94c6,%eax
    31e4:	01 c0                	add    %eax,%eax
    31e6:	0f af 45 08          	imul   0x8(%ebp),%eax
    31ea:	03 45 f0             	add    -0x10(%ebp),%eax
    31ed:	89 45 e8             	mov    %eax,-0x18(%ebp)
    31f0:	39 45 f0             	cmp    %eax,-0x10(%ebp)
    31f3:	76 2c                	jbe    3221 <scroll_down+0x5b>
    31f5:	8b 5d f0             	mov    -0x10(%ebp),%ebx
    31f8:	89 d9                	mov    %ebx,%ecx
    31fa:	29 c1                	sub    %eax,%ecx
    31fc:	89 4d ec             	mov    %ecx,-0x14(%ebp)
    31ff:	81 f9 ff 0f 00 00    	cmp    $0xfff,%ecx
    3205:	77 1a                	ja     3221 <scroll_down+0x5b>
    3207:	89 da                	mov    %ebx,%edx
    3209:	01 ca                	add    %ecx,%edx
    320b:	b8 00 10 00 00       	mov    $0x1000,%eax
    3210:	29 c8                	sub    %ecx,%eax
    3212:	89 d7                	mov    %edx,%edi
    3214:	89 de                	mov    %ebx,%esi
    3216:	89 c1                	mov    %eax,%ecx
    3218:	56                   	push   %esi
    3219:	57                   	push   %edi
    321a:	fc                   	cld    
    321b:	f3 a4                	rep movsb %ds:(%esi),%es:(%edi)
    321d:	5f                   	pop    %edi
    321e:	5e                   	pop    %esi
    321f:	eb 07                	jmp    3228 <scroll_down+0x62>
    3221:	c7 45 ec 00 10 00 00 	movl   $0x1000,-0x14(%ebp)
    3228:	8b 7d f0             	mov    -0x10(%ebp),%edi
    322b:	8b 75 e8             	mov    -0x18(%ebp),%esi
    322e:	8b 4d ec             	mov    -0x14(%ebp),%ecx
    3231:	56                   	push   %esi
    3232:	57                   	push   %edi
    3233:	fc                   	cld    
    3234:	f3 a4                	rep movsb %ds:(%esi),%es:(%edi)
    3236:	5f                   	pop    %edi
    3237:	5e                   	pop    %esi
    3238:	0f b6 45 08          	movzbl 0x8(%ebp),%eax
    323c:	28 05 c1 94 00 00    	sub    %al,0x94c1
    3242:	0f b7 15 c6 94 00 00 	movzwl 0x94c6,%edx
    3249:	0f af 55 08          	imul   0x8(%ebp),%edx
    324d:	0f b7 05 c2 94 00 00 	movzwl 0x94c2,%eax
    3254:	29 d0                	sub    %edx,%eax
    3256:	66 a3 c2 94 00 00    	mov    %ax,0x94c2
    325c:	8b 5d f4             	mov    -0xc(%ebp),%ebx
    325f:	8b 75 f8             	mov    -0x8(%ebp),%esi
    3262:	8b 7d fc             	mov    -0x4(%ebp),%edi
    3265:	89 ec                	mov    %ebp,%esp
    3267:	5d                   	pop    %ebp
    3268:	c3                   	ret    

00003269 <console_print>:
    3269:	55                   	push   %ebp
    326a:	89 e5                	mov    %esp,%ebp
    326c:	57                   	push   %edi
    326d:	56                   	push   %esi
    326e:	53                   	push   %ebx
    326f:	83 ec 10             	sub    $0x10,%esp
    3272:	8b 35 d0 94 00 00    	mov    0x94d0,%esi
    3278:	0f b6 15 c0 94 00 00 	movzbl 0x94c0,%edx
    327f:	0f b6 05 c1 94 00 00 	movzbl 0x94c1,%eax
    3286:	0f b7 1d c6 94 00 00 	movzwl 0x94c6,%ebx
    328d:	8b 7d 08             	mov    0x8(%ebp),%edi
    3290:	0f b6 0f             	movzbl (%edi),%ecx
    3293:	c7 45 ec 00 00 00 00 	movl   $0x0,-0x14(%ebp)
    329a:	84 c9                	test   %cl,%cl
    329c:	0f 84 2b 01 00 00    	je     33cd <console_print+0x164>
    32a2:	0f b6 d2             	movzbl %dl,%edx
    32a5:	0f b6 c0             	movzbl %al,%eax
    32a8:	0f af c3             	imul   %ebx,%eax
    32ab:	01 c2                	add    %eax,%edx
    32ad:	8d 1c 56             	lea    (%esi,%edx,2),%ebx
    32b0:	88 ca                	mov    %cl,%dl
    32b2:	80 f9 0a             	cmp    $0xa,%cl
    32b5:	74 10                	je     32c7 <console_print+0x5e>
    32b7:	80 f9 0d             	cmp    $0xd,%cl
    32ba:	74 2d                	je     32e9 <console_print+0x80>
    32bc:	84 c9                	test   %cl,%cl
    32be:	75 3d                	jne    32fd <console_print+0x94>
    32c0:	e8 7b cd ff ff       	call   40 <print_reg32>
    32c5:	eb 67                	jmp    332e <console_print+0xc5>
    32c7:	fe 05 c1 94 00 00    	incb   0x94c1
    32cd:	0f b7 05 c6 94 00 00 	movzwl 0x94c6,%eax
    32d4:	0f b6 15 c0 94 00 00 	movzbl 0x94c0,%edx
    32db:	29 d0                	sub    %edx,%eax
    32dd:	8d 1c 43             	lea    (%ebx,%eax,2),%ebx
    32e0:	c6 05 c0 94 00 00 00 	movb   $0x0,0x94c0
    32e7:	eb 45                	jmp    332e <console_print+0xc5>
    32e9:	0f b6 05 c0 94 00 00 	movzbl 0x94c0,%eax
    32f0:	01 c0                	add    %eax,%eax
    32f2:	29 c3                	sub    %eax,%ebx
    32f4:	c6 05 c0 94 00 00 00 	movb   $0x0,0x94c0
    32fb:	eb 31                	jmp    332e <console_print+0xc5>
    32fd:	0f b6 05 c0 94 00 00 	movzbl 0x94c0,%eax
    3304:	fe c0                	inc    %al
    3306:	a2 c0 94 00 00       	mov    %al,0x94c0
    330b:	66 0f b6 c0          	movzbw %al,%ax
    330f:	66 3b 05 c6 94 00 00 	cmp    0x94c6,%ax
    3316:	72 0d                	jb     3325 <console_print+0xbc>
    3318:	c6 05 c0 94 00 00 00 	movb   $0x0,0x94c0
    331f:	fe 05 c1 94 00 00    	incb   0x94c1
    3325:	88 13                	mov    %dl,(%ebx)
    3327:	c6 43 01 0f          	movb   $0xf,0x1(%ebx)
    332b:	83 c3 02             	add    $0x2,%ebx
    332e:	66 0f b6 05 c1 94 00 	movzbw 0x94c1,%ax
    3335:	00 
    3336:	66 3b 05 c8 94 00 00 	cmp    0x94c8,%ax
    333d:	72 76                	jb     33b5 <console_print+0x14c>
    333f:	a1 d0 94 00 00       	mov    0x94d0,%eax
    3344:	89 45 e8             	mov    %eax,-0x18(%ebp)
    3347:	0f b7 05 c6 94 00 00 	movzwl 0x94c6,%eax
    334e:	8b 55 e8             	mov    -0x18(%ebp),%edx
    3351:	8d 04 42             	lea    (%edx,%eax,2),%eax
    3354:	89 45 e4             	mov    %eax,-0x1c(%ebp)
    3357:	39 c2                	cmp    %eax,%edx
    3359:	76 26                	jbe    3381 <console_print+0x118>
    335b:	89 55 f0             	mov    %edx,-0x10(%ebp)
    335e:	89 d0                	mov    %edx,%eax
    3360:	2b 45 e4             	sub    -0x1c(%ebp),%eax
    3363:	3d ff 0f 00 00       	cmp    $0xfff,%eax
    3368:	77 17                	ja     3381 <console_print+0x118>
    336a:	01 c2                	add    %eax,%edx
    336c:	b9 00 10 00 00       	mov    $0x1000,%ecx
    3371:	29 c1                	sub    %eax,%ecx
    3373:	89 d7                	mov    %edx,%edi
    3375:	8b 75 f0             	mov    -0x10(%ebp),%esi
    3378:	56                   	push   %esi
    3379:	57                   	push   %edi
    337a:	fc                   	cld    
    337b:	f3 a4                	rep movsb %ds:(%esi),%es:(%edi)
    337d:	5f                   	pop    %edi
    337e:	5e                   	pop    %esi
    337f:	eb 05                	jmp    3386 <console_print+0x11d>
    3381:	b8 00 10 00 00       	mov    $0x1000,%eax
    3386:	8b 7d e8             	mov    -0x18(%ebp),%edi
    3389:	8b 75 e4             	mov    -0x1c(%ebp),%esi
    338c:	89 c1                	mov    %eax,%ecx
    338e:	56                   	push   %esi
    338f:	57                   	push   %edi
    3390:	fc                   	cld    
    3391:	f3 a4                	rep movsb %ds:(%esi),%es:(%edi)
    3393:	5f                   	pop    %edi
    3394:	5e                   	pop    %esi
    3395:	fe 0d c1 94 00 00    	decb   0x94c1
    339b:	0f b7 15 c6 94 00 00 	movzwl 0x94c6,%edx
    33a2:	0f b7 05 c2 94 00 00 	movzwl 0x94c2,%eax
    33a9:	29 d0                	sub    %edx,%eax
    33ab:	66 a3 c2 94 00 00    	mov    %ax,0x94c2
    33b1:	01 d2                	add    %edx,%edx
    33b3:	29 d3                	sub    %edx,%ebx
    33b5:	ff 45 ec             	incl   -0x14(%ebp)
    33b8:	8b 45 ec             	mov    -0x14(%ebp),%eax
    33bb:	8b 55 08             	mov    0x8(%ebp),%edx
    33be:	0f b6 0c 10          	movzbl (%eax,%edx,1),%ecx
    33c2:	84 c9                	test   %cl,%cl
    33c4:	74 07                	je     33cd <console_print+0x164>
    33c6:	88 ca                	mov    %cl,%dl
    33c8:	e9 e5 fe ff ff       	jmp    32b2 <console_print+0x49>
    33cd:	66 0f b6 05 c1 94 00 	movzbw 0x94c1,%ax
    33d4:	00 
    33d5:	0f b7 15 c6 94 00 00 	movzwl 0x94c6,%edx
    33dc:	0f af c2             	imul   %edx,%eax
    33df:	66 0f b6 15 c0 94 00 	movzbw 0x94c0,%dx
    33e6:	00 
    33e7:	01 d0                	add    %edx,%eax
    33e9:	66 a3 c2 94 00 00    	mov    %ax,0x94c2
    33ef:	8b 45 ec             	mov    -0x14(%ebp),%eax
    33f2:	83 c4 10             	add    $0x10,%esp
    33f5:	5b                   	pop    %ebx
    33f6:	5e                   	pop    %esi
    33f7:	5f                   	pop    %edi
    33f8:	5d                   	pop    %ebp
    33f9:	c3                   	ret    
    33fa:	90                   	nop
    33fb:	90                   	nop

000033fc <main>:
    33fc:	55                   	push   %ebp
    33fd:	89 e5                	mov    %esp,%ebp
    33ff:	83 e4 f0             	and    $0xfffffff0,%esp
    3402:	56                   	push   %esi
    3403:	53                   	push   %ebx
    3404:	81 ec 28 04 00 00    	sub    $0x428,%esp
    340a:	e8 f1 fc ff ff       	call   3100 <console_init>
    340f:	c7 04 24 40 89 00 00 	movl   $0x8940,(%esp)
    3416:	e8 a9 4a 00 00       	call   7ec4 <printf>
    341b:	e8 68 01 00 00       	call   3588 <kscm_init_proc>
    3420:	c7 04 24 5a 89 00 00 	movl   $0x895a,(%esp)
    3427:	e8 98 4a 00 00       	call   7ec4 <printf>
    342c:	e8 23 4d 00 00       	call   8154 <kscm_init_paging>
    3431:	c7 04 24 70 89 00 00 	movl   $0x8970,(%esp)
    3438:	e8 87 4a 00 00       	call   7ec4 <printf>
    343d:	e8 de 45 00 00       	call   7a20 <kscm_init_heap>
    3442:	c7 04 24 74 89 00 00 	movl   $0x8974,(%esp)
    3449:	e8 76 4a 00 00       	call   7ec4 <printf>
    344e:	e8 d6 43 00 00       	call   7829 <scheme_init>
    3453:	c7 04 24 8e 89 00 00 	movl   $0x898e,(%esp)
    345a:	e8 6e 1d 00 00       	call   51cd <scheme_make_char_input_stream>
    345f:	89 04 24             	mov    %eax,(%esp)
    3462:	e8 08 1a 00 00       	call   4e6f <scheme_read>
    3467:	89 c6                	mov    %eax,%esi
    3469:	89 44 24 04          	mov    %eax,0x4(%esp)
    346d:	8d 5c 24 20          	lea    0x20(%esp),%ebx
    3471:	89 1c 24             	mov    %ebx,(%esp)
    3474:	e8 87 29 00 00       	call   5e00 <scheme_obj_to_string>
    3479:	89 5c 24 04          	mov    %ebx,0x4(%esp)
    347d:	c7 04 24 96 89 00 00 	movl   $0x8996,(%esp)
    3484:	e8 3b 4a 00 00       	call   7ec4 <printf>
    3489:	c7 44 24 04 f0 cc 12 	movl   $0x12ccf0,0x4(%esp)
    3490:	00 
    3491:	89 34 24             	mov    %esi,(%esp)
    3494:	e8 d3 37 00 00       	call   6c6c <scheme_eval>
    3499:	89 c6                	mov    %eax,%esi
    349b:	89 44 24 04          	mov    %eax,0x4(%esp)
    349f:	89 1c 24             	mov    %ebx,(%esp)
    34a2:	e8 59 29 00 00       	call   5e00 <scheme_obj_to_string>
    34a7:	89 5c 24 04          	mov    %ebx,0x4(%esp)
    34ab:	c7 04 24 a2 89 00 00 	movl   $0x89a2,(%esp)
    34b2:	e8 0d 4a 00 00       	call   7ec4 <printf>
    34b7:	c7 04 24 70 89 00 00 	movl   $0x8970,(%esp)
    34be:	e8 01 4a 00 00       	call   7ec4 <printf>
    34c3:	c7 44 24 14 00 00 00 	movl   $0x0,0x14(%esp)
    34ca:	00 
    34cb:	c7 44 24 10 ad 89 00 	movl   $0x89ad,0x10(%esp)
    34d2:	00 
    34d3:	c7 44 24 0c 00 86 00 	movl   $0x8600,0xc(%esp)
    34da:	00 
    34db:	c7 44 24 08 6e 00 00 	movl   $0x6e,0x8(%esp)
    34e2:	00 
    34e3:	c7 44 24 04 af 89 00 	movl   $0x89af,0x4(%esp)
    34ea:	00 
    34eb:	c7 04 24 bc 8d 00 00 	movl   $0x8dbc,(%esp)
    34f2:	e8 cd 49 00 00       	call   7ec4 <printf>
    34f7:	89 74 24 14          	mov    %esi,0x14(%esp)
    34fb:	c7 44 24 10 b7 89 00 	movl   $0x89b7,0x10(%esp)
    3502:	00 
    3503:	c7 44 24 0c 00 86 00 	movl   $0x8600,0xc(%esp)
    350a:	00 
    350b:	c7 44 24 08 6f 00 00 	movl   $0x6f,0x8(%esp)
    3512:	00 
    3513:	c7 44 24 04 af 89 00 	movl   $0x89af,0x4(%esp)
    351a:	00 
    351b:	c7 04 24 e8 8d 00 00 	movl   $0x8de8,(%esp)
    3522:	e8 9d 49 00 00       	call   7ec4 <printf>
    3527:	8d 5c 24 20          	lea    0x20(%esp),%ebx
    352b:	c7 04 24 bb 89 00 00 	movl   $0x89bb,(%esp)
    3532:	e8 8d 49 00 00       	call   7ec4 <printf>
    3537:	a1 88 bc 12 00       	mov    0x12bc88,%eax
    353c:	89 04 24             	mov    %eax,(%esp)
    353f:	e8 2b 19 00 00       	call   4e6f <scheme_read>
    3544:	3d c0 cc 12 00       	cmp    $0x12ccc0,%eax
    3549:	75 0e                	jne    3559 <main+0x15d>
    354b:	c7 04 24 c3 89 00 00 	movl   $0x89c3,(%esp)
    3552:	e8 6d 49 00 00       	call   7ec4 <printf>
    3557:	eb d2                	jmp    352b <main+0x12f>
    3559:	c7 44 24 04 f0 cc 12 	movl   $0x12ccf0,0x4(%esp)
    3560:	00 
    3561:	89 04 24             	mov    %eax,(%esp)
    3564:	e8 03 37 00 00       	call   6c6c <scheme_eval>
    3569:	89 44 24 04          	mov    %eax,0x4(%esp)
    356d:	89 1c 24             	mov    %ebx,(%esp)
    3570:	e8 8b 28 00 00       	call   5e00 <scheme_obj_to_string>
    3575:	89 5c 24 04          	mov    %ebx,0x4(%esp)
    3579:	c7 04 24 e0 89 00 00 	movl   $0x89e0,(%esp)
    3580:	e8 3f 49 00 00       	call   7ec4 <printf>
    3585:	eb a4                	jmp    352b <main+0x12f>
    3587:	90                   	nop

00003588 <kscm_init_proc>:
    3588:	55                   	push   %ebp
    3589:	89 e5                	mov    %esp,%ebp
    358b:	c7 05 bc cc 12 00 80 	movl   $0x12bc80,0x12ccbc
    3592:	bc 12 00 
    3595:	5d                   	pop    %ebp
    3596:	c3                   	ret    
    3597:	90                   	nop

00003598 <key_map>:
    3598:	00 1b                	add    %bl,(%ebx)
    359a:	31 32                	xor    %esi,(%edx)
    359c:	33 34 35 36 37 38 39 	xor    0x39383736(,%esi,1),%esi
    35a3:	30 2d 3d 7f 09 71    	xor    %ch,0x71097f3d
    35a9:	77 65                	ja     3610 <shift_map+0x17>
    35ab:	72 74                	jb     3621 <shift_map+0x28>
    35ad:	79 75                	jns    3624 <shift_map+0x2b>
    35af:	69 6f 70 5b 5d 0d 00 	imul   $0xd5d5b,0x70(%edi),%ebp
    35b6:	61                   	popa   
    35b7:	73 64                	jae    361d <shift_map+0x24>
    35b9:	66 67 68 6a 6b       	addr16 pushw $0x6b6a
    35be:	6c                   	insb   (%dx),%es:(%edi)
    35bf:	3b 27                	cmp    (%edi),%esp
    35c1:	60                   	pusha  
    35c2:	00 5c 7a 78          	add    %bl,0x78(%edx,%edi,2)
    35c6:	63 76 62             	arpl   %si,0x62(%esi)
    35c9:	6e                   	outsb  %ds:(%esi),(%dx)
    35ca:	6d                   	insl   (%dx),%es:(%edi)
    35cb:	2c 2e                	sub    $0x2e,%al
    35cd:	2f                   	das    
    35ce:	00 2a                	add    %ch,(%edx)
    35d0:	00 20                	add    %ah,(%eax)
	...
    35e2:	2d 00 00 00 2b       	sub    $0x2b000000,%eax
    35e7:	00 00                	add    %al,(%eax)
    35e9:	00 00                	add    %al,(%eax)
    35eb:	00 00                	add    %al,(%eax)
    35ed:	00 3c 00             	add    %bh,(%eax,%eax,1)
	...

000035f9 <shift_map>:
    35f9:	00 1b                	add    %bl,(%ebx)
    35fb:	21 40 23             	and    %eax,0x23(%eax)
    35fe:	24 25                	and    $0x25,%al
    3600:	5e                   	pop    %esi
    3601:	26 2a 28             	sub    %es:(%eax),%ch
    3604:	29 5f 2b             	sub    %ebx,0x2b(%edi)
    3607:	7f 09                	jg     3612 <shift_map+0x19>
    3609:	51                   	push   %ecx
    360a:	57                   	push   %edi
    360b:	45                   	inc    %ebp
    360c:	52                   	push   %edx
    360d:	54                   	push   %esp
    360e:	59                   	pop    %ecx
    360f:	55                   	push   %ebp
    3610:	49                   	dec    %ecx
    3611:	4f                   	dec    %edi
    3612:	50                   	push   %eax
    3613:	7b 7d                	jnp    3692 <alt_map+0x38>
    3615:	0d 00 41 53 44       	or     $0x44534100,%eax
    361a:	46                   	inc    %esi
    361b:	47                   	inc    %edi
    361c:	48                   	dec    %eax
    361d:	4a                   	dec    %edx
    361e:	4b                   	dec    %ebx
    361f:	4c                   	dec    %esp
    3620:	3a 22                	cmp    (%edx),%ah
    3622:	7e 00                	jle    3624 <shift_map+0x2b>
    3624:	7c 5a                	jl     3680 <alt_map+0x26>
    3626:	58                   	pop    %eax
    3627:	43                   	inc    %ebx
    3628:	56                   	push   %esi
    3629:	42                   	inc    %edx
    362a:	4e                   	dec    %esi
    362b:	4d                   	dec    %ebp
    362c:	3c 3e                	cmp    $0x3e,%al
    362e:	3f                   	aas    
    362f:	00 2a                	add    %ch,(%edx)
    3631:	00 20                	add    %ah,(%eax)
	...
    3643:	2d 00 00 00 2b       	sub    $0x2b000000,%eax
    3648:	00 00                	add    %al,(%eax)
    364a:	00 00                	add    %al,(%eax)
    364c:	00 00                	add    %al,(%eax)
    364e:	00 3e                	add    %bh,(%esi)
	...

0000365a <alt_map>:
    365a:	00 00                	add    %al,(%eax)
    365c:	00 40 00             	add    %al,0x0(%eax)
    365f:	24 00                	and    $0x0,%al
    3661:	00 7b 5b             	add    %bh,0x5b(%ebx)
    3664:	5d                   	pop    %ebp
    3665:	7d 5c                	jge    36c3 <boolean_p+0x3>
	...
    3673:	00 00                	add    %al,(%eax)
    3675:	7e 0d                	jle    3684 <alt_map+0x2a>
	...
    36af:	00 7c 00 00          	add    %bh,0x0(%eax,%eax,1)
	...
    36bb:	90                   	nop
    36bc:	90                   	nop
    36bd:	90                   	nop
    36be:	90                   	nop
    36bf:	90                   	nop

000036c0 <boolean_p>:
    36c0:	55                   	push   %ebp
    36c1:	89 e5                	mov    %esp,%ebp
    36c3:	8b 45 0c             	mov    0xc(%ebp),%eax
    36c6:	8b 00                	mov    (%eax),%eax
    36c8:	3d 14 cd 12 00       	cmp    $0x12cd14,%eax
    36cd:	74 09                	je     36d8 <boolean_p+0x18>
    36cf:	ba 00 cd 12 00       	mov    $0x12cd00,%edx
    36d4:	39 d0                	cmp    %edx,%eax
    36d6:	75 05                	jne    36dd <boolean_p+0x1d>
    36d8:	ba 14 cd 12 00       	mov    $0x12cd14,%edx
    36dd:	89 d0                	mov    %edx,%eax
    36df:	5d                   	pop    %ebp
    36e0:	c3                   	ret    

000036e1 <true_p>:
    36e1:	55                   	push   %ebp
    36e2:	89 e5                	mov    %esp,%ebp
    36e4:	ba 00 cd 12 00       	mov    $0x12cd00,%edx
    36e9:	8b 45 0c             	mov    0xc(%ebp),%eax
    36ec:	39 10                	cmp    %edx,(%eax)
    36ee:	74 05                	je     36f5 <true_p+0x14>
    36f0:	ba 14 cd 12 00       	mov    $0x12cd14,%edx
    36f5:	89 d0                	mov    %edx,%eax
    36f7:	5d                   	pop    %ebp
    36f8:	c3                   	ret    

000036f9 <not>:
    36f9:	55                   	push   %ebp
    36fa:	89 e5                	mov    %esp,%ebp
    36fc:	ba 14 cd 12 00       	mov    $0x12cd14,%edx
    3701:	8b 45 0c             	mov    0xc(%ebp),%eax
    3704:	81 38 00 cd 12 00    	cmpl   $0x12cd00,(%eax)
    370a:	74 05                	je     3711 <not+0x18>
    370c:	ba 00 cd 12 00       	mov    $0x12cd00,%edx
    3711:	89 d0                	mov    %edx,%eax
    3713:	5d                   	pop    %ebp
    3714:	c3                   	ret    

00003715 <scheme_init_bool>:
    3715:	55                   	push   %ebp
    3716:	89 e5                	mov    %esp,%ebp
    3718:	53                   	push   %ebx
    3719:	83 ec 14             	sub    $0x14,%esp
    371c:	8b 5d 08             	mov    0x8(%ebp),%ebx
    371f:	66 c7 05 14 cd 12 00 	movw   $0x19,0x12cd14
    3726:	19 00 
    3728:	c7 05 18 cd 12 00 00 	movl   $0x0,0x12cd18
    372f:	00 00 00 
    3732:	66 c7 05 00 cd 12 00 	movw   $0x19,0x12cd00
    3739:	19 00 
    373b:	c7 05 04 cd 12 00 01 	movl   $0x1,0x12cd04
    3742:	00 00 00 
    3745:	89 5c 24 10          	mov    %ebx,0x10(%esp)
    3749:	c7 44 24 0c 01 00 00 	movl   $0x1,0xc(%esp)
    3750:	00 
    3751:	c7 44 24 08 01 00 00 	movl   $0x1,0x8(%esp)
    3758:	00 
    3759:	c7 44 24 04 c0 36 00 	movl   $0x36c0,0x4(%esp)
    3760:	00 
    3761:	c7 04 24 ee 89 00 00 	movl   $0x89ee,(%esp)
    3768:	e8 35 2c 00 00       	call   63a2 <scheme_register_primitive>
    376d:	89 5c 24 10          	mov    %ebx,0x10(%esp)
    3771:	c7 44 24 0c 01 00 00 	movl   $0x1,0xc(%esp)
    3778:	00 
    3779:	c7 44 24 08 01 00 00 	movl   $0x1,0x8(%esp)
    3780:	00 
    3781:	c7 44 24 04 e1 36 00 	movl   $0x36e1,0x4(%esp)
    3788:	00 
    3789:	c7 04 24 f7 89 00 00 	movl   $0x89f7,(%esp)
    3790:	e8 0d 2c 00 00       	call   63a2 <scheme_register_primitive>
    3795:	89 5c 24 10          	mov    %ebx,0x10(%esp)
    3799:	c7 44 24 0c 01 00 00 	movl   $0x1,0xc(%esp)
    37a0:	00 
    37a1:	c7 44 24 08 01 00 00 	movl   $0x1,0x8(%esp)
    37a8:	00 
    37a9:	c7 44 24 04 f9 36 00 	movl   $0x36f9,0x4(%esp)
    37b0:	00 
    37b1:	c7 04 24 fd 89 00 00 	movl   $0x89fd,(%esp)
    37b8:	e8 e5 2b 00 00       	call   63a2 <scheme_register_primitive>
    37bd:	83 c4 14             	add    $0x14,%esp
    37c0:	5b                   	pop    %ebx
    37c1:	5d                   	pop    %ebp
    37c2:	c3                   	ret    
    37c3:	90                   	nop
    37c4:	90                   	nop
    37c5:	90                   	nop
    37c6:	90                   	nop
    37c7:	90                   	nop
    37c8:	90                   	nop
    37c9:	90                   	nop
    37ca:	90                   	nop
    37cb:	90                   	nop
    37cc:	90                   	nop
    37cd:	90                   	nop
    37ce:	90                   	nop
    37cf:	90                   	nop

000037d0 <string_p>:
    37d0:	55                   	push   %ebp
    37d1:	89 e5                	mov    %esp,%ebp
    37d3:	8b 45 0c             	mov    0xc(%ebp),%eax
    37d6:	8b 10                	mov    (%eax),%edx
    37d8:	f6 c2 01             	test   $0x1,%dl
    37db:	75 0b                	jne    37e8 <string_p+0x18>
    37dd:	b8 14 cd 12 00       	mov    $0x12cd14,%eax
    37e2:	66 83 3a 11          	cmpw   $0x11,(%edx)
    37e6:	74 05                	je     37ed <string_p+0x1d>
    37e8:	b8 00 cd 12 00       	mov    $0x12cd00,%eax
    37ed:	5d                   	pop    %ebp
    37ee:	c3                   	ret    

000037ef <string_ref>:
    37ef:	55                   	push   %ebp
    37f0:	89 e5                	mov    %esp,%ebp
    37f2:	8b 45 0c             	mov    0xc(%ebp),%eax
    37f5:	8b 50 04             	mov    0x4(%eax),%edx
    37f8:	8b 52 04             	mov    0x4(%edx),%edx
    37fb:	8b 08                	mov    (%eax),%ecx
    37fd:	b8 c0 cc 12 00       	mov    $0x12ccc0,%eax
    3802:	3b 51 08             	cmp    0x8(%ecx),%edx
    3805:	7d 0c                	jge    3813 <string_ref+0x24>
    3807:	8b 41 04             	mov    0x4(%ecx),%eax
    380a:	0f be 04 10          	movsbl (%eax,%edx,1),%eax
    380e:	01 c0                	add    %eax,%eax
    3810:	83 c8 01             	or     $0x1,%eax
    3813:	5d                   	pop    %ebp
    3814:	c3                   	ret    

00003815 <string_set>:
    3815:	55                   	push   %ebp
    3816:	89 e5                	mov    %esp,%ebp
    3818:	8b 45 0c             	mov    0xc(%ebp),%eax
    381b:	8b 50 04             	mov    0x4(%eax),%edx
    381e:	8b 52 04             	mov    0x4(%edx),%edx
    3821:	8b 08                	mov    (%eax),%ecx
    3823:	3b 51 08             	cmp    0x8(%ecx),%edx
    3826:	7d 0b                	jge    3833 <string_set+0x1e>
    3828:	8b 49 04             	mov    0x4(%ecx),%ecx
    382b:	8b 40 08             	mov    0x8(%eax),%eax
    382e:	d1 f8                	sar    %eax
    3830:	88 04 11             	mov    %al,(%ecx,%edx,1)
    3833:	b8 c0 cc 12 00       	mov    $0x12ccc0,%eax
    3838:	5d                   	pop    %ebp
    3839:	c3                   	ret    

0000383a <string_eq>:
    383a:	55                   	push   %ebp
    383b:	89 e5                	mov    %esp,%ebp
    383d:	56                   	push   %esi
    383e:	53                   	push   %ebx
    383f:	8b 45 0c             	mov    0xc(%ebp),%eax
    3842:	8b 50 04             	mov    0x4(%eax),%edx
    3845:	8b 72 04             	mov    0x4(%edx),%esi
    3848:	8b 00                	mov    (%eax),%eax
    384a:	8b 58 04             	mov    0x4(%eax),%ebx
    384d:	b8 00 00 00 00       	mov    $0x0,%eax
    3852:	0f b6 14 03          	movzbl (%ebx,%eax,1),%edx
    3856:	84 d2                	test   %dl,%dl
    3858:	74 16                	je     3870 <string_eq+0x36>
    385a:	0f b6 0c 06          	movzbl (%esi,%eax,1),%ecx
    385e:	84 c9                	test   %cl,%cl
    3860:	74 0e                	je     3870 <string_eq+0x36>
    3862:	83 c0 01             	add    $0x1,%eax
    3865:	38 ca                	cmp    %cl,%dl
    3867:	74 e9                	je     3852 <string_eq+0x18>
    3869:	b8 00 cd 12 00       	mov    $0x12cd00,%eax
    386e:	eb 05                	jmp    3875 <string_eq+0x3b>
    3870:	b8 14 cd 12 00       	mov    $0x12cd14,%eax
    3875:	5b                   	pop    %ebx
    3876:	5e                   	pop    %esi
    3877:	5d                   	pop    %ebp
    3878:	c3                   	ret    

00003879 <string_ci_eq>:
    3879:	55                   	push   %ebp
    387a:	89 e5                	mov    %esp,%ebp
    387c:	57                   	push   %edi
    387d:	56                   	push   %esi
    387e:	53                   	push   %ebx
    387f:	83 ec 04             	sub    $0x4,%esp
    3882:	8b 45 0c             	mov    0xc(%ebp),%eax
    3885:	8b 50 04             	mov    0x4(%eax),%edx
    3888:	8b 72 04             	mov    0x4(%edx),%esi
    388b:	8b 00                	mov    (%eax),%eax
    388d:	8b 58 04             	mov    0x4(%eax),%ebx
    3890:	0f b6 03             	movzbl (%ebx),%eax
    3893:	84 c0                	test   %al,%al
    3895:	74 46                	je     38dd <string_ci_eq+0x64>
    3897:	0f b6 16             	movzbl (%esi),%edx
    389a:	84 d2                	test   %dl,%dl
    389c:	74 3f                	je     38dd <string_ci_eq+0x64>
    389e:	0f be c0             	movsbl %al,%eax
    38a1:	0f be d2             	movsbl %dl,%edx
    38a4:	29 d0                	sub    %edx,%eax
    38a6:	89 c2                	mov    %eax,%edx
    38a8:	75 2c                	jne    38d6 <string_ci_eq+0x5d>
    38aa:	89 c7                	mov    %eax,%edi
    38ac:	b8 00 00 00 00       	mov    $0x0,%eax
    38b1:	89 55 f0             	mov    %edx,-0x10(%ebp)
    38b4:	0f b6 54 03 01       	movzbl 0x1(%ebx,%eax,1),%edx
    38b9:	84 d2                	test   %dl,%dl
    38bb:	74 15                	je     38d2 <string_ci_eq+0x59>
    38bd:	0f b6 4c 06 01       	movzbl 0x1(%esi,%eax,1),%ecx
    38c2:	84 c9                	test   %cl,%cl
    38c4:	74 0c                	je     38d2 <string_ci_eq+0x59>
    38c6:	83 c0 01             	add    $0x1,%eax
    38c9:	38 ca                	cmp    %cl,%dl
    38cb:	75 09                	jne    38d6 <string_ci_eq+0x5d>
    38cd:	8b 7d f0             	mov    -0x10(%ebp),%edi
    38d0:	eb e2                	jmp    38b4 <string_ci_eq+0x3b>
    38d2:	85 ff                	test   %edi,%edi
    38d4:	74 07                	je     38dd <string_ci_eq+0x64>
    38d6:	b8 00 cd 12 00       	mov    $0x12cd00,%eax
    38db:	eb 05                	jmp    38e2 <string_ci_eq+0x69>
    38dd:	b8 14 cd 12 00       	mov    $0x12cd14,%eax
    38e2:	83 c4 04             	add    $0x4,%esp
    38e5:	5b                   	pop    %ebx
    38e6:	5e                   	pop    %esi
    38e7:	5f                   	pop    %edi
    38e8:	5d                   	pop    %ebp
    38e9:	c3                   	ret    

000038ea <string_lt>:
    38ea:	55                   	push   %ebp
    38eb:	89 e5                	mov    %esp,%ebp
    38ed:	b8 c0 cc 12 00       	mov    $0x12ccc0,%eax
    38f2:	5d                   	pop    %ebp
    38f3:	c3                   	ret    

000038f4 <string_gt>:
    38f4:	55                   	push   %ebp
    38f5:	89 e5                	mov    %esp,%ebp
    38f7:	b8 c0 cc 12 00       	mov    $0x12ccc0,%eax
    38fc:	5d                   	pop    %ebp
    38fd:	c3                   	ret    

000038fe <string_lt_eq>:
    38fe:	55                   	push   %ebp
    38ff:	89 e5                	mov    %esp,%ebp
    3901:	b8 c0 cc 12 00       	mov    $0x12ccc0,%eax
    3906:	5d                   	pop    %ebp
    3907:	c3                   	ret    

00003908 <string_gt_eq>:
    3908:	55                   	push   %ebp
    3909:	89 e5                	mov    %esp,%ebp
    390b:	b8 c0 cc 12 00       	mov    $0x12ccc0,%eax
    3910:	5d                   	pop    %ebp
    3911:	c3                   	ret    

00003912 <string_ci_lt>:
    3912:	55                   	push   %ebp
    3913:	89 e5                	mov    %esp,%ebp
    3915:	b8 c0 cc 12 00       	mov    $0x12ccc0,%eax
    391a:	5d                   	pop    %ebp
    391b:	c3                   	ret    

0000391c <string_ci_gt>:
    391c:	55                   	push   %ebp
    391d:	89 e5                	mov    %esp,%ebp
    391f:	b8 c0 cc 12 00       	mov    $0x12ccc0,%eax
    3924:	5d                   	pop    %ebp
    3925:	c3                   	ret    

00003926 <string_ci_lt_eq>:
    3926:	55                   	push   %ebp
    3927:	89 e5                	mov    %esp,%ebp
    3929:	b8 c0 cc 12 00       	mov    $0x12ccc0,%eax
    392e:	5d                   	pop    %ebp
    392f:	c3                   	ret    

00003930 <string_ci_gt_eq>:
    3930:	55                   	push   %ebp
    3931:	89 e5                	mov    %esp,%ebp
    3933:	b8 c0 cc 12 00       	mov    $0x12ccc0,%eax
    3938:	5d                   	pop    %ebp
    3939:	c3                   	ret    

0000393a <substring>:
    393a:	55                   	push   %ebp
    393b:	89 e5                	mov    %esp,%ebp
    393d:	b8 c0 cc 12 00       	mov    $0x12ccc0,%eax
    3942:	5d                   	pop    %ebp
    3943:	c3                   	ret    

00003944 <string_append>:
    3944:	55                   	push   %ebp
    3945:	89 e5                	mov    %esp,%ebp
    3947:	b8 c0 cc 12 00       	mov    $0x12ccc0,%eax
    394c:	5d                   	pop    %ebp
    394d:	c3                   	ret    

0000394e <string_to_list>:
    394e:	55                   	push   %ebp
    394f:	89 e5                	mov    %esp,%ebp
    3951:	b8 c0 cc 12 00       	mov    $0x12ccc0,%eax
    3956:	5d                   	pop    %ebp
    3957:	c3                   	ret    

00003958 <list_to_string>:
    3958:	55                   	push   %ebp
    3959:	89 e5                	mov    %esp,%ebp
    395b:	b8 c0 cc 12 00       	mov    $0x12ccc0,%eax
    3960:	5d                   	pop    %ebp
    3961:	c3                   	ret    

00003962 <string_fill>:
    3962:	55                   	push   %ebp
    3963:	89 e5                	mov    %esp,%ebp
    3965:	b8 c0 cc 12 00       	mov    $0x12ccc0,%eax
    396a:	5d                   	pop    %ebp
    396b:	c3                   	ret    

0000396c <string_length>:
    396c:	55                   	push   %ebp
    396d:	89 e5                	mov    %esp,%ebp
    396f:	83 ec 18             	sub    $0x18,%esp
    3972:	c7 04 24 10 00 00 00 	movl   $0x10,(%esp)
    3979:	e8 36 41 00 00       	call   7ab4 <kmalloc>
    397e:	85 c0                	test   %eax,%eax
    3980:	75 07                	jne    3989 <string_length+0x1d>
    3982:	b8 c0 cc 12 00       	mov    $0x12ccc0,%eax
    3987:	eb 0b                	jmp    3994 <string_length+0x28>
    3989:	8b 55 0c             	mov    0xc(%ebp),%edx
    398c:	8b 12                	mov    (%edx),%edx
    398e:	8b 52 08             	mov    0x8(%edx),%edx
    3991:	89 50 04             	mov    %edx,0x4(%eax)
    3994:	c9                   	leave  
    3995:	c3                   	ret    

00003996 <scheme_alloc_string>:
    3996:	55                   	push   %ebp
    3997:	89 e5                	mov    %esp,%ebp
    3999:	83 ec 18             	sub    $0x18,%esp
    399c:	89 5d f8             	mov    %ebx,-0x8(%ebp)
    399f:	89 75 fc             	mov    %esi,-0x4(%ebp)
    39a2:	8b 75 08             	mov    0x8(%ebp),%esi
    39a5:	c7 04 24 10 00 00 00 	movl   $0x10,(%esp)
    39ac:	e8 03 41 00 00       	call   7ab4 <kmalloc>
    39b1:	89 c3                	mov    %eax,%ebx
    39b3:	8d 46 01             	lea    0x1(%esi),%eax
    39b6:	89 04 24             	mov    %eax,(%esp)
    39b9:	e8 f6 40 00 00       	call   7ab4 <kmalloc>
    39be:	66 c7 03 11 00       	movw   $0x11,(%ebx)
    39c3:	89 43 04             	mov    %eax,0x4(%ebx)
    39c6:	89 73 08             	mov    %esi,0x8(%ebx)
    39c9:	89 d8                	mov    %ebx,%eax
    39cb:	8b 5d f8             	mov    -0x8(%ebp),%ebx
    39ce:	8b 75 fc             	mov    -0x4(%ebp),%esi
    39d1:	89 ec                	mov    %ebp,%esp
    39d3:	5d                   	pop    %ebp
    39d4:	c3                   	ret    

000039d5 <scheme_make_string>:
    39d5:	55                   	push   %ebp
    39d6:	89 e5                	mov    %esp,%ebp
    39d8:	57                   	push   %edi
    39d9:	56                   	push   %esi
    39da:	53                   	push   %ebx
    39db:	83 ec 2c             	sub    $0x2c,%esp
    39de:	8b 75 08             	mov    0x8(%ebp),%esi
    39e1:	bb 00 00 00 00       	mov    $0x0,%ebx
    39e6:	80 3e 00             	cmpb   $0x0,(%esi)
    39e9:	74 09                	je     39f4 <scheme_make_string+0x1f>
    39eb:	83 c3 01             	add    $0x1,%ebx
    39ee:	80 3c 1e 00          	cmpb   $0x0,(%esi,%ebx,1)
    39f2:	75 f7                	jne    39eb <scheme_make_string+0x16>
    39f4:	c7 04 24 10 00 00 00 	movl   $0x10,(%esp)
    39fb:	e8 b4 40 00 00       	call   7ab4 <kmalloc>
    3a00:	89 c7                	mov    %eax,%edi
    3a02:	8d 43 01             	lea    0x1(%ebx),%eax
    3a05:	89 04 24             	mov    %eax,(%esp)
    3a08:	e8 a7 40 00 00       	call   7ab4 <kmalloc>
    3a0d:	89 45 e4             	mov    %eax,-0x1c(%ebp)
    3a10:	ba 00 00 00 00       	mov    $0x0,%edx
    3a15:	0f b6 0c 16          	movzbl (%esi,%edx,1),%ecx
    3a19:	88 0c 10             	mov    %cl,(%eax,%edx,1)
    3a1c:	83 c2 01             	add    $0x1,%edx
    3a1f:	84 c9                	test   %cl,%cl
    3a21:	75 f2                	jne    3a15 <scheme_make_string+0x40>
    3a23:	66 c7 07 11 00       	movw   $0x11,(%edi)
    3a28:	8b 45 e4             	mov    -0x1c(%ebp),%eax
    3a2b:	89 47 04             	mov    %eax,0x4(%edi)
    3a2e:	89 5f 08             	mov    %ebx,0x8(%edi)
    3a31:	89 f8                	mov    %edi,%eax
    3a33:	83 c4 2c             	add    $0x2c,%esp
    3a36:	5b                   	pop    %ebx
    3a37:	5e                   	pop    %esi
    3a38:	5f                   	pop    %edi
    3a39:	5d                   	pop    %ebp
    3a3a:	c3                   	ret    

00003a3b <string_copy>:
    3a3b:	55                   	push   %ebp
    3a3c:	89 e5                	mov    %esp,%ebp
    3a3e:	83 ec 28             	sub    $0x28,%esp
    3a41:	89 5d f4             	mov    %ebx,-0xc(%ebp)
    3a44:	89 75 f8             	mov    %esi,-0x8(%ebp)
    3a47:	89 7d fc             	mov    %edi,-0x4(%ebp)
    3a4a:	8b 55 0c             	mov    0xc(%ebp),%edx
    3a4d:	8b 02                	mov    (%edx),%eax
    3a4f:	a8 01                	test   $0x1,%al
    3a51:	75 61                	jne    3ab4 <string_copy+0x79>
    3a53:	66 83 38 11          	cmpw   $0x11,(%eax)
    3a57:	75 5b                	jne    3ab4 <string_copy+0x79>
    3a59:	c7 04 24 10 00 00 00 	movl   $0x10,(%esp)
    3a60:	e8 4f 40 00 00       	call   7ab4 <kmalloc>
    3a65:	89 c3                	mov    %eax,%ebx
    3a67:	8b 55 0c             	mov    0xc(%ebp),%edx
    3a6a:	8b 02                	mov    (%edx),%eax
    3a6c:	8b 40 08             	mov    0x8(%eax),%eax
    3a6f:	89 04 24             	mov    %eax,(%esp)
    3a72:	e8 3d 40 00 00       	call   7ab4 <kmalloc>
    3a77:	89 c7                	mov    %eax,%edi
    3a79:	85 db                	test   %ebx,%ebx
    3a7b:	74 04                	je     3a81 <string_copy+0x46>
    3a7d:	85 c0                	test   %eax,%eax
    3a7f:	75 17                	jne    3a98 <string_copy+0x5d>
    3a81:	89 1c 24             	mov    %ebx,(%esp)
    3a84:	e8 c4 3f 00 00       	call   7a4d <kfree>
    3a89:	89 3c 24             	mov    %edi,(%esp)
    3a8c:	e8 bc 3f 00 00       	call   7a4d <kfree>
    3a91:	bb c0 cc 12 00       	mov    $0x12ccc0,%ebx
    3a96:	eb 21                	jmp    3ab9 <string_copy+0x7e>
    3a98:	8b 55 0c             	mov    0xc(%ebp),%edx
    3a9b:	8b 02                	mov    (%edx),%eax
    3a9d:	8b 70 04             	mov    0x4(%eax),%esi
    3aa0:	8b 48 08             	mov    0x8(%eax),%ecx
    3aa3:	56                   	push   %esi
    3aa4:	57                   	push   %edi
    3aa5:	fc                   	cld    
    3aa6:	f3 a4                	rep movsb %ds:(%esi),%es:(%edi)
    3aa8:	5f                   	pop    %edi
    3aa9:	5e                   	pop    %esi
    3aaa:	8b 02                	mov    (%edx),%eax
    3aac:	8b 40 08             	mov    0x8(%eax),%eax
    3aaf:	89 43 08             	mov    %eax,0x8(%ebx)
    3ab2:	eb 05                	jmp    3ab9 <string_copy+0x7e>
    3ab4:	bb c0 cc 12 00       	mov    $0x12ccc0,%ebx
    3ab9:	89 d8                	mov    %ebx,%eax
    3abb:	8b 5d f4             	mov    -0xc(%ebp),%ebx
    3abe:	8b 75 f8             	mov    -0x8(%ebp),%esi
    3ac1:	8b 7d fc             	mov    -0x4(%ebp),%edi
    3ac4:	89 ec                	mov    %ebp,%esp
    3ac6:	5d                   	pop    %ebp
    3ac7:	c3                   	ret    

00003ac8 <string>:
    3ac8:	55                   	push   %ebp
    3ac9:	89 e5                	mov    %esp,%ebp
    3acb:	57                   	push   %edi
    3acc:	56                   	push   %esi
    3acd:	53                   	push   %ebx
    3ace:	83 ec 2c             	sub    $0x2c,%esp
    3ad1:	8b 75 08             	mov    0x8(%ebp),%esi
    3ad4:	8b 7d 0c             	mov    0xc(%ebp),%edi
    3ad7:	c7 04 24 10 00 00 00 	movl   $0x10,(%esp)
    3ade:	e8 d1 3f 00 00       	call   7ab4 <kmalloc>
    3ae3:	89 45 e4             	mov    %eax,-0x1c(%ebp)
    3ae6:	8d 46 01             	lea    0x1(%esi),%eax
    3ae9:	89 04 24             	mov    %eax,(%esp)
    3aec:	e8 c3 3f 00 00       	call   7ab4 <kmalloc>
    3af1:	89 c3                	mov    %eax,%ebx
    3af3:	83 7d e4 00          	cmpl   $0x0,-0x1c(%ebp)
    3af7:	74 04                	je     3afd <string+0x35>
    3af9:	85 c0                	test   %eax,%eax
    3afb:	75 1c                	jne    3b19 <string+0x51>
    3afd:	8b 45 e4             	mov    -0x1c(%ebp),%eax
    3b00:	89 04 24             	mov    %eax,(%esp)
    3b03:	e8 45 3f 00 00       	call   7a4d <kfree>
    3b08:	89 1c 24             	mov    %ebx,(%esp)
    3b0b:	e8 3d 3f 00 00       	call   7a4d <kfree>
    3b10:	c7 45 e4 c0 cc 12 00 	movl   $0x12ccc0,-0x1c(%ebp)
    3b17:	eb 50                	jmp    3b69 <string+0xa1>
    3b19:	8b 45 e4             	mov    -0x1c(%ebp),%eax
    3b1c:	66 c7 00 11 00       	movw   $0x11,(%eax)
    3b21:	89 58 04             	mov    %ebx,0x4(%eax)
    3b24:	89 70 08             	mov    %esi,0x8(%eax)
    3b27:	85 f6                	test   %esi,%esi
    3b29:	7e 3b                	jle    3b66 <string+0x9e>
    3b2b:	8b 07                	mov    (%edi),%eax
    3b2d:	a8 01                	test   $0x1,%al
    3b2f:	75 27                	jne    3b58 <string+0x90>
    3b31:	eb 09                	jmp    3b3c <string+0x74>
    3b33:	83 c7 04             	add    $0x4,%edi
    3b36:	8b 07                	mov    (%edi),%eax
    3b38:	a8 01                	test   $0x1,%al
    3b3a:	75 1c                	jne    3b58 <string+0x90>
    3b3c:	8b 45 e4             	mov    -0x1c(%ebp),%eax
    3b3f:	89 04 24             	mov    %eax,(%esp)
    3b42:	e8 06 3f 00 00       	call   7a4d <kfree>
    3b47:	89 1c 24             	mov    %ebx,(%esp)
    3b4a:	e8 fe 3e 00 00       	call   7a4d <kfree>
    3b4f:	c7 45 e4 c0 cc 12 00 	movl   $0x12ccc0,-0x1c(%ebp)
    3b56:	eb 11                	jmp    3b69 <string+0xa1>
    3b58:	d1 f8                	sar    %eax
    3b5a:	88 03                	mov    %al,(%ebx)
    3b5c:	83 c3 01             	add    $0x1,%ebx
    3b5f:	83 ee 01             	sub    $0x1,%esi
    3b62:	85 f6                	test   %esi,%esi
    3b64:	7f cd                	jg     3b33 <string+0x6b>
    3b66:	c6 03 00             	movb   $0x0,(%ebx)
    3b69:	8b 45 e4             	mov    -0x1c(%ebp),%eax
    3b6c:	83 c4 2c             	add    $0x2c,%esp
    3b6f:	5b                   	pop    %ebx
    3b70:	5e                   	pop    %esi
    3b71:	5f                   	pop    %edi
    3b72:	5d                   	pop    %ebp
    3b73:	c3                   	ret    

00003b74 <make_string>:
    3b74:	55                   	push   %ebp
    3b75:	89 e5                	mov    %esp,%ebp
    3b77:	83 ec 38             	sub    $0x38,%esp
    3b7a:	89 5d f4             	mov    %ebx,-0xc(%ebp)
    3b7d:	89 75 f8             	mov    %esi,-0x8(%ebp)
    3b80:	89 7d fc             	mov    %edi,-0x4(%ebp)
    3b83:	8b 75 0c             	mov    0xc(%ebp),%esi
    3b86:	8b 06                	mov    (%esi),%eax
    3b88:	a8 01                	test   $0x1,%al
    3b8a:	0f 85 85 00 00 00    	jne    3c15 <make_string+0xa1>
    3b90:	66 83 38 0a          	cmpw   $0xa,(%eax)
    3b94:	75 7f                	jne    3c15 <make_string+0xa1>
    3b96:	c6 45 d8 61          	movb   $0x61,-0x28(%ebp)
    3b9a:	83 7d 08 01          	cmpl   $0x1,0x8(%ebp)
    3b9e:	74 11                	je     3bb1 <make_string+0x3d>
    3ba0:	8b 46 04             	mov    0x4(%esi),%eax
    3ba3:	bb c0 cc 12 00       	mov    $0x12ccc0,%ebx
    3ba8:	a8 01                	test   $0x1,%al
    3baa:	74 6e                	je     3c1a <make_string+0xa6>
    3bac:	d1 e8                	shr    %eax
    3bae:	88 45 d8             	mov    %al,-0x28(%ebp)
    3bb1:	c7 04 24 10 00 00 00 	movl   $0x10,(%esp)
    3bb8:	e8 f7 3e 00 00       	call   7ab4 <kmalloc>
    3bbd:	89 c3                	mov    %eax,%ebx
    3bbf:	8b 06                	mov    (%esi),%eax
    3bc1:	8b 70 04             	mov    0x4(%eax),%esi
    3bc4:	8d 46 01             	lea    0x1(%esi),%eax
    3bc7:	89 04 24             	mov    %eax,(%esp)
    3bca:	e8 e5 3e 00 00       	call   7ab4 <kmalloc>
    3bcf:	89 c7                	mov    %eax,%edi
    3bd1:	85 db                	test   %ebx,%ebx
    3bd3:	74 04                	je     3bd9 <make_string+0x65>
    3bd5:	85 c0                	test   %eax,%eax
    3bd7:	75 17                	jne    3bf0 <make_string+0x7c>
    3bd9:	89 1c 24             	mov    %ebx,(%esp)
    3bdc:	e8 6c 3e 00 00       	call   7a4d <kfree>
    3be1:	89 3c 24             	mov    %edi,(%esp)
    3be4:	e8 64 3e 00 00       	call   7a4d <kfree>
    3be9:	bb c0 cc 12 00       	mov    $0x12ccc0,%ebx
    3bee:	eb 2a                	jmp    3c1a <make_string+0xa6>
    3bf0:	89 74 24 08          	mov    %esi,0x8(%esp)
    3bf4:	0f be 45 d8          	movsbl -0x28(%ebp),%eax
    3bf8:	89 44 24 04          	mov    %eax,0x4(%esp)
    3bfc:	89 3c 24             	mov    %edi,(%esp)
    3bff:	e8 3c 41 00 00       	call   7d40 <memset>
    3c04:	c6 04 37 00          	movb   $0x0,(%edi,%esi,1)
    3c08:	66 c7 03 11 00       	movw   $0x11,(%ebx)
    3c0d:	89 7b 04             	mov    %edi,0x4(%ebx)
    3c10:	89 73 08             	mov    %esi,0x8(%ebx)
    3c13:	eb 05                	jmp    3c1a <make_string+0xa6>
    3c15:	bb c0 cc 12 00       	mov    $0x12ccc0,%ebx
    3c1a:	89 d8                	mov    %ebx,%eax
    3c1c:	8b 5d f4             	mov    -0xc(%ebp),%ebx
    3c1f:	8b 75 f8             	mov    -0x8(%ebp),%esi
    3c22:	8b 7d fc             	mov    -0x4(%ebp),%edi
    3c25:	89 ec                	mov    %ebp,%esp
    3c27:	5d                   	pop    %ebp
    3c28:	c3                   	ret    

00003c29 <scheme_init_string>:
    3c29:	55                   	push   %ebp
    3c2a:	89 e5                	mov    %esp,%ebp
    3c2c:	53                   	push   %ebx
    3c2d:	83 ec 24             	sub    $0x24,%esp
    3c30:	8b 5d 08             	mov    0x8(%ebp),%ebx
    3c33:	89 5c 24 10          	mov    %ebx,0x10(%esp)
    3c37:	c7 44 24 0c 02 00 00 	movl   $0x2,0xc(%esp)
    3c3e:	00 
    3c3f:	c7 44 24 08 01 00 00 	movl   $0x1,0x8(%esp)
    3c46:	00 
    3c47:	c7 44 24 04 74 3b 00 	movl   $0x3b74,0x4(%esp)
    3c4e:	00 
    3c4f:	c7 04 24 01 8a 00 00 	movl   $0x8a01,(%esp)
    3c56:	e8 47 27 00 00       	call   63a2 <scheme_register_primitive>
    3c5b:	89 5c 24 10          	mov    %ebx,0x10(%esp)
    3c5f:	c7 44 24 0c ff ff ff 	movl   $0xffffffff,0xc(%esp)
    3c66:	ff 
    3c67:	c7 44 24 08 01 00 00 	movl   $0x1,0x8(%esp)
    3c6e:	00 
    3c6f:	c7 44 24 04 c8 3a 00 	movl   $0x3ac8,0x4(%esp)
    3c76:	00 
    3c77:	c7 04 24 06 8a 00 00 	movl   $0x8a06,(%esp)
    3c7e:	e8 1f 27 00 00       	call   63a2 <scheme_register_primitive>
    3c83:	89 5c 24 10          	mov    %ebx,0x10(%esp)
    3c87:	c7 44 24 0c 01 00 00 	movl   $0x1,0xc(%esp)
    3c8e:	00 
    3c8f:	c7 44 24 08 01 00 00 	movl   $0x1,0x8(%esp)
    3c96:	00 
    3c97:	c7 44 24 04 d0 37 00 	movl   $0x37d0,0x4(%esp)
    3c9e:	00 
    3c9f:	c7 04 24 0d 8a 00 00 	movl   $0x8a0d,(%esp)
    3ca6:	e8 f7 26 00 00       	call   63a2 <scheme_register_primitive>
    3cab:	89 5c 24 10          	mov    %ebx,0x10(%esp)
    3caf:	c7 44 24 0c 01 00 00 	movl   $0x1,0xc(%esp)
    3cb6:	00 
    3cb7:	c7 44 24 08 01 00 00 	movl   $0x1,0x8(%esp)
    3cbe:	00 
    3cbf:	c7 44 24 04 6c 39 00 	movl   $0x396c,0x4(%esp)
    3cc6:	00 
    3cc7:	c7 04 24 15 8a 00 00 	movl   $0x8a15,(%esp)
    3cce:	e8 cf 26 00 00       	call   63a2 <scheme_register_primitive>
    3cd3:	89 5c 24 10          	mov    %ebx,0x10(%esp)
    3cd7:	c7 44 24 0c 02 00 00 	movl   $0x2,0xc(%esp)
    3cde:	00 
    3cdf:	c7 44 24 08 02 00 00 	movl   $0x2,0x8(%esp)
    3ce6:	00 
    3ce7:	c7 44 24 04 ef 37 00 	movl   $0x37ef,0x4(%esp)
    3cee:	00 
    3cef:	c7 04 24 23 8a 00 00 	movl   $0x8a23,(%esp)
    3cf6:	e8 a7 26 00 00       	call   63a2 <scheme_register_primitive>
    3cfb:	89 5c 24 10          	mov    %ebx,0x10(%esp)
    3cff:	c7 44 24 0c 03 00 00 	movl   $0x3,0xc(%esp)
    3d06:	00 
    3d07:	c7 44 24 08 03 00 00 	movl   $0x3,0x8(%esp)
    3d0e:	00 
    3d0f:	c7 44 24 04 15 38 00 	movl   $0x3815,0x4(%esp)
    3d16:	00 
    3d17:	c7 04 24 2e 8a 00 00 	movl   $0x8a2e,(%esp)
    3d1e:	e8 7f 26 00 00       	call   63a2 <scheme_register_primitive>
    3d23:	89 5c 24 10          	mov    %ebx,0x10(%esp)
    3d27:	c7 44 24 0c 02 00 00 	movl   $0x2,0xc(%esp)
    3d2e:	00 
    3d2f:	c7 44 24 08 02 00 00 	movl   $0x2,0x8(%esp)
    3d36:	00 
    3d37:	c7 44 24 04 3a 38 00 	movl   $0x383a,0x4(%esp)
    3d3e:	00 
    3d3f:	c7 04 24 3a 8a 00 00 	movl   $0x8a3a,(%esp)
    3d46:	e8 57 26 00 00       	call   63a2 <scheme_register_primitive>
    3d4b:	89 5c 24 10          	mov    %ebx,0x10(%esp)
    3d4f:	c7 44 24 0c 02 00 00 	movl   $0x2,0xc(%esp)
    3d56:	00 
    3d57:	c7 44 24 08 02 00 00 	movl   $0x2,0x8(%esp)
    3d5e:	00 
    3d5f:	c7 44 24 04 79 38 00 	movl   $0x3879,0x4(%esp)
    3d66:	00 
    3d67:	c7 04 24 43 8a 00 00 	movl   $0x8a43,(%esp)
    3d6e:	e8 2f 26 00 00       	call   63a2 <scheme_register_primitive>
    3d73:	89 5c 24 10          	mov    %ebx,0x10(%esp)
    3d77:	c7 44 24 0c 02 00 00 	movl   $0x2,0xc(%esp)
    3d7e:	00 
    3d7f:	c7 44 24 08 02 00 00 	movl   $0x2,0x8(%esp)
    3d86:	00 
    3d87:	c7 44 24 04 ea 38 00 	movl   $0x38ea,0x4(%esp)
    3d8e:	00 
    3d8f:	c7 04 24 4f 8a 00 00 	movl   $0x8a4f,(%esp)
    3d96:	e8 07 26 00 00       	call   63a2 <scheme_register_primitive>
    3d9b:	89 5c 24 10          	mov    %ebx,0x10(%esp)
    3d9f:	c7 44 24 0c 02 00 00 	movl   $0x2,0xc(%esp)
    3da6:	00 
    3da7:	c7 44 24 08 02 00 00 	movl   $0x2,0x8(%esp)
    3dae:	00 
    3daf:	c7 44 24 04 f4 38 00 	movl   $0x38f4,0x4(%esp)
    3db6:	00 
    3db7:	c7 04 24 58 8a 00 00 	movl   $0x8a58,(%esp)
    3dbe:	e8 df 25 00 00       	call   63a2 <scheme_register_primitive>
    3dc3:	89 5c 24 10          	mov    %ebx,0x10(%esp)
    3dc7:	c7 44 24 0c 02 00 00 	movl   $0x2,0xc(%esp)
    3dce:	00 
    3dcf:	c7 44 24 08 02 00 00 	movl   $0x2,0x8(%esp)
    3dd6:	00 
    3dd7:	c7 44 24 04 fe 38 00 	movl   $0x38fe,0x4(%esp)
    3dde:	00 
    3ddf:	c7 04 24 61 8a 00 00 	movl   $0x8a61,(%esp)
    3de6:	e8 b7 25 00 00       	call   63a2 <scheme_register_primitive>
    3deb:	89 5c 24 10          	mov    %ebx,0x10(%esp)
    3def:	c7 44 24 0c 02 00 00 	movl   $0x2,0xc(%esp)
    3df6:	00 
    3df7:	c7 44 24 08 02 00 00 	movl   $0x2,0x8(%esp)
    3dfe:	00 
    3dff:	c7 44 24 04 08 39 00 	movl   $0x3908,0x4(%esp)
    3e06:	00 
    3e07:	c7 04 24 6b 8a 00 00 	movl   $0x8a6b,(%esp)
    3e0e:	e8 8f 25 00 00       	call   63a2 <scheme_register_primitive>
    3e13:	89 5c 24 10          	mov    %ebx,0x10(%esp)
    3e17:	c7 44 24 0c 02 00 00 	movl   $0x2,0xc(%esp)
    3e1e:	00 
    3e1f:	c7 44 24 08 02 00 00 	movl   $0x2,0x8(%esp)
    3e26:	00 
    3e27:	c7 44 24 04 12 39 00 	movl   $0x3912,0x4(%esp)
    3e2e:	00 
    3e2f:	c7 04 24 75 8a 00 00 	movl   $0x8a75,(%esp)
    3e36:	e8 67 25 00 00       	call   63a2 <scheme_register_primitive>
    3e3b:	89 5c 24 10          	mov    %ebx,0x10(%esp)
    3e3f:	c7 44 24 0c 02 00 00 	movl   $0x2,0xc(%esp)
    3e46:	00 
    3e47:	c7 44 24 08 02 00 00 	movl   $0x2,0x8(%esp)
    3e4e:	00 
    3e4f:	c7 44 24 04 1c 39 00 	movl   $0x391c,0x4(%esp)
    3e56:	00 
    3e57:	c7 04 24 81 8a 00 00 	movl   $0x8a81,(%esp)
    3e5e:	e8 3f 25 00 00       	call   63a2 <scheme_register_primitive>
    3e63:	89 5c 24 10          	mov    %ebx,0x10(%esp)
    3e67:	c7 44 24 0c 02 00 00 	movl   $0x2,0xc(%esp)
    3e6e:	00 
    3e6f:	c7 44 24 08 02 00 00 	movl   $0x2,0x8(%esp)
    3e76:	00 
    3e77:	c7 44 24 04 26 39 00 	movl   $0x3926,0x4(%esp)
    3e7e:	00 
    3e7f:	c7 04 24 8d 8a 00 00 	movl   $0x8a8d,(%esp)
    3e86:	e8 17 25 00 00       	call   63a2 <scheme_register_primitive>
    3e8b:	89 5c 24 10          	mov    %ebx,0x10(%esp)
    3e8f:	c7 44 24 0c 02 00 00 	movl   $0x2,0xc(%esp)
    3e96:	00 
    3e97:	c7 44 24 08 02 00 00 	movl   $0x2,0x8(%esp)
    3e9e:	00 
    3e9f:	c7 44 24 04 30 39 00 	movl   $0x3930,0x4(%esp)
    3ea6:	00 
    3ea7:	c7 04 24 9a 8a 00 00 	movl   $0x8a9a,(%esp)
    3eae:	e8 ef 24 00 00       	call   63a2 <scheme_register_primitive>
    3eb3:	89 5c 24 10          	mov    %ebx,0x10(%esp)
    3eb7:	c7 44 24 0c 03 00 00 	movl   $0x3,0xc(%esp)
    3ebe:	00 
    3ebf:	c7 44 24 08 03 00 00 	movl   $0x3,0x8(%esp)
    3ec6:	00 
    3ec7:	c7 44 24 04 3a 39 00 	movl   $0x393a,0x4(%esp)
    3ece:	00 
    3ecf:	c7 04 24 a7 8a 00 00 	movl   $0x8aa7,(%esp)
    3ed6:	e8 c7 24 00 00       	call   63a2 <scheme_register_primitive>
    3edb:	89 5c 24 10          	mov    %ebx,0x10(%esp)
    3edf:	c7 44 24 0c ff ff ff 	movl   $0xffffffff,0xc(%esp)
    3ee6:	ff 
    3ee7:	c7 44 24 08 01 00 00 	movl   $0x1,0x8(%esp)
    3eee:	00 
    3eef:	c7 44 24 04 44 39 00 	movl   $0x3944,0x4(%esp)
    3ef6:	00 
    3ef7:	c7 04 24 b1 8a 00 00 	movl   $0x8ab1,(%esp)
    3efe:	e8 9f 24 00 00       	call   63a2 <scheme_register_primitive>
    3f03:	89 5c 24 10          	mov    %ebx,0x10(%esp)
    3f07:	c7 44 24 0c 01 00 00 	movl   $0x1,0xc(%esp)
    3f0e:	00 
    3f0f:	c7 44 24 08 01 00 00 	movl   $0x1,0x8(%esp)
    3f16:	00 
    3f17:	c7 44 24 04 4e 39 00 	movl   $0x394e,0x4(%esp)
    3f1e:	00 
    3f1f:	c7 04 24 bf 8a 00 00 	movl   $0x8abf,(%esp)
    3f26:	e8 77 24 00 00       	call   63a2 <scheme_register_primitive>
    3f2b:	89 5c 24 10          	mov    %ebx,0x10(%esp)
    3f2f:	c7 44 24 0c 01 00 00 	movl   $0x1,0xc(%esp)
    3f36:	00 
    3f37:	c7 44 24 08 01 00 00 	movl   $0x1,0x8(%esp)
    3f3e:	00 
    3f3f:	c7 44 24 04 58 39 00 	movl   $0x3958,0x4(%esp)
    3f46:	00 
    3f47:	c7 04 24 cc 8a 00 00 	movl   $0x8acc,(%esp)
    3f4e:	e8 4f 24 00 00       	call   63a2 <scheme_register_primitive>
    3f53:	89 5c 24 10          	mov    %ebx,0x10(%esp)
    3f57:	c7 44 24 0c 01 00 00 	movl   $0x1,0xc(%esp)
    3f5e:	00 
    3f5f:	c7 44 24 08 01 00 00 	movl   $0x1,0x8(%esp)
    3f66:	00 
    3f67:	c7 44 24 04 3b 3a 00 	movl   $0x3a3b,0x4(%esp)
    3f6e:	00 
    3f6f:	c7 04 24 d9 8a 00 00 	movl   $0x8ad9,(%esp)
    3f76:	e8 27 24 00 00       	call   63a2 <scheme_register_primitive>
    3f7b:	89 5c 24 10          	mov    %ebx,0x10(%esp)
    3f7f:	c7 44 24 0c 02 00 00 	movl   $0x2,0xc(%esp)
    3f86:	00 
    3f87:	c7 44 24 08 02 00 00 	movl   $0x2,0x8(%esp)
    3f8e:	00 
    3f8f:	c7 44 24 04 62 39 00 	movl   $0x3962,0x4(%esp)
    3f96:	00 
    3f97:	c7 04 24 e6 8a 00 00 	movl   $0x8ae6,(%esp)
    3f9e:	e8 ff 23 00 00       	call   63a2 <scheme_register_primitive>
    3fa3:	83 c4 24             	add    $0x24,%esp
    3fa6:	5b                   	pop    %ebx
    3fa7:	5d                   	pop    %ebp
    3fa8:	c3                   	ret    
    3fa9:	90                   	nop
    3faa:	90                   	nop
    3fab:	90                   	nop
    3fac:	90                   	nop
    3fad:	90                   	nop
    3fae:	90                   	nop
    3faf:	90                   	nop

00003fb0 <car>:
    3fb0:	55                   	push   %ebp
    3fb1:	89 e5                	mov    %esp,%ebp
    3fb3:	8b 45 0c             	mov    0xc(%ebp),%eax
    3fb6:	8b 00                	mov    (%eax),%eax
    3fb8:	8b 40 04             	mov    0x4(%eax),%eax
    3fbb:	5d                   	pop    %ebp
    3fbc:	c3                   	ret    

00003fbd <cdr>:
    3fbd:	55                   	push   %ebp
    3fbe:	89 e5                	mov    %esp,%ebp
    3fc0:	8b 45 0c             	mov    0xc(%ebp),%eax
    3fc3:	8b 00                	mov    (%eax),%eax
    3fc5:	8b 40 08             	mov    0x8(%eax),%eax
    3fc8:	5d                   	pop    %ebp
    3fc9:	c3                   	ret    

00003fca <set_car>:
    3fca:	55                   	push   %ebp
    3fcb:	89 e5                	mov    %esp,%ebp
    3fcd:	8b 45 0c             	mov    0xc(%ebp),%eax
    3fd0:	8b 10                	mov    (%eax),%edx
    3fd2:	8b 40 04             	mov    0x4(%eax),%eax
    3fd5:	89 42 04             	mov    %eax,0x4(%edx)
    3fd8:	b8 c0 cc 12 00       	mov    $0x12ccc0,%eax
    3fdd:	5d                   	pop    %ebp
    3fde:	c3                   	ret    

00003fdf <set_cdr>:
    3fdf:	55                   	push   %ebp
    3fe0:	89 e5                	mov    %esp,%ebp
    3fe2:	8b 45 0c             	mov    0xc(%ebp),%eax
    3fe5:	8b 10                	mov    (%eax),%edx
    3fe7:	8b 40 04             	mov    0x4(%eax),%eax
    3fea:	89 42 08             	mov    %eax,0x8(%edx)
    3fed:	b8 c0 cc 12 00       	mov    $0x12ccc0,%eax
    3ff2:	5d                   	pop    %ebp
    3ff3:	c3                   	ret    

00003ff4 <null_p>:
    3ff4:	55                   	push   %ebp
    3ff5:	89 e5                	mov    %esp,%ebp
    3ff7:	b8 14 cd 12 00       	mov    $0x12cd14,%eax
    3ffc:	8b 55 0c             	mov    0xc(%ebp),%edx
    3fff:	81 3a d0 cc 12 00    	cmpl   $0x12ccd0,(%edx)
    4005:	74 05                	je     400c <null_p+0x18>
    4007:	b8 00 cd 12 00       	mov    $0x12cd00,%eax
    400c:	5d                   	pop    %ebp
    400d:	c3                   	ret    

0000400e <list_p>:
    400e:	55                   	push   %ebp
    400f:	89 e5                	mov    %esp,%ebp
    4011:	8b 45 0c             	mov    0xc(%ebp),%eax
    4014:	8b 10                	mov    (%eax),%edx
    4016:	eb 03                	jmp    401b <list_p+0xd>
    4018:	8b 52 08             	mov    0x8(%edx),%edx
    401b:	f6 c2 01             	test   $0x1,%dl
    401e:	75 06                	jne    4026 <list_p+0x18>
    4020:	66 83 3a 14          	cmpw   $0x14,(%edx)
    4024:	74 f2                	je     4018 <list_p+0xa>
    4026:	b8 14 cd 12 00       	mov    $0x12cd14,%eax
    402b:	81 fa d0 cc 12 00    	cmp    $0x12ccd0,%edx
    4031:	74 05                	je     4038 <list_p+0x2a>
    4033:	b8 00 cd 12 00       	mov    $0x12cd00,%eax
    4038:	5d                   	pop    %ebp
    4039:	c3                   	ret    

0000403a <reverse>:
    403a:	55                   	push   %ebp
    403b:	89 e5                	mov    %esp,%ebp
    403d:	b8 00 00 00 00       	mov    $0x0,%eax
    4042:	5d                   	pop    %ebp
    4043:	c3                   	ret    

00004044 <length>:
    4044:	55                   	push   %ebp
    4045:	89 e5                	mov    %esp,%ebp
    4047:	53                   	push   %ebx
    4048:	83 ec 14             	sub    $0x14,%esp
    404b:	8b 45 0c             	mov    0xc(%ebp),%eax
    404e:	8b 10                	mov    (%eax),%edx
    4050:	bb 00 00 00 00       	mov    $0x0,%ebx
    4055:	eb 06                	jmp    405d <length+0x19>
    4057:	83 c3 01             	add    $0x1,%ebx
    405a:	8b 52 08             	mov    0x8(%edx),%edx
    405d:	f6 c2 01             	test   $0x1,%dl
    4060:	75 06                	jne    4068 <length+0x24>
    4062:	66 83 3a 14          	cmpw   $0x14,(%edx)
    4066:	74 ef                	je     4057 <length+0x13>
    4068:	b8 c0 cc 12 00       	mov    $0x12ccc0,%eax
    406d:	81 fa d0 cc 12 00    	cmp    $0x12ccd0,%edx
    4073:	75 1b                	jne    4090 <length+0x4c>
    4075:	c7 04 24 10 00 00 00 	movl   $0x10,(%esp)
    407c:	e8 33 3a 00 00       	call   7ab4 <kmalloc>
    4081:	3d c0 cc 12 00       	cmp    $0x12ccc0,%eax
    4086:	74 08                	je     4090 <length+0x4c>
    4088:	66 c7 00 0a 00       	movw   $0xa,(%eax)
    408d:	89 58 04             	mov    %ebx,0x4(%eax)
    4090:	83 c4 14             	add    $0x14,%esp
    4093:	5b                   	pop    %ebx
    4094:	5d                   	pop    %ebp
    4095:	c3                   	ret    

00004096 <cons>:
    4096:	55                   	push   %ebp
    4097:	89 e5                	mov    %esp,%ebp
    4099:	53                   	push   %ebx
    409a:	83 ec 14             	sub    $0x14,%esp
    409d:	8b 5d 0c             	mov    0xc(%ebp),%ebx
    40a0:	c7 04 24 10 00 00 00 	movl   $0x10,(%esp)
    40a7:	e8 08 3a 00 00       	call   7ab4 <kmalloc>
    40ac:	3d c0 cc 12 00       	cmp    $0x12ccc0,%eax
    40b1:	74 10                	je     40c3 <cons+0x2d>
    40b3:	66 c7 00 14 00       	movw   $0x14,(%eax)
    40b8:	8b 13                	mov    (%ebx),%edx
    40ba:	89 50 04             	mov    %edx,0x4(%eax)
    40bd:	8b 53 04             	mov    0x4(%ebx),%edx
    40c0:	89 50 08             	mov    %edx,0x8(%eax)
    40c3:	83 c4 14             	add    $0x14,%esp
    40c6:	5b                   	pop    %ebx
    40c7:	5d                   	pop    %ebp
    40c8:	c3                   	ret    

000040c9 <scheme_make_pair>:
    40c9:	55                   	push   %ebp
    40ca:	89 e5                	mov    %esp,%ebp
    40cc:	83 ec 18             	sub    $0x18,%esp
    40cf:	c7 04 24 10 00 00 00 	movl   $0x10,(%esp)
    40d6:	e8 d9 39 00 00       	call   7ab4 <kmalloc>
    40db:	66 c7 00 14 00       	movw   $0x14,(%eax)
    40e0:	8b 55 08             	mov    0x8(%ebp),%edx
    40e3:	89 50 04             	mov    %edx,0x4(%eax)
    40e6:	8b 55 0c             	mov    0xc(%ebp),%edx
    40e9:	89 50 08             	mov    %edx,0x8(%eax)
    40ec:	c9                   	leave  
    40ed:	c3                   	ret    

000040ee <append>:
    40ee:	55                   	push   %ebp
    40ef:	89 e5                	mov    %esp,%ebp
    40f1:	57                   	push   %edi
    40f2:	56                   	push   %esi
    40f3:	53                   	push   %ebx
    40f4:	83 ec 2c             	sub    $0x2c,%esp
    40f7:	8b 75 08             	mov    0x8(%ebp),%esi
    40fa:	8b 45 0c             	mov    0xc(%ebp),%eax
    40fd:	8b 18                	mov    (%eax),%ebx
    40ff:	bf d0 cc 12 00       	mov    $0x12ccd0,%edi
    4104:	89 7d e4             	mov    %edi,-0x1c(%ebp)
    4107:	83 fe 01             	cmp    $0x1,%esi
    410a:	0f 8e af 00 00 00    	jle    41bf <append+0xd1>
    4110:	f6 c3 01             	test   $0x1,%bl
    4113:	75 06                	jne    411b <append+0x2d>
    4115:	66 83 3b 14          	cmpw   $0x14,(%ebx)
    4119:	74 21                	je     413c <append+0x4e>
    411b:	81 fb d0 cc 12 00    	cmp    $0x12ccd0,%ebx
    4121:	0f 85 88 00 00 00    	jne    41af <append+0xc1>
    4127:	83 ee 01             	sub    $0x1,%esi
    412a:	8b 45 0c             	mov    0xc(%ebp),%eax
    412d:	8b 18                	mov    (%eax),%ebx
    412f:	83 c0 04             	add    $0x4,%eax
    4132:	89 45 0c             	mov    %eax,0xc(%ebp)
    4135:	89 d8                	mov    %ebx,%eax
    4137:	83 fe 01             	cmp    $0x1,%esi
    413a:	7e 56                	jle    4192 <append+0xa4>
    413c:	c7 04 24 10 00 00 00 	movl   $0x10,(%esp)
    4143:	e8 6c 39 00 00       	call   7ab4 <kmalloc>
    4148:	3d c0 cc 12 00       	cmp    $0x12ccc0,%eax
    414d:	75 2a                	jne    4179 <append+0x8b>
    414f:	c7 47 08 d0 cc 12 00 	movl   $0x12ccd0,0x8(%edi)
    4156:	81 7d e4 d0 cc 12 00 	cmpl   $0x12ccd0,-0x1c(%ebp)
    415d:	74 59                	je     41b8 <append+0xca>
    415f:	8b 45 e4             	mov    -0x1c(%ebp),%eax
    4162:	8b 58 08             	mov    0x8(%eax),%ebx
    4165:	89 04 24             	mov    %eax,(%esp)
    4168:	e8 e0 38 00 00       	call   7a4d <kfree>
    416d:	81 fb d0 cc 12 00    	cmp    $0x12ccd0,%ebx
    4173:	74 43                	je     41b8 <append+0xca>
    4175:	89 d8                	mov    %ebx,%eax
    4177:	eb e9                	jmp    4162 <append+0x74>
    4179:	8b 13                	mov    (%ebx),%edx
    417b:	89 10                	mov    %edx,(%eax)
    417d:	8b 53 04             	mov    0x4(%ebx),%edx
    4180:	89 50 04             	mov    %edx,0x4(%eax)
    4183:	8b 53 08             	mov    0x8(%ebx),%edx
    4186:	89 50 08             	mov    %edx,0x8(%eax)
    4189:	8b 53 0c             	mov    0xc(%ebx),%edx
    418c:	89 50 0c             	mov    %edx,0xc(%eax)
    418f:	8b 5b 08             	mov    0x8(%ebx),%ebx
    4192:	81 7d e4 d0 cc 12 00 	cmpl   $0x12ccd0,-0x1c(%ebp)
    4199:	75 05                	jne    41a0 <append+0xb2>
    419b:	89 45 e4             	mov    %eax,-0x1c(%ebp)
    419e:	eb 03                	jmp    41a3 <append+0xb5>
    41a0:	89 47 08             	mov    %eax,0x8(%edi)
    41a3:	83 fe 01             	cmp    $0x1,%esi
    41a6:	7e 17                	jle    41bf <append+0xd1>
    41a8:	89 c7                	mov    %eax,%edi
    41aa:	e9 61 ff ff ff       	jmp    4110 <append+0x22>
    41af:	c7 45 e4 c0 cc 12 00 	movl   $0x12ccc0,-0x1c(%ebp)
    41b6:	eb 07                	jmp    41bf <append+0xd1>
    41b8:	c7 45 e4 c0 cc 12 00 	movl   $0x12ccc0,-0x1c(%ebp)
    41bf:	8b 45 e4             	mov    -0x1c(%ebp),%eax
    41c2:	83 c4 2c             	add    $0x2c,%esp
    41c5:	5b                   	pop    %ebx
    41c6:	5e                   	pop    %esi
    41c7:	5f                   	pop    %edi
    41c8:	5d                   	pop    %ebp
    41c9:	c3                   	ret    

000041ca <list>:
    41ca:	55                   	push   %ebp
    41cb:	89 e5                	mov    %esp,%ebp
    41cd:	57                   	push   %edi
    41ce:	56                   	push   %esi
    41cf:	53                   	push   %ebx
    41d0:	83 ec 2c             	sub    $0x2c,%esp
    41d3:	8b 75 08             	mov    0x8(%ebp),%esi
    41d6:	8b 5d 0c             	mov    0xc(%ebp),%ebx
    41d9:	c7 45 e4 d0 cc 12 00 	movl   $0x12ccd0,-0x1c(%ebp)
    41e0:	bf d0 cc 12 00       	mov    $0x12ccd0,%edi
    41e5:	85 f6                	test   %esi,%esi
    41e7:	7e 6d                	jle    4256 <list+0x8c>
    41e9:	c7 04 24 10 00 00 00 	movl   $0x10,(%esp)
    41f0:	e8 bf 38 00 00       	call   7ab4 <kmalloc>
    41f5:	3d c0 cc 12 00       	cmp    $0x12ccc0,%eax
    41fa:	75 29                	jne    4225 <list+0x5b>
    41fc:	8b 45 e4             	mov    -0x1c(%ebp),%eax
    41ff:	c7 40 08 d0 cc 12 00 	movl   $0x12ccd0,0x8(%eax)
    4206:	81 ff d0 cc 12 00    	cmp    $0x12ccd0,%edi
    420c:	74 43                	je     4251 <list+0x87>
    420e:	8b 5f 08             	mov    0x8(%edi),%ebx
    4211:	89 3c 24             	mov    %edi,(%esp)
    4214:	e8 34 38 00 00       	call   7a4d <kfree>
    4219:	81 fb d0 cc 12 00    	cmp    $0x12ccd0,%ebx
    421f:	74 30                	je     4251 <list+0x87>
    4221:	89 df                	mov    %ebx,%edi
    4223:	eb e9                	jmp    420e <list+0x44>
    4225:	81 ff d0 cc 12 00    	cmp    $0x12ccd0,%edi
    422b:	75 05                	jne    4232 <list+0x68>
    422d:	89 c7                	mov    %eax,%edi
    422f:	90                   	nop
    4230:	eb 06                	jmp    4238 <list+0x6e>
    4232:	8b 55 e4             	mov    -0x1c(%ebp),%edx
    4235:	89 42 08             	mov    %eax,0x8(%edx)
    4238:	66 c7 00 14 00       	movw   $0x14,(%eax)
    423d:	8b 13                	mov    (%ebx),%edx
    423f:	89 50 04             	mov    %edx,0x4(%eax)
    4242:	83 ee 01             	sub    $0x1,%esi
    4245:	85 f6                	test   %esi,%esi
    4247:	7e 0d                	jle    4256 <list+0x8c>
    4249:	83 c3 04             	add    $0x4,%ebx
    424c:	89 45 e4             	mov    %eax,-0x1c(%ebp)
    424f:	eb 98                	jmp    41e9 <list+0x1f>
    4251:	bf c0 cc 12 00       	mov    $0x12ccc0,%edi
    4256:	89 f8                	mov    %edi,%eax
    4258:	83 c4 2c             	add    $0x2c,%esp
    425b:	5b                   	pop    %ebx
    425c:	5e                   	pop    %esi
    425d:	5f                   	pop    %edi
    425e:	5d                   	pop    %ebp
    425f:	c3                   	ret    

00004260 <scheme_list_to_string>:
    4260:	55                   	push   %ebp
    4261:	89 e5                	mov    %esp,%ebp
    4263:	57                   	push   %edi
    4264:	56                   	push   %esi
    4265:	53                   	push   %ebx
    4266:	83 ec 1c             	sub    $0x1c,%esp
    4269:	8b 7d 08             	mov    0x8(%ebp),%edi
    426c:	c6 07 28             	movb   $0x28,(%edi)
    426f:	8d 77 01             	lea    0x1(%edi),%esi
    4272:	8b 5d 0c             	mov    0xc(%ebp),%ebx
    4275:	eb 34                	jmp    42ab <scheme_list_to_string+0x4b>
    4277:	8b 43 04             	mov    0x4(%ebx),%eax
    427a:	a8 01                	test   $0x1,%al
    427c:	75 16                	jne    4294 <scheme_list_to_string+0x34>
    427e:	66 83 38 14          	cmpw   $0x14,(%eax)
    4282:	75 10                	jne    4294 <scheme_list_to_string+0x34>
    4284:	89 44 24 04          	mov    %eax,0x4(%esp)
    4288:	89 34 24             	mov    %esi,(%esp)
    428b:	e8 d0 ff ff ff       	call   4260 <scheme_list_to_string>
    4290:	01 c6                	add    %eax,%esi
    4292:	eb 0e                	jmp    42a2 <scheme_list_to_string+0x42>
    4294:	89 44 24 04          	mov    %eax,0x4(%esp)
    4298:	89 34 24             	mov    %esi,(%esp)
    429b:	e8 60 1b 00 00       	call   5e00 <scheme_obj_to_string>
    42a0:	01 c6                	add    %eax,%esi
    42a2:	c6 06 20             	movb   $0x20,(%esi)
    42a5:	83 c6 01             	add    $0x1,%esi
    42a8:	8b 5b 08             	mov    0x8(%ebx),%ebx
    42ab:	f6 c3 01             	test   $0x1,%bl
    42ae:	75 06                	jne    42b6 <scheme_list_to_string+0x56>
    42b0:	66 83 3b 14          	cmpw   $0x14,(%ebx)
    42b4:	74 c1                	je     4277 <scheme_list_to_string+0x17>
    42b6:	81 fb d0 cc 12 00    	cmp    $0x12ccd0,%ebx
    42bc:	74 1e                	je     42dc <scheme_list_to_string+0x7c>
    42be:	c6 06 2e             	movb   $0x2e,(%esi)
    42c1:	c6 46 01 20          	movb   $0x20,0x1(%esi)
    42c5:	8d 76 02             	lea    0x2(%esi),%esi
    42c8:	89 5c 24 04          	mov    %ebx,0x4(%esp)
    42cc:	89 34 24             	mov    %esi,(%esp)
    42cf:	e8 2c 1b 00 00       	call   5e00 <scheme_obj_to_string>
    42d4:	01 c6                	add    %eax,%esi
    42d6:	c6 06 20             	movb   $0x20,(%esi)
    42d9:	83 c6 01             	add    $0x1,%esi
    42dc:	c6 46 ff 29          	movb   $0x29,-0x1(%esi)
    42e0:	c6 06 00             	movb   $0x0,(%esi)
    42e3:	89 f0                	mov    %esi,%eax
    42e5:	29 f8                	sub    %edi,%eax
    42e7:	83 c4 1c             	add    $0x1c,%esp
    42ea:	5b                   	pop    %ebx
    42eb:	5e                   	pop    %esi
    42ec:	5f                   	pop    %edi
    42ed:	5d                   	pop    %ebp
    42ee:	c3                   	ret    

000042ef <scheme_init_list>:
    42ef:	55                   	push   %ebp
    42f0:	89 e5                	mov    %esp,%ebp
    42f2:	53                   	push   %ebx
    42f3:	83 ec 24             	sub    $0x24,%esp
    42f6:	8b 5d 08             	mov    0x8(%ebp),%ebx
    42f9:	66 c7 05 d0 cc 12 00 	movw   $0x13,0x12ccd0
    4300:	13 00 
    4302:	89 5c 24 10          	mov    %ebx,0x10(%esp)
    4306:	c7 44 24 0c 02 00 00 	movl   $0x2,0xc(%esp)
    430d:	00 
    430e:	c7 44 24 08 02 00 00 	movl   $0x2,0x8(%esp)
    4315:	00 
    4316:	c7 44 24 04 96 40 00 	movl   $0x4096,0x4(%esp)
    431d:	00 
    431e:	c7 04 24 03 8b 00 00 	movl   $0x8b03,(%esp)
    4325:	e8 78 20 00 00       	call   63a2 <scheme_register_primitive>
    432a:	89 5c 24 10          	mov    %ebx,0x10(%esp)
    432e:	c7 44 24 0c 01 00 00 	movl   $0x1,0xc(%esp)
    4335:	00 
    4336:	c7 44 24 08 01 00 00 	movl   $0x1,0x8(%esp)
    433d:	00 
    433e:	c7 44 24 04 b0 3f 00 	movl   $0x3fb0,0x4(%esp)
    4345:	00 
    4346:	c7 04 24 08 8b 00 00 	movl   $0x8b08,(%esp)
    434d:	e8 50 20 00 00       	call   63a2 <scheme_register_primitive>
    4352:	89 5c 24 10          	mov    %ebx,0x10(%esp)
    4356:	c7 44 24 0c 01 00 00 	movl   $0x1,0xc(%esp)
    435d:	00 
    435e:	c7 44 24 08 01 00 00 	movl   $0x1,0x8(%esp)
    4365:	00 
    4366:	c7 44 24 04 bd 3f 00 	movl   $0x3fbd,0x4(%esp)
    436d:	00 
    436e:	c7 04 24 0c 8b 00 00 	movl   $0x8b0c,(%esp)
    4375:	e8 28 20 00 00       	call   63a2 <scheme_register_primitive>
    437a:	89 5c 24 10          	mov    %ebx,0x10(%esp)
    437e:	c7 44 24 0c 02 00 00 	movl   $0x2,0xc(%esp)
    4385:	00 
    4386:	c7 44 24 08 02 00 00 	movl   $0x2,0x8(%esp)
    438d:	00 
    438e:	c7 44 24 04 ca 3f 00 	movl   $0x3fca,0x4(%esp)
    4395:	00 
    4396:	c7 04 24 10 8b 00 00 	movl   $0x8b10,(%esp)
    439d:	e8 00 20 00 00       	call   63a2 <scheme_register_primitive>
    43a2:	89 5c 24 10          	mov    %ebx,0x10(%esp)
    43a6:	c7 44 24 0c 02 00 00 	movl   $0x2,0xc(%esp)
    43ad:	00 
    43ae:	c7 44 24 08 02 00 00 	movl   $0x2,0x8(%esp)
    43b5:	00 
    43b6:	c7 44 24 04 df 3f 00 	movl   $0x3fdf,0x4(%esp)
    43bd:	00 
    43be:	c7 04 24 19 8b 00 00 	movl   $0x8b19,(%esp)
    43c5:	e8 d8 1f 00 00       	call   63a2 <scheme_register_primitive>
    43ca:	89 5c 24 10          	mov    %ebx,0x10(%esp)
    43ce:	c7 44 24 0c 01 00 00 	movl   $0x1,0xc(%esp)
    43d5:	00 
    43d6:	c7 44 24 08 01 00 00 	movl   $0x1,0x8(%esp)
    43dd:	00 
    43de:	c7 44 24 04 f4 3f 00 	movl   $0x3ff4,0x4(%esp)
    43e5:	00 
    43e6:	c7 04 24 22 8b 00 00 	movl   $0x8b22,(%esp)
    43ed:	e8 b0 1f 00 00       	call   63a2 <scheme_register_primitive>
    43f2:	89 5c 24 10          	mov    %ebx,0x10(%esp)
    43f6:	c7 44 24 0c 01 00 00 	movl   $0x1,0xc(%esp)
    43fd:	00 
    43fe:	c7 44 24 08 01 00 00 	movl   $0x1,0x8(%esp)
    4405:	00 
    4406:	c7 44 24 04 0e 40 00 	movl   $0x400e,0x4(%esp)
    440d:	00 
    440e:	c7 04 24 28 8b 00 00 	movl   $0x8b28,(%esp)
    4415:	e8 88 1f 00 00       	call   63a2 <scheme_register_primitive>
    441a:	89 5c 24 10          	mov    %ebx,0x10(%esp)
    441e:	c7 44 24 0c ff ff ff 	movl   $0xffffffff,0xc(%esp)
    4425:	ff 
    4426:	c7 44 24 08 00 00 00 	movl   $0x0,0x8(%esp)
    442d:	00 
    442e:	c7 44 24 04 ca 41 00 	movl   $0x41ca,0x4(%esp)
    4435:	00 
    4436:	c7 04 24 c7 8a 00 00 	movl   $0x8ac7,(%esp)
    443d:	e8 60 1f 00 00       	call   63a2 <scheme_register_primitive>
    4442:	89 5c 24 10          	mov    %ebx,0x10(%esp)
    4446:	c7 44 24 0c 01 00 00 	movl   $0x1,0xc(%esp)
    444d:	00 
    444e:	c7 44 24 08 01 00 00 	movl   $0x1,0x8(%esp)
    4455:	00 
    4456:	c7 44 24 04 44 40 00 	movl   $0x4044,0x4(%esp)
    445d:	00 
    445e:	c7 04 24 1c 8a 00 00 	movl   $0x8a1c,(%esp)
    4465:	e8 38 1f 00 00       	call   63a2 <scheme_register_primitive>
    446a:	89 5c 24 10          	mov    %ebx,0x10(%esp)
    446e:	c7 44 24 0c ff ff ff 	movl   $0xffffffff,0xc(%esp)
    4475:	ff 
    4476:	c7 44 24 08 00 00 00 	movl   $0x0,0x8(%esp)
    447d:	00 
    447e:	c7 44 24 04 ee 40 00 	movl   $0x40ee,0x4(%esp)
    4485:	00 
    4486:	c7 04 24 b8 8a 00 00 	movl   $0x8ab8,(%esp)
    448d:	e8 10 1f 00 00       	call   63a2 <scheme_register_primitive>
    4492:	89 5c 24 10          	mov    %ebx,0x10(%esp)
    4496:	c7 44 24 0c 01 00 00 	movl   $0x1,0xc(%esp)
    449d:	00 
    449e:	c7 44 24 08 01 00 00 	movl   $0x1,0x8(%esp)
    44a5:	00 
    44a6:	c7 44 24 04 3a 40 00 	movl   $0x403a,0x4(%esp)
    44ad:	00 
    44ae:	c7 04 24 2e 8b 00 00 	movl   $0x8b2e,(%esp)
    44b5:	e8 e8 1e 00 00       	call   63a2 <scheme_register_primitive>
    44ba:	83 c4 24             	add    $0x24,%esp
    44bd:	5b                   	pop    %ebx
    44be:	5d                   	pop    %ebp
    44bf:	c3                   	ret    

000044c0 <scheme_init_vector>:
    44c0:	55                   	push   %ebp
    44c1:	89 e5                	mov    %esp,%ebp
    44c3:	5d                   	pop    %ebp
    44c4:	c3                   	ret    

000044c5 <scheme_vector_to_string>:
    44c5:	55                   	push   %ebp
    44c6:	89 e5                	mov    %esp,%ebp
    44c8:	57                   	push   %edi
    44c9:	56                   	push   %esi
    44ca:	53                   	push   %ebx
    44cb:	83 ec 1c             	sub    $0x1c,%esp
    44ce:	8b 45 0c             	mov    0xc(%ebp),%eax
    44d1:	8b 55 08             	mov    0x8(%ebp),%edx
    44d4:	c6 02 23             	movb   $0x23,(%edx)
    44d7:	c6 42 01 28          	movb   $0x28,0x1(%edx)
    44db:	89 d3                	mov    %edx,%ebx
    44dd:	83 c3 02             	add    $0x2,%ebx
    44e0:	8b 78 04             	mov    0x4(%eax),%edi
    44e3:	8b 70 08             	mov    0x8(%eax),%esi
    44e6:	85 f6                	test   %esi,%esi
    44e8:	7e 3c                	jle    4526 <scheme_vector_to_string+0x61>
    44ea:	8b 07                	mov    (%edi),%eax
    44ec:	a8 01                	test   $0x1,%al
    44ee:	75 16                	jne    4506 <scheme_vector_to_string+0x41>
    44f0:	66 83 38 15          	cmpw   $0x15,(%eax)
    44f4:	75 10                	jne    4506 <scheme_vector_to_string+0x41>
    44f6:	89 44 24 04          	mov    %eax,0x4(%esp)
    44fa:	89 1c 24             	mov    %ebx,(%esp)
    44fd:	e8 c3 ff ff ff       	call   44c5 <scheme_vector_to_string>
    4502:	01 c3                	add    %eax,%ebx
    4504:	eb 0e                	jmp    4514 <scheme_vector_to_string+0x4f>
    4506:	89 44 24 04          	mov    %eax,0x4(%esp)
    450a:	89 1c 24             	mov    %ebx,(%esp)
    450d:	e8 ee 18 00 00       	call   5e00 <scheme_obj_to_string>
    4512:	01 c3                	add    %eax,%ebx
    4514:	c6 03 20             	movb   $0x20,(%ebx)
    4517:	83 c3 01             	add    $0x1,%ebx
    451a:	83 ee 01             	sub    $0x1,%esi
    451d:	85 f6                	test   %esi,%esi
    451f:	7e 05                	jle    4526 <scheme_vector_to_string+0x61>
    4521:	83 c7 04             	add    $0x4,%edi
    4524:	eb c4                	jmp    44ea <scheme_vector_to_string+0x25>
    4526:	c6 43 ff 29          	movb   $0x29,-0x1(%ebx)
    452a:	c6 03 00             	movb   $0x0,(%ebx)
    452d:	89 d8                	mov    %ebx,%eax
    452f:	2b 45 08             	sub    0x8(%ebp),%eax
    4532:	83 c4 1c             	add    $0x1c,%esp
    4535:	5b                   	pop    %ebx
    4536:	5e                   	pop    %esi
    4537:	5f                   	pop    %edi
    4538:	5d                   	pop    %ebp
    4539:	c3                   	ret    

0000453a <scheme_make_vector>:
    453a:	55                   	push   %ebp
    453b:	89 e5                	mov    %esp,%ebp
    453d:	57                   	push   %edi
    453e:	56                   	push   %esi
    453f:	53                   	push   %ebx
    4540:	83 ec 1c             	sub    $0x1c,%esp
    4543:	8b 75 08             	mov    0x8(%ebp),%esi
    4546:	8b 5d 0c             	mov    0xc(%ebp),%ebx
    4549:	c7 04 24 10 00 00 00 	movl   $0x10,(%esp)
    4550:	e8 5f 35 00 00       	call   7ab4 <kmalloc>
    4555:	89 c7                	mov    %eax,%edi
    4557:	8d 04 b5 00 00 00 00 	lea    0x0(,%esi,4),%eax
    455e:	89 04 24             	mov    %eax,(%esp)
    4561:	e8 4e 35 00 00       	call   7ab4 <kmalloc>
    4566:	66 c7 07 15 00       	movw   $0x15,(%edi)
    456b:	89 47 04             	mov    %eax,0x4(%edi)
    456e:	89 77 08             	mov    %esi,0x8(%edi)
    4571:	85 f6                	test   %esi,%esi
    4573:	7e 0d                	jle    4582 <scheme_make_vector+0x48>
    4575:	89 18                	mov    %ebx,(%eax)
    4577:	83 c0 04             	add    $0x4,%eax
    457a:	83 c3 10             	add    $0x10,%ebx
    457d:	83 ee 01             	sub    $0x1,%esi
    4580:	75 f3                	jne    4575 <scheme_make_vector+0x3b>
    4582:	89 f8                	mov    %edi,%eax
    4584:	83 c4 1c             	add    $0x1c,%esp
    4587:	5b                   	pop    %ebx
    4588:	5e                   	pop    %esi
    4589:	5f                   	pop    %edi
    458a:	5d                   	pop    %ebp
    458b:	c3                   	ret    
    458c:	90                   	nop
    458d:	90                   	nop
    458e:	90                   	nop
    458f:	90                   	nop

00004590 <char_ready_p>:
    4590:	55                   	push   %ebp
    4591:	89 e5                	mov    %esp,%ebp
    4593:	b8 14 cd 12 00       	mov    $0x12cd14,%eax
    4598:	5d                   	pop    %ebp
    4599:	c3                   	ret    

0000459a <eof_object_p>:
    459a:	55                   	push   %ebp
    459b:	89 e5                	mov    %esp,%ebp
    459d:	83 ec 18             	sub    $0x18,%esp
    45a0:	8b 45 0c             	mov    0xc(%ebp),%eax
    45a3:	8b 00                	mov    (%eax),%eax
    45a5:	89 04 24             	mov    %eax,(%esp)
    45a8:	e8 53 0a 00 00       	call   5000 <scheme_port_peek_char>
    45ad:	89 c2                	mov    %eax,%edx
    45af:	b8 14 cd 12 00       	mov    $0x12cd14,%eax
    45b4:	80 fa ff             	cmp    $0xff,%dl
    45b7:	74 05                	je     45be <eof_object_p+0x24>
    45b9:	b8 00 cd 12 00       	mov    $0x12cd00,%eax
    45be:	c9                   	leave  
    45bf:	c3                   	ret    

000045c0 <peek_char>:
    45c0:	55                   	push   %ebp
    45c1:	89 e5                	mov    %esp,%ebp
    45c3:	83 ec 18             	sub    $0x18,%esp
    45c6:	8b 45 0c             	mov    0xc(%ebp),%eax
    45c9:	8b 00                	mov    (%eax),%eax
    45cb:	89 04 24             	mov    %eax,(%esp)
    45ce:	e8 2d 0a 00 00       	call   5000 <scheme_port_peek_char>
    45d3:	0f be c0             	movsbl %al,%eax
    45d6:	01 c0                	add    %eax,%eax
    45d8:	83 c8 01             	or     $0x1,%eax
    45db:	c9                   	leave  
    45dc:	c3                   	ret    

000045dd <read_char>:
    45dd:	55                   	push   %ebp
    45de:	89 e5                	mov    %esp,%ebp
    45e0:	83 ec 18             	sub    $0x18,%esp
    45e3:	8b 45 0c             	mov    0xc(%ebp),%eax
    45e6:	8b 00                	mov    (%eax),%eax
    45e8:	89 04 24             	mov    %eax,(%esp)
    45eb:	e8 bd 0a 00 00       	call   50ad <scheme_port_get_char>
    45f0:	0f be c0             	movsbl %al,%eax
    45f3:	01 c0                	add    %eax,%eax
    45f5:	83 c8 01             	or     $0x1,%eax
    45f8:	c9                   	leave  
    45f9:	c3                   	ret    

000045fa <_token_to_obj>:
    45fa:	55                   	push   %ebp
    45fb:	89 e5                	mov    %esp,%ebp
    45fd:	83 ec 18             	sub    $0x18,%esp
    4600:	8b 10                	mov    (%eax),%edx
    4602:	83 ea 11             	sub    $0x11,%edx
    4605:	83 fa 07             	cmp    $0x7,%edx
    4608:	77 51                	ja     465b <_token_to_obj+0x61>
    460a:	ff 24 95 20 86 00 00 	jmp    *0x8620(,%edx,4)
    4611:	b8 00 cd 12 00       	mov    $0x12cd00,%eax
    4616:	eb 48                	jmp    4660 <_token_to_obj+0x66>
    4618:	b8 14 cd 12 00       	mov    $0x12cd14,%eax
    461d:	eb 41                	jmp    4660 <_token_to_obj+0x66>
    461f:	8b 40 04             	mov    0x4(%eax),%eax
    4622:	89 04 24             	mov    %eax,(%esp)
    4625:	e8 c6 15 00 00       	call   5bf0 <scheme_make_symbol>
    462a:	eb 34                	jmp    4660 <_token_to_obj+0x66>
    462c:	8b 40 04             	mov    0x4(%eax),%eax
    462f:	89 04 24             	mov    %eax,(%esp)
    4632:	e8 bc 33 00 00       	call   79f3 <atoi>
    4637:	89 04 24             	mov    %eax,(%esp)
    463a:	e8 bd 11 00 00       	call   57fc <scheme_make_integer_numb>
    463f:	eb 1f                	jmp    4660 <_token_to_obj+0x66>
    4641:	8b 40 04             	mov    0x4(%eax),%eax
    4644:	0f be 00             	movsbl (%eax),%eax
    4647:	01 c0                	add    %eax,%eax
    4649:	83 c8 01             	or     $0x1,%eax
    464c:	eb 12                	jmp    4660 <_token_to_obj+0x66>
    464e:	8b 40 04             	mov    0x4(%eax),%eax
    4651:	89 04 24             	mov    %eax,(%esp)
    4654:	e8 7c f3 ff ff       	call   39d5 <scheme_make_string>
    4659:	eb 05                	jmp    4660 <_token_to_obj+0x66>
    465b:	b8 c0 cc 12 00       	mov    $0x12ccc0,%eax
    4660:	c9                   	leave  
    4661:	c3                   	ret    

00004662 <_create_vector>:
    4662:	55                   	push   %ebp
    4663:	89 e5                	mov    %esp,%ebp
    4665:	57                   	push   %edi
    4666:	56                   	push   %esi
    4667:	53                   	push   %ebx
    4668:	83 ec 2c             	sub    $0x2c,%esp
    466b:	89 c3                	mov    %eax,%ebx
    466d:	8b 10                	mov    (%eax),%edx
    466f:	8b 02                	mov    (%edx),%eax
    4671:	b9 00 00 00 00       	mov    $0x0,%ecx
    4676:	bf 00 00 00 00       	mov    $0x0,%edi
    467b:	83 f8 ff             	cmp    $0xffffffff,%eax
    467e:	74 3b                	je     46bb <_create_vector+0x59>
    4680:	83 f8 04             	cmp    $0x4,%eax
    4683:	74 12                	je     4697 <_create_vector+0x35>
    4685:	83 f8 05             	cmp    $0x5,%eax
    4688:	74 18                	je     46a2 <_create_vector+0x40>
    468a:	83 f8 03             	cmp    $0x3,%eax
    468d:	8d 76 00             	lea    0x0(%esi),%esi
    4690:	75 15                	jne    46a7 <_create_vector+0x45>
    4692:	83 c1 01             	add    $0x1,%ecx
    4695:	eb 16                	jmp    46ad <_create_vector+0x4b>
    4697:	83 e9 01             	sub    $0x1,%ecx
    469a:	83 f9 01             	cmp    $0x1,%ecx
    469d:	83 d7 00             	adc    $0x0,%edi
    46a0:	eb 0b                	jmp    46ad <_create_vector+0x4b>
    46a2:	83 c1 01             	add    $0x1,%ecx
    46a5:	eb 06                	jmp    46ad <_create_vector+0x4b>
    46a7:	83 f9 01             	cmp    $0x1,%ecx
    46aa:	83 d7 00             	adc    $0x0,%edi
    46ad:	83 c2 08             	add    $0x8,%edx
    46b0:	8b 02                	mov    (%edx),%eax
    46b2:	83 f8 ff             	cmp    $0xffffffff,%eax
    46b5:	74 04                	je     46bb <_create_vector+0x59>
    46b7:	85 c9                	test   %ecx,%ecx
    46b9:	79 c5                	jns    4680 <_create_vector+0x1e>
    46bb:	c7 04 24 10 00 00 00 	movl   $0x10,(%esp)
    46c2:	e8 ed 33 00 00       	call   7ab4 <kmalloc>
    46c7:	89 45 e4             	mov    %eax,-0x1c(%ebp)
    46ca:	8d 04 bd 00 00 00 00 	lea    0x0(,%edi,4),%eax
    46d1:	89 04 24             	mov    %eax,(%esp)
    46d4:	e8 db 33 00 00       	call   7ab4 <kmalloc>
    46d9:	8b 55 e4             	mov    -0x1c(%ebp),%edx
    46dc:	66 c7 02 15 00       	movw   $0x15,(%edx)
    46e1:	89 42 04             	mov    %eax,0x4(%edx)
    46e4:	89 7a 08             	mov    %edi,0x8(%edx)
    46e7:	8d 70 04             	lea    0x4(%eax),%esi
    46ea:	eb 3e                	jmp    472a <_create_vector+0xc8>
    46ec:	83 fa 03             	cmp    $0x3,%edx
    46ef:	74 09                	je     46fa <_create_vector+0x98>
    46f1:	83 fa 05             	cmp    $0x5,%edx
    46f4:	75 26                	jne    471c <_create_vector+0xba>
    46f6:	66 90                	xchg   %ax,%ax
    46f8:	eb 11                	jmp    470b <_create_vector+0xa9>
    46fa:	83 c0 08             	add    $0x8,%eax
    46fd:	89 03                	mov    %eax,(%ebx)
    46ff:	89 d8                	mov    %ebx,%eax
    4701:	e8 42 00 00 00       	call   4748 <_create_list>
    4706:	89 46 fc             	mov    %eax,-0x4(%esi)
    4709:	eb 1c                	jmp    4727 <_create_vector+0xc5>
    470b:	83 c0 08             	add    $0x8,%eax
    470e:	89 03                	mov    %eax,(%ebx)
    4710:	89 d8                	mov    %ebx,%eax
    4712:	e8 4b ff ff ff       	call   4662 <_create_vector>
    4717:	89 46 fc             	mov    %eax,-0x4(%esi)
    471a:	eb 0b                	jmp    4727 <_create_vector+0xc5>
    471c:	e8 d9 fe ff ff       	call   45fa <_token_to_obj>
    4721:	89 46 fc             	mov    %eax,-0x4(%esi)
    4724:	83 03 08             	addl   $0x8,(%ebx)
    4727:	83 c6 04             	add    $0x4,%esi
    472a:	8b 03                	mov    (%ebx),%eax
    472c:	8b 10                	mov    (%eax),%edx
    472e:	83 fa ff             	cmp    $0xffffffff,%edx
    4731:	74 05                	je     4738 <_create_vector+0xd6>
    4733:	83 fa 04             	cmp    $0x4,%edx
    4736:	75 b4                	jne    46ec <_create_vector+0x8a>
    4738:	83 c0 08             	add    $0x8,%eax
    473b:	89 03                	mov    %eax,(%ebx)
    473d:	8b 45 e4             	mov    -0x1c(%ebp),%eax
    4740:	83 c4 2c             	add    $0x2c,%esp
    4743:	5b                   	pop    %ebx
    4744:	5e                   	pop    %esi
    4745:	5f                   	pop    %edi
    4746:	5d                   	pop    %ebp
    4747:	c3                   	ret    

00004748 <_create_list>:
    4748:	55                   	push   %ebp
    4749:	89 e5                	mov    %esp,%ebp
    474b:	57                   	push   %edi
    474c:	56                   	push   %esi
    474d:	53                   	push   %ebx
    474e:	83 ec 2c             	sub    $0x2c,%esp
    4751:	89 c3                	mov    %eax,%ebx
    4753:	be d0 cc 12 00       	mov    $0x12ccd0,%esi
    4758:	89 75 e4             	mov    %esi,-0x1c(%ebp)
    475b:	bf 00 00 00 00       	mov    $0x0,%edi
    4760:	e9 c7 00 00 00       	jmp    482c <_create_list+0xe4>
    4765:	83 fa 05             	cmp    $0x5,%edx
    4768:	74 38                	je     47a2 <_create_list+0x5a>
    476a:	83 fa 05             	cmp    $0x5,%edx
    476d:	77 0b                	ja     477a <_create_list+0x32>
    476f:	83 fa 03             	cmp    $0x3,%edx
    4772:	75 67                	jne    47db <_create_list+0x93>
    4774:	8d 74 26 00          	lea    0x0(%esi,%eiz,1),%esi
    4778:	eb 18                	jmp    4792 <_create_list+0x4a>
    477a:	83 fa 06             	cmp    $0x6,%edx
    477d:	8d 76 00             	lea    0x0(%esi),%esi
    4780:	74 30                	je     47b2 <_create_list+0x6a>
    4782:	83 fa 0b             	cmp    $0xb,%edx
    4785:	8d 76 00             	lea    0x0(%esi),%esi
    4788:	75 51                	jne    47db <_create_list+0x93>
    478a:	8d b6 00 00 00 00    	lea    0x0(%esi),%esi
    4790:	eb 30                	jmp    47c2 <_create_list+0x7a>
    4792:	83 c0 08             	add    $0x8,%eax
    4795:	89 03                	mov    %eax,(%ebx)
    4797:	89 d8                	mov    %ebx,%eax
    4799:	e8 aa ff ff ff       	call   4748 <_create_list>
    479e:	66 90                	xchg   %ax,%ax
    47a0:	eb 41                	jmp    47e3 <_create_list+0x9b>
    47a2:	83 c0 08             	add    $0x8,%eax
    47a5:	89 03                	mov    %eax,(%ebx)
    47a7:	89 d8                	mov    %ebx,%eax
    47a9:	e8 b4 fe ff ff       	call   4662 <_create_vector>
    47ae:	66 90                	xchg   %ax,%ax
    47b0:	eb 31                	jmp    47e3 <_create_list+0x9b>
    47b2:	83 c0 08             	add    $0x8,%eax
    47b5:	89 03                	mov    %eax,(%ebx)
    47b7:	89 d8                	mov    %ebx,%eax
    47b9:	e8 99 00 00 00       	call   4857 <_create_quoted>
    47be:	66 90                	xchg   %ax,%ax
    47c0:	eb 21                	jmp    47e3 <_create_list+0x9b>
    47c2:	83 c0 08             	add    $0x8,%eax
    47c5:	89 03                	mov    %eax,(%ebx)
    47c7:	85 ff                	test   %edi,%edi
    47c9:	74 09                	je     47d4 <_create_list+0x8c>
    47cb:	c7 45 e4 c0 cc 12 00 	movl   $0x12ccc0,-0x1c(%ebp)
    47d2:	eb 78                	jmp    484c <_create_list+0x104>
    47d4:	bf 01 00 00 00       	mov    $0x1,%edi
    47d9:	eb 51                	jmp    482c <_create_list+0xe4>
    47db:	e8 1a fe ff ff       	call   45fa <_token_to_obj>
    47e0:	83 03 08             	addl   $0x8,(%ebx)
    47e3:	85 ff                	test   %edi,%edi
    47e5:	75 20                	jne    4807 <_create_list+0xbf>
    47e7:	c7 44 24 04 d0 cc 12 	movl   $0x12ccd0,0x4(%esp)
    47ee:	00 
    47ef:	89 04 24             	mov    %eax,(%esp)
    47f2:	e8 d2 f8 ff ff       	call   40c9 <scheme_make_pair>
    47f7:	81 7d e4 d0 cc 12 00 	cmpl   $0x12ccd0,-0x1c(%ebp)
    47fe:	75 19                	jne    4819 <_create_list+0xd1>
    4800:	89 c6                	mov    %eax,%esi
    4802:	89 45 e4             	mov    %eax,-0x1c(%ebp)
    4805:	eb 25                	jmp    482c <_create_list+0xe4>
    4807:	81 7d e4 d0 cc 12 00 	cmpl   $0x12ccd0,-0x1c(%ebp)
    480e:	75 09                	jne    4819 <_create_list+0xd1>
    4810:	c7 45 e4 c0 cc 12 00 	movl   $0x12ccc0,-0x1c(%ebp)
    4817:	eb 33                	jmp    484c <_create_list+0x104>
    4819:	f7 c6 01 00 00 00    	test   $0x1,%esi
    481f:	75 24                	jne    4845 <_create_list+0xfd>
    4821:	66 83 3e 14          	cmpw   $0x14,(%esi)
    4825:	75 1e                	jne    4845 <_create_list+0xfd>
    4827:	89 46 08             	mov    %eax,0x8(%esi)
    482a:	89 c6                	mov    %eax,%esi
    482c:	8b 03                	mov    (%ebx),%eax
    482e:	8b 10                	mov    (%eax),%edx
    4830:	83 fa ff             	cmp    $0xffffffff,%edx
    4833:	74 09                	je     483e <_create_list+0xf6>
    4835:	83 fa 04             	cmp    $0x4,%edx
    4838:	0f 85 27 ff ff ff    	jne    4765 <_create_list+0x1d>
    483e:	83 c0 08             	add    $0x8,%eax
    4841:	89 03                	mov    %eax,(%ebx)
    4843:	eb 07                	jmp    484c <_create_list+0x104>
    4845:	c7 45 e4 c0 cc 12 00 	movl   $0x12ccc0,-0x1c(%ebp)
    484c:	8b 45 e4             	mov    -0x1c(%ebp),%eax
    484f:	83 c4 2c             	add    $0x2c,%esp
    4852:	5b                   	pop    %ebx
    4853:	5e                   	pop    %esi
    4854:	5f                   	pop    %edi
    4855:	5d                   	pop    %ebp
    4856:	c3                   	ret    

00004857 <_create_quoted>:
    4857:	55                   	push   %ebp
    4858:	89 e5                	mov    %esp,%ebp
    485a:	53                   	push   %ebx
    485b:	83 ec 14             	sub    $0x14,%esp
    485e:	89 c3                	mov    %eax,%ebx
    4860:	8b 08                	mov    (%eax),%ecx
    4862:	8b 11                	mov    (%ecx),%edx
    4864:	b8 c0 cc 12 00       	mov    $0x12ccc0,%eax
    4869:	83 fa 04             	cmp    $0x4,%edx
    486c:	0f 84 86 00 00 00    	je     48f8 <_create_quoted+0xa1>
    4872:	83 fa 04             	cmp    $0x4,%edx
    4875:	77 0b                	ja     4882 <_create_quoted+0x2b>
    4877:	83 fa 03             	cmp    $0x3,%edx
    487a:	75 48                	jne    48c4 <_create_quoted+0x6d>
    487c:	8d 74 26 00          	lea    0x0(%esi,%eiz,1),%esi
    4880:	eb 18                	jmp    489a <_create_quoted+0x43>
    4882:	83 fa 05             	cmp    $0x5,%edx
    4885:	8d 76 00             	lea    0x0(%esi),%esi
    4888:	74 1e                	je     48a8 <_create_quoted+0x51>
    488a:	83 fa 06             	cmp    $0x6,%edx
    488d:	8d 76 00             	lea    0x0(%esi),%esi
    4890:	75 32                	jne    48c4 <_create_quoted+0x6d>
    4892:	8d b6 00 00 00 00    	lea    0x0(%esi),%esi
    4898:	eb 1c                	jmp    48b6 <_create_quoted+0x5f>
    489a:	83 c1 08             	add    $0x8,%ecx
    489d:	89 0b                	mov    %ecx,(%ebx)
    489f:	89 d8                	mov    %ebx,%eax
    48a1:	e8 a2 fe ff ff       	call   4748 <_create_list>
    48a6:	eb 26                	jmp    48ce <_create_quoted+0x77>
    48a8:	83 c1 08             	add    $0x8,%ecx
    48ab:	89 0b                	mov    %ecx,(%ebx)
    48ad:	89 d8                	mov    %ebx,%eax
    48af:	e8 ae fd ff ff       	call   4662 <_create_vector>
    48b4:	eb 18                	jmp    48ce <_create_quoted+0x77>
    48b6:	83 c1 08             	add    $0x8,%ecx
    48b9:	89 0b                	mov    %ecx,(%ebx)
    48bb:	89 d8                	mov    %ebx,%eax
    48bd:	e8 95 ff ff ff       	call   4857 <_create_quoted>
    48c2:	eb 0a                	jmp    48ce <_create_quoted+0x77>
    48c4:	89 c8                	mov    %ecx,%eax
    48c6:	e8 2f fd ff ff       	call   45fa <_token_to_obj>
    48cb:	83 03 08             	addl   $0x8,(%ebx)
    48ce:	c7 44 24 04 d0 cc 12 	movl   $0x12ccd0,0x4(%esp)
    48d5:	00 
    48d6:	89 04 24             	mov    %eax,(%esp)
    48d9:	e8 eb f7 ff ff       	call   40c9 <scheme_make_pair>
    48de:	89 c3                	mov    %eax,%ebx
    48e0:	c7 04 24 b4 8d 00 00 	movl   $0x8db4,(%esp)
    48e7:	e8 04 13 00 00       	call   5bf0 <scheme_make_symbol>
    48ec:	89 5c 24 04          	mov    %ebx,0x4(%esp)
    48f0:	89 04 24             	mov    %eax,(%esp)
    48f3:	e8 d1 f7 ff ff       	call   40c9 <scheme_make_pair>
    48f8:	83 c4 14             	add    $0x14,%esp
    48fb:	5b                   	pop    %ebx
    48fc:	5d                   	pop    %ebp
    48fd:	c3                   	ret    

000048fe <read>:
    48fe:	55                   	push   %ebp
    48ff:	89 e5                	mov    %esp,%ebp
    4901:	57                   	push   %edi
    4902:	56                   	push   %esi
    4903:	53                   	push   %ebx
    4904:	83 ec 3c             	sub    $0x3c,%esp
    4907:	83 7d 08 00          	cmpl   $0x0,0x8(%ebp)
    490b:	75 08                	jne    4915 <read+0x17>
    490d:	8b 1d 88 bc 12 00    	mov    0x12bc88,%ebx
    4913:	eb 05                	jmp    491a <read+0x1c>
    4915:	8b 45 0c             	mov    0xc(%ebp),%eax
    4918:	8b 18                	mov    (%eax),%ebx
    491a:	bf e0 94 00 00       	mov    $0x94e0,%edi
    491f:	c7 45 c8 00 00 00 00 	movl   $0x0,-0x38(%ebp)
    4926:	c7 45 d0 00 00 00 00 	movl   $0x0,-0x30(%ebp)
    492d:	c7 45 cc 00 00 00 00 	movl   $0x0,-0x34(%ebp)
    4934:	c7 45 d4 00 00 00 00 	movl   $0x0,-0x2c(%ebp)
    493b:	e9 68 04 00 00       	jmp    4da8 <read+0x4aa>
    4940:	3c 20                	cmp    $0x20,%al
    4942:	74 32                	je     4976 <read+0x78>
    4944:	3c 0a                	cmp    $0xa,%al
    4946:	74 2e                	je     4976 <read+0x78>
    4948:	3c 0d                	cmp    $0xd,%al
    494a:	74 2a                	je     4976 <read+0x78>
    494c:	3c 0c                	cmp    $0xc,%al
    494e:	66 90                	xchg   %ax,%ax
    4950:	75 55                	jne    49a7 <read+0xa9>
    4952:	8d b6 00 00 00 00    	lea    0x0(%esi),%esi
    4958:	eb 1c                	jmp    4976 <read+0x78>
    495a:	3c 20                	cmp    $0x20,%al
    495c:	8d 74 26 00          	lea    0x0(%esi,%eiz,1),%esi
    4960:	74 14                	je     4976 <read+0x78>
    4962:	3c 0a                	cmp    $0xa,%al
    4964:	8d 74 26 00          	lea    0x0(%esi,%eiz,1),%esi
    4968:	74 0c                	je     4976 <read+0x78>
    496a:	83 c6 08             	add    $0x8,%esi
    496d:	3c 0d                	cmp    $0xd,%al
    496f:	90                   	nop
    4970:	74 04                	je     4976 <read+0x78>
    4972:	3c 0c                	cmp    $0xc,%al
    4974:	75 3b                	jne    49b1 <read+0xb3>
    4976:	83 7d d0 01          	cmpl   $0x1,-0x30(%ebp)
    497a:	0f 85 28 04 00 00    	jne    4da8 <read+0x4aa>
    4980:	c6 07 00             	movb   $0x0,(%edi)
    4983:	83 45 d4 01          	addl   $0x1,-0x2c(%ebp)
    4987:	83 7d cc 00          	cmpl   $0x0,-0x34(%ebp)
    498b:	0f 84 50 04 00 00    	je     4de1 <read+0x4e3>
    4991:	83 c7 01             	add    $0x1,%edi
    4994:	c7 45 c8 00 00 00 00 	movl   $0x0,-0x38(%ebp)
    499b:	c7 45 d0 00 00 00 00 	movl   $0x0,-0x30(%ebp)
    49a2:	e9 01 04 00 00       	jmp    4da8 <read+0x4aa>
    49a7:	8b 55 d4             	mov    -0x2c(%ebp),%edx
    49aa:	8d 34 d5 e0 94 01 00 	lea    0x194e0(,%edx,8),%esi
    49b1:	8d 50 de             	lea    -0x22(%eax),%edx
    49b4:	80 fa 3e             	cmp    $0x3e,%dl
    49b7:	0f 87 5c 03 00 00    	ja     4d19 <read+0x41b>
    49bd:	0f b6 d2             	movzbl %dl,%edx
    49c0:	ff 24 95 40 86 00 00 	jmp    *0x8640(,%edx,4)
    49c7:	8b 45 d4             	mov    -0x2c(%ebp),%eax
    49ca:	c7 04 c5 e0 94 01 00 	movl   $0x3,0x194e0(,%eax,8)
    49d1:	03 00 00 00 
    49d5:	83 c0 01             	add    $0x1,%eax
    49d8:	89 45 d4             	mov    %eax,-0x2c(%ebp)
    49db:	83 45 cc 01          	addl   $0x1,-0x34(%ebp)
    49df:	c7 45 d0 00 00 00 00 	movl   $0x0,-0x30(%ebp)
    49e6:	e9 bd 03 00 00       	jmp    4da8 <read+0x4aa>
    49eb:	8b 45 d4             	mov    -0x2c(%ebp),%eax
    49ee:	83 7d d0 01          	cmpl   $0x1,-0x30(%ebp)
    49f2:	75 13                	jne    4a07 <read+0x109>
    49f4:	c6 07 00             	movb   $0x0,(%edi)
    49f7:	83 c7 01             	add    $0x1,%edi
    49fa:	83 c0 01             	add    $0x1,%eax
    49fd:	89 45 d4             	mov    %eax,-0x2c(%ebp)
    4a00:	c7 45 d0 00 00 00 00 	movl   $0x0,-0x30(%ebp)
    4a07:	8b 55 d4             	mov    -0x2c(%ebp),%edx
    4a0a:	c7 04 d5 e0 94 01 00 	movl   $0x4,0x194e0(,%edx,8)
    4a11:	04 00 00 00 
    4a15:	83 c2 01             	add    $0x1,%edx
    4a18:	89 55 d4             	mov    %edx,-0x2c(%ebp)
    4a1b:	83 6d cc 01          	subl   $0x1,-0x34(%ebp)
    4a1f:	0f 84 a8 03 00 00    	je     4dcd <read+0x4cf>
    4a25:	e9 7e 03 00 00       	jmp    4da8 <read+0x4aa>
    4a2a:	8b 45 d4             	mov    -0x2c(%ebp),%eax
    4a2d:	89 fe                	mov    %edi,%esi
    4a2f:	83 7d d0 01          	cmpl   $0x1,-0x30(%ebp)
    4a33:	75 13                	jne    4a48 <read+0x14a>
    4a35:	c6 07 00             	movb   $0x0,(%edi)
    4a38:	8d 77 01             	lea    0x1(%edi),%esi
    4a3b:	83 c0 01             	add    $0x1,%eax
    4a3e:	89 45 d4             	mov    %eax,-0x2c(%ebp)
    4a41:	c7 45 d0 00 00 00 00 	movl   $0x0,-0x30(%ebp)
    4a48:	b8 e0 94 01 00       	mov    $0x194e0,%eax
    4a4d:	8b 55 d4             	mov    -0x2c(%ebp),%edx
    4a50:	c7 04 d0 18 00 00 00 	movl   $0x18,(%eax,%edx,8)
    4a57:	89 74 d0 04          	mov    %esi,0x4(%eax,%edx,8)
    4a5b:	83 c2 01             	add    $0x1,%edx
    4a5e:	89 55 d4             	mov    %edx,-0x2c(%ebp)
    4a61:	eb 34                	jmp    4a97 <read+0x199>
    4a63:	88 06                	mov    %al,(%esi)
    4a65:	8d 7e 01             	lea    0x1(%esi),%edi
    4a68:	3c 5c                	cmp    $0x5c,%al
    4a6a:	75 1d                	jne    4a89 <read+0x18b>
    4a6c:	89 1c 24             	mov    %ebx,(%esp)
    4a6f:	e8 39 06 00 00       	call   50ad <scheme_port_get_char>
    4a74:	3c 22                	cmp    $0x22,%al
    4a76:	74 04                	je     4a7c <read+0x17e>
    4a78:	3c 5c                	cmp    $0x5c,%al
    4a7a:	75 06                	jne    4a82 <read+0x184>
    4a7c:	88 06                	mov    %al,(%esi)
    4a7e:	89 fe                	mov    %edi,%esi
    4a80:	eb 15                	jmp    4a97 <read+0x199>
    4a82:	88 07                	mov    %al,(%edi)
    4a84:	8d 77 01             	lea    0x1(%edi),%esi
    4a87:	eb 0e                	jmp    4a97 <read+0x199>
    4a89:	3c 22                	cmp    $0x22,%al
    4a8b:	75 08                	jne    4a95 <read+0x197>
    4a8d:	c6 06 00             	movb   $0x0,(%esi)
    4a90:	e9 13 03 00 00       	jmp    4da8 <read+0x4aa>
    4a95:	89 fe                	mov    %edi,%esi
    4a97:	89 1c 24             	mov    %ebx,(%esp)
    4a9a:	e8 0e 06 00 00       	call   50ad <scheme_port_get_char>
    4a9f:	3c 7f                	cmp    $0x7f,%al
    4aa1:	0f 84 ff 02 00 00    	je     4da6 <read+0x4a8>
    4aa7:	89 1c 24             	mov    %ebx,(%esp)
    4aaa:	e8 fe 05 00 00       	call   50ad <scheme_port_get_char>
    4aaf:	3c 1f                	cmp    $0x1f,%al
    4ab1:	7f b0                	jg     4a63 <read+0x165>
    4ab3:	e9 ee 02 00 00       	jmp    4da6 <read+0x4a8>
    4ab8:	8b 75 d4             	mov    -0x2c(%ebp),%esi
    4abb:	83 7d d0 01          	cmpl   $0x1,-0x30(%ebp)
    4abf:	90                   	nop
    4ac0:	75 0b                	jne    4acd <read+0x1cf>
    4ac2:	c6 07 23             	movb   $0x23,(%edi)
    4ac5:	83 c7 01             	add    $0x1,%edi
    4ac8:	e9 db 02 00 00       	jmp    4da8 <read+0x4aa>
    4acd:	89 1c 24             	mov    %ebx,(%esp)
    4ad0:	e8 d8 05 00 00       	call   50ad <scheme_port_get_char>
    4ad5:	83 e8 28             	sub    $0x28,%eax
    4ad8:	3c 50                	cmp    $0x50,%al
    4ada:	0f 87 38 01 00 00    	ja     4c18 <read+0x31a>
    4ae0:	0f b6 c0             	movzbl %al,%eax
    4ae3:	ff 24 85 3c 87 00 00 	jmp    *0x873c(,%eax,4)
    4aea:	c7 04 f5 e0 94 01 00 	movl   $0x5,0x194e0(,%esi,8)
    4af1:	05 00 00 00 
    4af5:	83 c6 01             	add    $0x1,%esi
    4af8:	89 75 d4             	mov    %esi,-0x2c(%ebp)
    4afb:	83 45 cc 01          	addl   $0x1,-0x34(%ebp)
    4aff:	e9 a4 02 00 00       	jmp    4da8 <read+0x4aa>
    4b04:	c7 04 f5 e0 94 01 00 	movl   $0x13,0x194e0(,%esi,8)
    4b0b:	13 00 00 00 
    4b0f:	83 c6 01             	add    $0x1,%esi
    4b12:	89 75 d4             	mov    %esi,-0x2c(%ebp)
    4b15:	e9 8e 02 00 00       	jmp    4da8 <read+0x4aa>
    4b1a:	c7 04 f5 e0 94 01 00 	movl   $0x14,0x194e0(,%esi,8)
    4b21:	14 00 00 00 
    4b25:	83 c6 01             	add    $0x1,%esi
    4b28:	89 75 d4             	mov    %esi,-0x2c(%ebp)
    4b2b:	e9 78 02 00 00       	jmp    4da8 <read+0x4aa>
    4b30:	b8 e0 94 01 00       	mov    $0x194e0,%eax
    4b35:	c7 04 f0 17 00 00 00 	movl   $0x17,(%eax,%esi,8)
    4b3c:	89 7c f0 04          	mov    %edi,0x4(%eax,%esi,8)
    4b40:	eb 29                	jmp    4b6b <read+0x26d>
    4b42:	3c 0b                	cmp    $0xb,%al
    4b44:	74 3d                	je     4b83 <read+0x285>
    4b46:	3c 09                	cmp    $0x9,%al
    4b48:	74 39                	je     4b83 <read+0x285>
    4b4a:	3c 20                	cmp    $0x20,%al
    4b4c:	8d 74 26 00          	lea    0x0(%esi,%eiz,1),%esi
    4b50:	74 31                	je     4b83 <read+0x285>
    4b52:	3c 0a                	cmp    $0xa,%al
    4b54:	74 2d                	je     4b83 <read+0x285>
    4b56:	3c 0d                	cmp    $0xd,%al
    4b58:	74 29                	je     4b83 <read+0x285>
    4b5a:	3c 0c                	cmp    $0xc,%al
    4b5c:	8d 74 26 00          	lea    0x0(%esi,%eiz,1),%esi
    4b60:	74 21                	je     4b83 <read+0x285>
    4b62:	3c ff                	cmp    $0xff,%al
    4b64:	74 1d                	je     4b83 <read+0x285>
    4b66:	88 07                	mov    %al,(%edi)
    4b68:	83 c7 01             	add    $0x1,%edi
    4b6b:	89 1c 24             	mov    %ebx,(%esp)
    4b6e:	e8 3a 05 00 00       	call   50ad <scheme_port_get_char>
    4b73:	3c 7f                	cmp    $0x7f,%al
    4b75:	74 0c                	je     4b83 <read+0x285>
    4b77:	89 1c 24             	mov    %ebx,(%esp)
    4b7a:	e8 2e 05 00 00       	call   50ad <scheme_port_get_char>
    4b7f:	3c 1f                	cmp    $0x1f,%al
    4b81:	7f bf                	jg     4b42 <read+0x244>
    4b83:	83 c6 01             	add    $0x1,%esi
    4b86:	89 75 d4             	mov    %esi,-0x2c(%ebp)
    4b89:	c6 07 00             	movb   $0x0,(%edi)
    4b8c:	83 c7 01             	add    $0x1,%edi
    4b8f:	e9 14 02 00 00       	jmp    4da8 <read+0x4aa>
    4b94:	c7 04 f5 e0 94 01 00 	movl   $0x19,0x194e0(,%esi,8)
    4b9b:	19 00 00 00 
    4b9f:	83 c6 01             	add    $0x1,%esi
    4ba2:	89 75 d4             	mov    %esi,-0x2c(%ebp)
    4ba5:	e9 fe 01 00 00       	jmp    4da8 <read+0x4aa>
    4baa:	c7 04 f5 e0 94 01 00 	movl   $0x1a,0x194e0(,%esi,8)
    4bb1:	1a 00 00 00 
    4bb5:	83 c6 01             	add    $0x1,%esi
    4bb8:	89 75 d4             	mov    %esi,-0x2c(%ebp)
    4bbb:	e9 e8 01 00 00       	jmp    4da8 <read+0x4aa>
    4bc0:	c7 04 f5 e0 94 01 00 	movl   $0x1b,0x194e0(,%esi,8)
    4bc7:	1b 00 00 00 
    4bcb:	83 c6 01             	add    $0x1,%esi
    4bce:	89 75 d4             	mov    %esi,-0x2c(%ebp)
    4bd1:	e9 d2 01 00 00       	jmp    4da8 <read+0x4aa>
    4bd6:	c7 04 f5 e0 94 01 00 	movl   $0x1c,0x194e0(,%esi,8)
    4bdd:	1c 00 00 00 
    4be1:	83 c6 01             	add    $0x1,%esi
    4be4:	89 75 d4             	mov    %esi,-0x2c(%ebp)
    4be7:	e9 bc 01 00 00       	jmp    4da8 <read+0x4aa>
    4bec:	c7 04 f5 e0 94 01 00 	movl   $0x1d,0x194e0(,%esi,8)
    4bf3:	1d 00 00 00 
    4bf7:	83 c6 01             	add    $0x1,%esi
    4bfa:	89 75 d4             	mov    %esi,-0x2c(%ebp)
    4bfd:	e9 a6 01 00 00       	jmp    4da8 <read+0x4aa>
    4c02:	c7 04 f5 e0 94 01 00 	movl   $0x1e,0x194e0(,%esi,8)
    4c09:	1e 00 00 00 
    4c0d:	83 c6 01             	add    $0x1,%esi
    4c10:	89 75 d4             	mov    %esi,-0x2c(%ebp)
    4c13:	e9 90 01 00 00       	jmp    4da8 <read+0x4aa>
    4c18:	c7 04 24 36 8b 00 00 	movl   $0x8b36,(%esp)
    4c1f:	e8 a0 32 00 00       	call   7ec4 <printf>
    4c24:	e9 7f 01 00 00       	jmp    4da8 <read+0x4aa>
    4c29:	8b 45 d4             	mov    -0x2c(%ebp),%eax
    4c2c:	c7 04 c5 e0 94 01 00 	movl   $0x6,0x194e0(,%eax,8)
    4c33:	06 00 00 00 
    4c37:	83 c0 01             	add    $0x1,%eax
    4c3a:	89 45 d4             	mov    %eax,-0x2c(%ebp)
    4c3d:	e9 66 01 00 00       	jmp    4da8 <read+0x4aa>
    4c42:	8b 55 d4             	mov    -0x2c(%ebp),%edx
    4c45:	c7 04 d5 e0 94 01 00 	movl   $0x7,0x194e0(,%edx,8)
    4c4c:	07 00 00 00 
    4c50:	83 c2 01             	add    $0x1,%edx
    4c53:	89 55 d4             	mov    %edx,-0x2c(%ebp)
    4c56:	e9 4d 01 00 00       	jmp    4da8 <read+0x4aa>
    4c5b:	89 1c 24             	mov    %ebx,(%esp)
    4c5e:	e8 4a 04 00 00       	call   50ad <scheme_port_get_char>
    4c63:	3c 40                	cmp    $0x40,%al
    4c65:	75 19                	jne    4c80 <read+0x382>
    4c67:	8b 45 d4             	mov    -0x2c(%ebp),%eax
    4c6a:	c7 04 c5 e0 94 01 00 	movl   $0x9,0x194e0(,%eax,8)
    4c71:	09 00 00 00 
    4c75:	83 c0 01             	add    $0x1,%eax
    4c78:	89 45 d4             	mov    %eax,-0x2c(%ebp)
    4c7b:	e9 28 01 00 00       	jmp    4da8 <read+0x4aa>
    4c80:	c7 06 08 00 00 00    	movl   $0x8,(%esi)
    4c86:	83 45 d4 01          	addl   $0x1,-0x2c(%ebp)
    4c8a:	3c 0b                	cmp    $0xb,%al
    4c8c:	0f 84 e4 fc ff ff    	je     4976 <read+0x78>
    4c92:	3c 09                	cmp    $0x9,%al
    4c94:	0f 85 c0 fc ff ff    	jne    495a <read+0x5c>
    4c9a:	e9 d7 fc ff ff       	jmp    4976 <read+0x78>
    4c9f:	8b 45 d4             	mov    -0x2c(%ebp),%eax
    4ca2:	83 7d d0 00          	cmpl   $0x0,-0x30(%ebp)
    4ca6:	0f 85 fc 00 00 00    	jne    4da8 <read+0x4aa>
    4cac:	ba e0 94 01 00       	mov    $0x194e0,%edx
    4cb1:	c7 04 c2 11 00 00 00 	movl   $0x11,(%edx,%eax,8)
    4cb8:	89 7c c2 04          	mov    %edi,0x4(%edx,%eax,8)
    4cbc:	c7 45 d0 01 00 00 00 	movl   $0x1,-0x30(%ebp)
    4cc3:	e9 e0 00 00 00       	jmp    4da8 <read+0x4aa>
    4cc8:	8b 45 d4             	mov    -0x2c(%ebp),%eax
    4ccb:	83 7d d0 00          	cmpl   $0x0,-0x30(%ebp)
    4ccf:	75 19                	jne    4cea <read+0x3ec>
    4cd1:	ba e0 94 01 00       	mov    $0x194e0,%edx
    4cd6:	c7 04 c2 0b 00 00 00 	movl   $0xb,(%edx,%eax,8)
    4cdd:	89 7c c2 04          	mov    %edi,0x4(%edx,%eax,8)
    4ce1:	c7 45 d0 01 00 00 00 	movl   $0x1,-0x30(%ebp)
    4ce8:	eb 24                	jmp    4d0e <read+0x410>
    4cea:	83 7d c8 00          	cmpl   $0x0,-0x38(%ebp)
    4cee:	74 0d                	je     4cfd <read+0x3ff>
    4cf0:	c7 04 c5 e0 94 01 00 	movl   $0x11,0x194e0(,%eax,8)
    4cf7:	11 00 00 00 
    4cfb:	eb 11                	jmp    4d0e <read+0x410>
    4cfd:	83 3c c5 e0 94 01 00 	cmpl   $0x15,0x194e0(,%eax,8)
    4d04:	15 
    4d05:	75 07                	jne    4d0e <read+0x410>
    4d07:	c7 45 c8 01 00 00 00 	movl   $0x1,-0x38(%ebp)
    4d0e:	c6 07 2e             	movb   $0x2e,(%edi)
    4d11:	83 c7 01             	add    $0x1,%edi
    4d14:	e9 8f 00 00 00       	jmp    4da8 <read+0x4aa>
    4d19:	8b 55 d4             	mov    -0x2c(%ebp),%edx
    4d1c:	89 c6                	mov    %eax,%esi
    4d1e:	8d 48 d0             	lea    -0x30(%eax),%ecx
    4d21:	80 f9 09             	cmp    $0x9,%cl
    4d24:	77 3d                	ja     4d63 <read+0x465>
    4d26:	83 7d d0 00          	cmpl   $0x0,-0x30(%ebp)
    4d2a:	75 19                	jne    4d45 <read+0x447>
    4d2c:	b9 e0 94 01 00       	mov    $0x194e0,%ecx
    4d31:	c7 04 d1 15 00 00 00 	movl   $0x15,(%ecx,%edx,8)
    4d38:	89 7c d1 04          	mov    %edi,0x4(%ecx,%edx,8)
    4d3c:	c7 45 d0 01 00 00 00 	movl   $0x1,-0x30(%ebp)
    4d43:	eb 5a                	jmp    4d9f <read+0x4a1>
    4d45:	83 3c d5 e0 94 01 00 	cmpl   $0xb,0x194e0(,%edx,8)
    4d4c:	0b 
    4d4d:	75 50                	jne    4d9f <read+0x4a1>
    4d4f:	c7 04 d5 e0 94 01 00 	movl   $0x15,0x194e0(,%edx,8)
    4d56:	15 00 00 00 
    4d5a:	c7 45 c8 01 00 00 00 	movl   $0x1,-0x38(%ebp)
    4d61:	eb 3c                	jmp    4d9f <read+0x4a1>
    4d63:	8d 4e e0             	lea    -0x20(%esi),%ecx
    4d66:	80 f9 5e             	cmp    $0x5e,%cl
    4d69:	77 34                	ja     4d9f <read+0x4a1>
    4d6b:	83 7d d0 00          	cmpl   $0x0,-0x30(%ebp)
    4d6f:	75 19                	jne    4d8a <read+0x48c>
    4d71:	b9 e0 94 01 00       	mov    $0x194e0,%ecx
    4d76:	c7 04 d1 11 00 00 00 	movl   $0x11,(%ecx,%edx,8)
    4d7d:	89 7c d1 04          	mov    %edi,0x4(%ecx,%edx,8)
    4d81:	c7 45 d0 01 00 00 00 	movl   $0x1,-0x30(%ebp)
    4d88:	eb 15                	jmp    4d9f <read+0x4a1>
    4d8a:	83 3c d5 e0 94 01 00 	cmpl   $0x15,0x194e0(,%edx,8)
    4d91:	15 
    4d92:	75 0b                	jne    4d9f <read+0x4a1>
    4d94:	c7 04 d5 e0 94 01 00 	movl   $0x11,0x194e0(,%edx,8)
    4d9b:	11 00 00 00 
    4d9f:	88 07                	mov    %al,(%edi)
    4da1:	83 c7 01             	add    $0x1,%edi
    4da4:	eb 02                	jmp    4da8 <read+0x4aa>
    4da6:	89 f7                	mov    %esi,%edi
    4da8:	89 1c 24             	mov    %ebx,(%esp)
    4dab:	e8 fd 02 00 00       	call   50ad <scheme_port_get_char>
    4db0:	3c ff                	cmp    $0xff,%al
    4db2:	74 19                	je     4dcd <read+0x4cf>
    4db4:	3c 0b                	cmp    $0xb,%al
    4db6:	0f 84 ba fb ff ff    	je     4976 <read+0x78>
    4dbc:	3c 09                	cmp    $0x9,%al
    4dbe:	66 90                	xchg   %ax,%ax
    4dc0:	0f 85 7a fb ff ff    	jne    4940 <read+0x42>
    4dc6:	66 90                	xchg   %ax,%ax
    4dc8:	e9 a9 fb ff ff       	jmp    4976 <read+0x78>
    4dcd:	83 7d d0 01          	cmpl   $0x1,-0x30(%ebp)
    4dd1:	8d b4 26 00 00 00 00 	lea    0x0(%esi,%eiz,1),%esi
    4dd8:	75 07                	jne    4de1 <read+0x4e3>
    4dda:	c6 07 00             	movb   $0x0,(%edi)
    4ddd:	83 45 d4 01          	addl   $0x1,-0x2c(%ebp)
    4de1:	b8 e0 94 01 00       	mov    $0x194e0,%eax
    4de6:	8b 55 d4             	mov    -0x2c(%ebp),%edx
    4de9:	c7 04 d0 ff ff ff ff 	movl   $0xffffffff,(%eax,%edx,8)
    4df0:	89 45 e4             	mov    %eax,-0x1c(%ebp)
    4df3:	8b 10                	mov    (%eax),%edx
    4df5:	b8 c0 cc 12 00       	mov    $0x12ccc0,%eax
    4dfa:	83 fa 04             	cmp    $0x4,%edx
    4dfd:	74 68                	je     4e67 <read+0x569>
    4dff:	83 fa 04             	cmp    $0x4,%edx
    4e02:	77 0e                	ja     4e12 <read+0x514>
    4e04:	83 fa 03             	cmp    $0x3,%edx
    4e07:	75 54                	jne    4e5d <read+0x55f>
    4e09:	8d b4 26 00 00 00 00 	lea    0x0(%esi,%eiz,1),%esi
    4e10:	eb 18                	jmp    4e2a <read+0x52c>
    4e12:	83 fa 05             	cmp    $0x5,%edx
    4e15:	8d 76 00             	lea    0x0(%esi),%esi
    4e18:	74 21                	je     4e3b <read+0x53d>
    4e1a:	83 fa 06             	cmp    $0x6,%edx
    4e1d:	8d 76 00             	lea    0x0(%esi),%esi
    4e20:	75 3b                	jne    4e5d <read+0x55f>
    4e22:	8d b6 00 00 00 00    	lea    0x0(%esi),%esi
    4e28:	eb 22                	jmp    4e4c <read+0x54e>
    4e2a:	c7 45 e4 e8 94 01 00 	movl   $0x194e8,-0x1c(%ebp)
    4e31:	8d 45 e4             	lea    -0x1c(%ebp),%eax
    4e34:	e8 0f f9 ff ff       	call   4748 <_create_list>
    4e39:	eb 2c                	jmp    4e67 <read+0x569>
    4e3b:	c7 45 e4 e8 94 01 00 	movl   $0x194e8,-0x1c(%ebp)
    4e42:	8d 45 e4             	lea    -0x1c(%ebp),%eax
    4e45:	e8 18 f8 ff ff       	call   4662 <_create_vector>
    4e4a:	eb 1b                	jmp    4e67 <read+0x569>
    4e4c:	c7 45 e4 e8 94 01 00 	movl   $0x194e8,-0x1c(%ebp)
    4e53:	8d 45 e4             	lea    -0x1c(%ebp),%eax
    4e56:	e8 fc f9 ff ff       	call   4857 <_create_quoted>
    4e5b:	eb 0a                	jmp    4e67 <read+0x569>
    4e5d:	b8 e0 94 01 00       	mov    $0x194e0,%eax
    4e62:	e8 93 f7 ff ff       	call   45fa <_token_to_obj>
    4e67:	83 c4 3c             	add    $0x3c,%esp
    4e6a:	5b                   	pop    %ebx
    4e6b:	5e                   	pop    %esi
    4e6c:	5f                   	pop    %edi
    4e6d:	5d                   	pop    %ebp
    4e6e:	c3                   	ret    

00004e6f <scheme_read>:
    4e6f:	55                   	push   %ebp
    4e70:	89 e5                	mov    %esp,%ebp
    4e72:	83 ec 18             	sub    $0x18,%esp
    4e75:	81 7d 08 d0 cc 12 00 	cmpl   $0x12ccd0,0x8(%ebp)
    4e7c:	75 15                	jne    4e93 <scheme_read+0x24>
    4e7e:	8d 45 08             	lea    0x8(%ebp),%eax
    4e81:	89 44 24 04          	mov    %eax,0x4(%esp)
    4e85:	c7 04 24 00 00 00 00 	movl   $0x0,(%esp)
    4e8c:	e8 6d fa ff ff       	call   48fe <read>
    4e91:	eb 13                	jmp    4ea6 <scheme_read+0x37>
    4e93:	8d 45 08             	lea    0x8(%ebp),%eax
    4e96:	89 44 24 04          	mov    %eax,0x4(%esp)
    4e9a:	c7 04 24 01 00 00 00 	movl   $0x1,(%esp)
    4ea1:	e8 58 fa ff ff       	call   48fe <read>
    4ea6:	c9                   	leave  
    4ea7:	c3                   	ret    

00004ea8 <scheme_init_read>:
    4ea8:	55                   	push   %ebp
    4ea9:	89 e5                	mov    %esp,%ebp
    4eab:	53                   	push   %ebx
    4eac:	83 ec 24             	sub    $0x24,%esp
    4eaf:	8b 5d 08             	mov    0x8(%ebp),%ebx
    4eb2:	c7 05 e0 b4 01 00 00 	movl   $0x0,0x1b4e0
    4eb9:	00 00 00 
    4ebc:	89 5c 24 10          	mov    %ebx,0x10(%esp)
    4ec0:	c7 44 24 0c 01 00 00 	movl   $0x1,0xc(%esp)
    4ec7:	00 
    4ec8:	c7 44 24 08 00 00 00 	movl   $0x0,0x8(%esp)
    4ecf:	00 
    4ed0:	c7 44 24 04 fe 48 00 	movl   $0x48fe,0x4(%esp)
    4ed7:	00 
    4ed8:	c7 04 24 44 8b 00 00 	movl   $0x8b44,(%esp)
    4edf:	e8 be 14 00 00       	call   63a2 <scheme_register_primitive>
    4ee4:	89 5c 24 10          	mov    %ebx,0x10(%esp)
    4ee8:	c7 44 24 0c 01 00 00 	movl   $0x1,0xc(%esp)
    4eef:	00 
    4ef0:	c7 44 24 08 00 00 00 	movl   $0x0,0x8(%esp)
    4ef7:	00 
    4ef8:	c7 44 24 04 dd 45 00 	movl   $0x45dd,0x4(%esp)
    4eff:	00 
    4f00:	c7 04 24 49 8b 00 00 	movl   $0x8b49,(%esp)
    4f07:	e8 96 14 00 00       	call   63a2 <scheme_register_primitive>
    4f0c:	89 5c 24 10          	mov    %ebx,0x10(%esp)
    4f10:	c7 44 24 0c 01 00 00 	movl   $0x1,0xc(%esp)
    4f17:	00 
    4f18:	c7 44 24 08 00 00 00 	movl   $0x0,0x8(%esp)
    4f1f:	00 
    4f20:	c7 44 24 04 c0 45 00 	movl   $0x45c0,0x4(%esp)
    4f27:	00 
    4f28:	c7 04 24 53 8b 00 00 	movl   $0x8b53,(%esp)
    4f2f:	e8 6e 14 00 00       	call   63a2 <scheme_register_primitive>
    4f34:	89 5c 24 10          	mov    %ebx,0x10(%esp)
    4f38:	c7 44 24 0c 01 00 00 	movl   $0x1,0xc(%esp)
    4f3f:	00 
    4f40:	c7 44 24 08 01 00 00 	movl   $0x1,0x8(%esp)
    4f47:	00 
    4f48:	c7 44 24 04 9a 45 00 	movl   $0x459a,0x4(%esp)
    4f4f:	00 
    4f50:	c7 04 24 5d 8b 00 00 	movl   $0x8b5d,(%esp)
    4f57:	e8 46 14 00 00       	call   63a2 <scheme_register_primitive>
    4f5c:	89 5c 24 10          	mov    %ebx,0x10(%esp)
    4f60:	c7 44 24 0c 01 00 00 	movl   $0x1,0xc(%esp)
    4f67:	00 
    4f68:	c7 44 24 08 00 00 00 	movl   $0x0,0x8(%esp)
    4f6f:	00 
    4f70:	c7 44 24 04 90 45 00 	movl   $0x4590,0x4(%esp)
    4f77:	00 
    4f78:	c7 04 24 69 8b 00 00 	movl   $0x8b69,(%esp)
    4f7f:	e8 1e 14 00 00       	call   63a2 <scheme_register_primitive>
    4f84:	83 c4 24             	add    $0x24,%esp
    4f87:	5b                   	pop    %ebx
    4f88:	5d                   	pop    %ebp
    4f89:	c3                   	ret    
    4f8a:	90                   	nop
    4f8b:	90                   	nop
    4f8c:	90                   	nop
    4f8d:	90                   	nop
    4f8e:	90                   	nop
    4f8f:	90                   	nop

00004f90 <input_port_p>:
    4f90:	55                   	push   %ebp
    4f91:	89 e5                	mov    %esp,%ebp
    4f93:	8b 45 0c             	mov    0xc(%ebp),%eax
    4f96:	8b 10                	mov    (%eax),%edx
    4f98:	f6 c2 01             	test   $0x1,%dl
    4f9b:	75 0b                	jne    4fa8 <input_port_p+0x18>
    4f9d:	b8 14 cd 12 00       	mov    $0x12cd14,%eax
    4fa2:	66 83 3a 16          	cmpw   $0x16,(%edx)
    4fa6:	74 05                	je     4fad <input_port_p+0x1d>
    4fa8:	b8 00 cd 12 00       	mov    $0x12cd00,%eax
    4fad:	5d                   	pop    %ebp
    4fae:	c3                   	ret    

00004faf <output_port_p>:
    4faf:	55                   	push   %ebp
    4fb0:	89 e5                	mov    %esp,%ebp
    4fb2:	8b 45 0c             	mov    0xc(%ebp),%eax
    4fb5:	8b 10                	mov    (%eax),%edx
    4fb7:	f6 c2 01             	test   $0x1,%dl
    4fba:	75 0b                	jne    4fc7 <output_port_p+0x18>
    4fbc:	b8 14 cd 12 00       	mov    $0x12cd14,%eax
    4fc1:	66 83 3a 17          	cmpw   $0x17,(%edx)
    4fc5:	74 05                	je     4fcc <output_port_p+0x1d>
    4fc7:	b8 00 cd 12 00       	mov    $0x12cd00,%eax
    4fcc:	5d                   	pop    %ebp
    4fcd:	c3                   	ret    

00004fce <current_input_port>:
    4fce:	55                   	push   %ebp
    4fcf:	89 e5                	mov    %esp,%ebp
    4fd1:	a1 88 bc 12 00       	mov    0x12bc88,%eax
    4fd6:	5d                   	pop    %ebp
    4fd7:	c3                   	ret    

00004fd8 <current_output_port>:
    4fd8:	55                   	push   %ebp
    4fd9:	89 e5                	mov    %esp,%ebp
    4fdb:	a1 10 cd 12 00       	mov    0x12cd10,%eax
    4fe0:	5d                   	pop    %ebp
    4fe1:	c3                   	ret    

00004fe2 <with_input_from_file>:
    4fe2:	55                   	push   %ebp
    4fe3:	89 e5                	mov    %esp,%ebp
    4fe5:	5d                   	pop    %ebp
    4fe6:	c3                   	ret    

00004fe7 <with_output_to_file>:
    4fe7:	55                   	push   %ebp
    4fe8:	89 e5                	mov    %esp,%ebp
    4fea:	5d                   	pop    %ebp
    4feb:	c3                   	ret    

00004fec <open_input_file>:
    4fec:	55                   	push   %ebp
    4fed:	89 e5                	mov    %esp,%ebp
    4fef:	5d                   	pop    %ebp
    4ff0:	c3                   	ret    

00004ff1 <open_output_file>:
    4ff1:	55                   	push   %ebp
    4ff2:	89 e5                	mov    %esp,%ebp
    4ff4:	5d                   	pop    %ebp
    4ff5:	c3                   	ret    

00004ff6 <close_input_port>:
    4ff6:	55                   	push   %ebp
    4ff7:	89 e5                	mov    %esp,%ebp
    4ff9:	5d                   	pop    %ebp
    4ffa:	c3                   	ret    

00004ffb <close_output_port>:
    4ffb:	55                   	push   %ebp
    4ffc:	89 e5                	mov    %esp,%ebp
    4ffe:	5d                   	pop    %ebp
    4fff:	c3                   	ret    

00005000 <scheme_port_peek_char>:
    5000:	55                   	push   %ebp
    5001:	89 e5                	mov    %esp,%ebp
    5003:	8b 55 08             	mov    0x8(%ebp),%edx
    5006:	8b 4a 08             	mov    0x8(%edx),%ecx
    5009:	f6 c1 03             	test   $0x3,%cl
    500c:	75 0f                	jne    501d <scheme_port_peek_char+0x1d>
    500e:	d1 f9                	sar    %ecx
    5010:	8b 42 04             	mov    0x4(%edx),%eax
    5013:	0f b6 04 08          	movzbl (%eax,%ecx,1),%eax
    5017:	3c 01                	cmp    $0x1,%al
    5019:	19 d2                	sbb    %edx,%edx
    501b:	09 d0                	or     %edx,%eax
    501d:	5d                   	pop    %ebp
    501e:	c3                   	ret    

0000501f <scheme_port_get_string>:
    501f:	55                   	push   %ebp
    5020:	89 e5                	mov    %esp,%ebp
    5022:	83 ec 10             	sub    $0x10,%esp
    5025:	89 5d f4             	mov    %ebx,-0xc(%ebp)
    5028:	89 75 f8             	mov    %esi,-0x8(%ebp)
    502b:	89 7d fc             	mov    %edi,-0x4(%ebp)
    502e:	8b 4d 08             	mov    0x8(%ebp),%ecx
    5031:	8b 55 0c             	mov    0xc(%ebp),%edx
    5034:	8b 5d 10             	mov    0x10(%ebp),%ebx
    5037:	8b 71 08             	mov    0x8(%ecx),%esi
    503a:	b8 00 00 00 00       	mov    $0x0,%eax
    503f:	f7 c6 03 00 00 00    	test   $0x3,%esi
    5045:	75 59                	jne    50a0 <scheme_port_get_string+0x81>
    5047:	d1 fe                	sar    %esi
    5049:	03 71 04             	add    0x4(%ecx),%esi
    504c:	89 75 f0             	mov    %esi,-0x10(%ebp)
    504f:	85 db                	test   %ebx,%ebx
    5051:	7e 33                	jle    5086 <scheme_port_get_string+0x67>
    5053:	0f b6 06             	movzbl (%esi),%eax
    5056:	88 02                	mov    %al,(%edx)
    5058:	84 c0                	test   %al,%al
    505a:	74 3f                	je     509b <scheme_port_get_string+0x7c>
    505c:	83 c2 01             	add    $0x1,%edx
    505f:	8b 75 f0             	mov    -0x10(%ebp),%esi
    5062:	83 c6 01             	add    $0x1,%esi
    5065:	b8 00 00 00 00       	mov    $0x0,%eax
    506a:	89 df                	mov    %ebx,%edi
    506c:	83 c0 01             	add    $0x1,%eax
    506f:	89 fb                	mov    %edi,%ebx
    5071:	29 c3                	sub    %eax,%ebx
    5073:	85 db                	test   %ebx,%ebx
    5075:	7e 0f                	jle    5086 <scheme_port_get_string+0x67>
    5077:	0f b6 1e             	movzbl (%esi),%ebx
    507a:	88 1a                	mov    %bl,(%edx)
    507c:	83 c2 01             	add    $0x1,%edx
    507f:	83 c6 01             	add    $0x1,%esi
    5082:	84 db                	test   %bl,%bl
    5084:	75 e6                	jne    506c <scheme_port_get_string+0x4d>
    5086:	8b 5d f0             	mov    -0x10(%ebp),%ebx
    5089:	83 c3 01             	add    $0x1,%ebx
    508c:	39 de                	cmp    %ebx,%esi
    508e:	74 0b                	je     509b <scheme_port_get_string+0x7c>
    5090:	c6 02 00             	movb   $0x0,(%edx)
    5093:	8d 14 00             	lea    (%eax,%eax,1),%edx
    5096:	01 51 08             	add    %edx,0x8(%ecx)
    5099:	eb 05                	jmp    50a0 <scheme_port_get_string+0x81>
    509b:	b8 ff ff ff ff       	mov    $0xffffffff,%eax
    50a0:	8b 5d f4             	mov    -0xc(%ebp),%ebx
    50a3:	8b 75 f8             	mov    -0x8(%ebp),%esi
    50a6:	8b 7d fc             	mov    -0x4(%ebp),%edi
    50a9:	89 ec                	mov    %ebp,%esp
    50ab:	5d                   	pop    %ebp
    50ac:	c3                   	ret    

000050ad <scheme_port_get_char>:
    50ad:	55                   	push   %ebp
    50ae:	89 e5                	mov    %esp,%ebp
    50b0:	57                   	push   %edi
    50b1:	56                   	push   %esi
    50b2:	53                   	push   %ebx
    50b3:	83 ec 1c             	sub    $0x1c,%esp
    50b6:	8b 4d 08             	mov    0x8(%ebp),%ecx
    50b9:	8b 51 08             	mov    0x8(%ecx),%edx
    50bc:	89 d3                	mov    %edx,%ebx
    50be:	83 e3 03             	and    $0x3,%ebx
    50c1:	74 0b                	je     50ce <scheme_port_get_char+0x21>
    50c3:	83 fb 02             	cmp    $0x2,%ebx
    50c6:	0f 85 f9 00 00 00    	jne    51c5 <scheme_port_get_char+0x118>
    50cc:	eb 1d                	jmp    50eb <scheme_port_get_char+0x3e>
    50ce:	89 d0                	mov    %edx,%eax
    50d0:	c1 f8 02             	sar    $0x2,%eax
    50d3:	8b 59 04             	mov    0x4(%ecx),%ebx
    50d6:	0f b6 04 03          	movzbl (%ebx,%eax,1),%eax
    50da:	83 c2 04             	add    $0x4,%edx
    50dd:	89 51 08             	mov    %edx,0x8(%ecx)
    50e0:	3c 01                	cmp    $0x1,%al
    50e2:	19 d2                	sbb    %edx,%edx
    50e4:	09 d0                	or     %edx,%eax
    50e6:	e9 da 00 00 00       	jmp    51c5 <scheme_port_get_char+0x118>
    50eb:	8b 15 00 b9 01 00    	mov    0x1b900,%edx
    50f1:	0f b6 82 00 b5 01 00 	movzbl 0x1b500(%edx),%eax
    50f8:	83 c2 01             	add    $0x1,%edx
    50fb:	89 15 00 b9 01 00    	mov    %edx,0x1b900
    5101:	3c 0a                	cmp    $0xa,%al
    5103:	75 16                	jne    511b <scheme_port_get_char+0x6e>
    5105:	c7 05 00 b9 01 00 00 	movl   $0x0,0x1b900
    510c:	00 00 00 
    510f:	c6 05 00 b5 01 00 00 	movb   $0x0,0x1b500
    5116:	e9 aa 00 00 00       	jmp    51c5 <scheme_port_get_char+0x118>
    511b:	84 c0                	test   %al,%al
    511d:	0f 85 a2 00 00 00    	jne    51c5 <scheme_port_get_char+0x118>
    5123:	c7 05 00 b9 01 00 00 	movl   $0x0,0x1b900
    512a:	00 00 00 
    512d:	bf 98 35 00 00       	mov    $0x3598,%edi
    5132:	bb 64 00 00 00       	mov    $0x64,%ebx
    5137:	89 da                	mov    %ebx,%edx
    5139:	ec                   	in     (%dx),%al
    513a:	a8 01                	test   $0x1,%al
    513c:	74 f9                	je     5137 <scheme_port_get_char+0x8a>
    513e:	ba 60 00 00 00       	mov    $0x60,%edx
    5143:	ec                   	in     (%dx),%al
    5144:	89 c6                	mov    %eax,%esi
    5146:	84 c0                	test   %al,%al
    5148:	79 0f                	jns    5159 <scheme_port_get_char+0xac>
    514a:	3c aa                	cmp    $0xaa,%al
    514c:	74 04                	je     5152 <scheme_port_get_char+0xa5>
    514e:	3c b6                	cmp    $0xb6,%al
    5150:	75 5c                	jne    51ae <scheme_port_get_char+0x101>
    5152:	bf 98 35 00 00       	mov    $0x3598,%edi
    5157:	eb 55                	jmp    51ae <scheme_port_get_char+0x101>
    5159:	3c 2a                	cmp    $0x2a,%al
    515b:	74 05                	je     5162 <scheme_port_get_char+0xb5>
    515d:	3c 36                	cmp    $0x36,%al
    515f:	90                   	nop
    5160:	75 07                	jne    5169 <scheme_port_get_char+0xbc>
    5162:	bf f9 35 00 00       	mov    $0x35f9,%edi
    5167:	eb 45                	jmp    51ae <scheme_port_get_char+0x101>
    5169:	89 f2                	mov    %esi,%edx
    516b:	0f be f2             	movsbl %dl,%esi
    516e:	0f b6 34 37          	movzbl (%edi,%esi,1),%esi
    5172:	89 f0                	mov    %esi,%eax
    5174:	3c 0d                	cmp    $0xd,%al
    5176:	75 05                	jne    517d <scheme_port_get_char+0xd0>
    5178:	be 0a 00 00 00       	mov    $0xa,%esi
    517d:	89 f2                	mov    %esi,%edx
    517f:	0f be c2             	movsbl %dl,%eax
    5182:	89 44 24 04          	mov    %eax,0x4(%esp)
    5186:	c7 04 24 75 8b 00 00 	movl   $0x8b75,(%esp)
    518d:	e8 32 2d 00 00       	call   7ec4 <printf>
    5192:	a1 00 b9 01 00       	mov    0x1b900,%eax
    5197:	3d ff 03 00 00       	cmp    $0x3ff,%eax
    519c:	7f 10                	jg     51ae <scheme_port_get_char+0x101>
    519e:	89 f2                	mov    %esi,%edx
    51a0:	88 90 00 b5 01 00    	mov    %dl,0x1b500(%eax)
    51a6:	83 c0 01             	add    $0x1,%eax
    51a9:	a3 00 b9 01 00       	mov    %eax,0x1b900
    51ae:	89 f0                	mov    %esi,%eax
    51b0:	3c 0a                	cmp    $0xa,%al
    51b2:	75 83                	jne    5137 <scheme_port_get_char+0x8a>
    51b4:	0f b6 05 00 b5 01 00 	movzbl 0x1b500,%eax
    51bb:	c7 05 00 b9 01 00 01 	movl   $0x1,0x1b900
    51c2:	00 00 00 
    51c5:	83 c4 1c             	add    $0x1c,%esp
    51c8:	5b                   	pop    %ebx
    51c9:	5e                   	pop    %esi
    51ca:	5f                   	pop    %edi
    51cb:	5d                   	pop    %ebp
    51cc:	c3                   	ret    

000051cd <scheme_make_char_input_stream>:
    51cd:	55                   	push   %ebp
    51ce:	89 e5                	mov    %esp,%ebp
    51d0:	83 ec 18             	sub    $0x18,%esp
    51d3:	c7 04 24 10 00 00 00 	movl   $0x10,(%esp)
    51da:	e8 d5 28 00 00       	call   7ab4 <kmalloc>
    51df:	3d c0 cc 12 00       	cmp    $0x12ccc0,%eax
    51e4:	74 12                	je     51f8 <scheme_make_char_input_stream+0x2b>
    51e6:	66 c7 00 16 00       	movw   $0x16,(%eax)
    51eb:	8b 55 08             	mov    0x8(%ebp),%edx
    51ee:	89 50 04             	mov    %edx,0x4(%eax)
    51f1:	c7 40 08 00 00 00 00 	movl   $0x0,0x8(%eax)
    51f8:	c9                   	leave  
    51f9:	c3                   	ret    

000051fa <scheme_init_port>:
    51fa:	55                   	push   %ebp
    51fb:	89 e5                	mov    %esp,%ebp
    51fd:	56                   	push   %esi
    51fe:	53                   	push   %ebx
    51ff:	83 ec 20             	sub    $0x20,%esp
    5202:	8b 5d 08             	mov    0x8(%ebp),%ebx
    5205:	c7 05 00 b9 01 00 00 	movl   $0x0,0x1b900
    520c:	00 00 00 
    520f:	c6 05 00 b5 01 00 00 	movb   $0x0,0x1b500
    5216:	c7 04 24 10 00 00 00 	movl   $0x10,(%esp)
    521d:	e8 92 28 00 00       	call   7ab4 <kmalloc>
    5222:	89 c6                	mov    %eax,%esi
    5224:	66 c7 00 16 00       	movw   $0x16,(%eax)
    5229:	c7 40 04 d0 cc 12 00 	movl   $0x12ccd0,0x4(%eax)
    5230:	c7 40 08 02 00 00 00 	movl   $0x2,0x8(%eax)
    5237:	a3 88 bc 12 00       	mov    %eax,0x12bc88
    523c:	89 5c 24 10          	mov    %ebx,0x10(%esp)
    5240:	c7 44 24 0c 01 00 00 	movl   $0x1,0xc(%esp)
    5247:	00 
    5248:	c7 44 24 08 01 00 00 	movl   $0x1,0x8(%esp)
    524f:	00 
    5250:	c7 44 24 04 90 4f 00 	movl   $0x4f90,0x4(%esp)
    5257:	00 
    5258:	c7 04 24 78 8b 00 00 	movl   $0x8b78,(%esp)
    525f:	e8 3e 11 00 00       	call   63a2 <scheme_register_primitive>
    5264:	89 5c 24 10          	mov    %ebx,0x10(%esp)
    5268:	c7 44 24 0c 01 00 00 	movl   $0x1,0xc(%esp)
    526f:	00 
    5270:	c7 44 24 08 01 00 00 	movl   $0x1,0x8(%esp)
    5277:	00 
    5278:	c7 44 24 04 af 4f 00 	movl   $0x4faf,0x4(%esp)
    527f:	00 
    5280:	c7 04 24 84 8b 00 00 	movl   $0x8b84,(%esp)
    5287:	e8 16 11 00 00       	call   63a2 <scheme_register_primitive>
    528c:	89 5c 24 10          	mov    %ebx,0x10(%esp)
    5290:	c7 44 24 0c 00 00 00 	movl   $0x0,0xc(%esp)
    5297:	00 
    5298:	c7 44 24 08 00 00 00 	movl   $0x0,0x8(%esp)
    529f:	00 
    52a0:	c7 44 24 04 ce 4f 00 	movl   $0x4fce,0x4(%esp)
    52a7:	00 
    52a8:	c7 04 24 91 8b 00 00 	movl   $0x8b91,(%esp)
    52af:	e8 ee 10 00 00       	call   63a2 <scheme_register_primitive>
    52b4:	89 5c 24 10          	mov    %ebx,0x10(%esp)
    52b8:	c7 44 24 0c 00 00 00 	movl   $0x0,0xc(%esp)
    52bf:	00 
    52c0:	c7 44 24 08 00 00 00 	movl   $0x0,0x8(%esp)
    52c7:	00 
    52c8:	c7 44 24 04 d8 4f 00 	movl   $0x4fd8,0x4(%esp)
    52cf:	00 
    52d0:	c7 04 24 a4 8b 00 00 	movl   $0x8ba4,(%esp)
    52d7:	e8 c6 10 00 00       	call   63a2 <scheme_register_primitive>
    52dc:	89 5c 24 10          	mov    %ebx,0x10(%esp)
    52e0:	c7 44 24 0c 01 00 00 	movl   $0x1,0xc(%esp)
    52e7:	00 
    52e8:	c7 44 24 08 01 00 00 	movl   $0x1,0x8(%esp)
    52ef:	00 
    52f0:	c7 44 24 04 e2 4f 00 	movl   $0x4fe2,0x4(%esp)
    52f7:	00 
    52f8:	c7 04 24 b8 8b 00 00 	movl   $0x8bb8,(%esp)
    52ff:	e8 9e 10 00 00       	call   63a2 <scheme_register_primitive>
    5304:	89 5c 24 10          	mov    %ebx,0x10(%esp)
    5308:	c7 44 24 0c 01 00 00 	movl   $0x1,0xc(%esp)
    530f:	00 
    5310:	c7 44 24 08 01 00 00 	movl   $0x1,0x8(%esp)
    5317:	00 
    5318:	c7 44 24 04 e7 4f 00 	movl   $0x4fe7,0x4(%esp)
    531f:	00 
    5320:	c7 04 24 cd 8b 00 00 	movl   $0x8bcd,(%esp)
    5327:	e8 76 10 00 00       	call   63a2 <scheme_register_primitive>
    532c:	89 5c 24 10          	mov    %ebx,0x10(%esp)
    5330:	c7 44 24 0c 01 00 00 	movl   $0x1,0xc(%esp)
    5337:	00 
    5338:	c7 44 24 08 01 00 00 	movl   $0x1,0x8(%esp)
    533f:	00 
    5340:	c7 44 24 04 ec 4f 00 	movl   $0x4fec,0x4(%esp)
    5347:	00 
    5348:	c7 04 24 e1 8b 00 00 	movl   $0x8be1,(%esp)
    534f:	e8 4e 10 00 00       	call   63a2 <scheme_register_primitive>
    5354:	89 5c 24 10          	mov    %ebx,0x10(%esp)
    5358:	c7 44 24 0c 01 00 00 	movl   $0x1,0xc(%esp)
    535f:	00 
    5360:	c7 44 24 08 01 00 00 	movl   $0x1,0x8(%esp)
    5367:	00 
    5368:	c7 44 24 04 f1 4f 00 	movl   $0x4ff1,0x4(%esp)
    536f:	00 
    5370:	c7 04 24 f1 8b 00 00 	movl   $0x8bf1,(%esp)
    5377:	e8 26 10 00 00       	call   63a2 <scheme_register_primitive>
    537c:	89 5c 24 10          	mov    %ebx,0x10(%esp)
    5380:	c7 44 24 0c 01 00 00 	movl   $0x1,0xc(%esp)
    5387:	00 
    5388:	c7 44 24 08 01 00 00 	movl   $0x1,0x8(%esp)
    538f:	00 
    5390:	c7 44 24 04 f6 4f 00 	movl   $0x4ff6,0x4(%esp)
    5397:	00 
    5398:	c7 04 24 02 8c 00 00 	movl   $0x8c02,(%esp)
    539f:	e8 fe 0f 00 00       	call   63a2 <scheme_register_primitive>
    53a4:	89 5c 24 10          	mov    %ebx,0x10(%esp)
    53a8:	c7 44 24 0c 01 00 00 	movl   $0x1,0xc(%esp)
    53af:	00 
    53b0:	c7 44 24 08 01 00 00 	movl   $0x1,0x8(%esp)
    53b7:	00 
    53b8:	c7 44 24 04 fb 4f 00 	movl   $0x4ffb,0x4(%esp)
    53bf:	00 
    53c0:	c7 04 24 13 8c 00 00 	movl   $0x8c13,(%esp)
    53c7:	e8 d6 0f 00 00       	call   63a2 <scheme_register_primitive>
    53cc:	c7 04 24 25 8c 00 00 	movl   $0x8c25,(%esp)
    53d3:	e8 18 08 00 00       	call   5bf0 <scheme_make_symbol>
    53d8:	89 5c 24 08          	mov    %ebx,0x8(%esp)
    53dc:	89 74 24 04          	mov    %esi,0x4(%esp)
    53e0:	89 04 24             	mov    %eax,(%esp)
    53e3:	e8 be 0c 00 00       	call   60a6 <scheme_define_var>
    53e8:	83 c4 20             	add    $0x20,%esp
    53eb:	5b                   	pop    %ebx
    53ec:	5e                   	pop    %esi
    53ed:	5d                   	pop    %ebp
    53ee:	c3                   	ret    
    53ef:	90                   	nop

000053f0 <_gcd>:
    53f0:	55                   	push   %ebp
    53f1:	89 e5                	mov    %esp,%ebp
    53f3:	8b 45 08             	mov    0x8(%ebp),%eax
    53f6:	8b 55 0c             	mov    0xc(%ebp),%edx
    53f9:	39 d0                	cmp    %edx,%eax
    53fb:	7e 06                	jle    5403 <_gcd+0x13>
    53fd:	89 c1                	mov    %eax,%ecx
    53ff:	89 d0                	mov    %edx,%eax
    5401:	89 ca                	mov    %ecx,%edx
    5403:	29 c2                	sub    %eax,%edx
    5405:	75 f2                	jne    53f9 <_gcd+0x9>
    5407:	5d                   	pop    %ebp
    5408:	c3                   	ret    

00005409 <number_p>:
    5409:	55                   	push   %ebp
    540a:	89 e5                	mov    %esp,%ebp
    540c:	8b 45 0c             	mov    0xc(%ebp),%eax
    540f:	8b 00                	mov    (%eax),%eax
    5411:	a8 01                	test   $0x1,%al
    5413:	75 14                	jne    5429 <number_p+0x20>
    5415:	0f b7 10             	movzwl (%eax),%edx
    5418:	66 83 fa 09          	cmp    $0x9,%dx
    541c:	7e 0b                	jle    5429 <number_p+0x20>
    541e:	b8 14 cd 12 00       	mov    $0x12cd14,%eax
    5423:	66 83 fa 0f          	cmp    $0xf,%dx
    5427:	7e 05                	jle    542e <number_p+0x25>
    5429:	b8 00 cd 12 00       	mov    $0x12cd00,%eax
    542e:	5d                   	pop    %ebp
    542f:	c3                   	ret    

00005430 <real_p>:
    5430:	55                   	push   %ebp
    5431:	89 e5                	mov    %esp,%ebp
    5433:	8b 45 0c             	mov    0xc(%ebp),%eax
    5436:	8b 10                	mov    (%eax),%edx
    5438:	f6 c2 01             	test   $0x1,%dl
    543b:	75 0b                	jne    5448 <real_p+0x18>
    543d:	b8 14 cd 12 00       	mov    $0x12cd14,%eax
    5442:	66 83 3a 0f          	cmpw   $0xf,(%edx)
    5446:	74 05                	je     544d <real_p+0x1d>
    5448:	b8 00 cd 12 00       	mov    $0x12cd00,%eax
    544d:	5d                   	pop    %ebp
    544e:	c3                   	ret    

0000544f <rational_p>:
    544f:	55                   	push   %ebp
    5450:	89 e5                	mov    %esp,%ebp
    5452:	8b 45 0c             	mov    0xc(%ebp),%eax
    5455:	8b 10                	mov    (%eax),%edx
    5457:	f6 c2 01             	test   $0x1,%dl
    545a:	75 0b                	jne    5467 <rational_p+0x18>
    545c:	b8 14 cd 12 00       	mov    $0x12cd14,%eax
    5461:	66 83 3a 0c          	cmpw   $0xc,(%edx)
    5465:	74 05                	je     546c <rational_p+0x1d>
    5467:	b8 00 cd 12 00       	mov    $0x12cd00,%eax
    546c:	5d                   	pop    %ebp
    546d:	c3                   	ret    

0000546e <integer_p>:
    546e:	55                   	push   %ebp
    546f:	89 e5                	mov    %esp,%ebp
    5471:	8b 45 0c             	mov    0xc(%ebp),%eax
    5474:	8b 10                	mov    (%eax),%edx
    5476:	f6 c2 01             	test   $0x1,%dl
    5479:	75 0b                	jne    5486 <integer_p+0x18>
    547b:	b8 14 cd 12 00       	mov    $0x12cd14,%eax
    5480:	66 83 3a 0a          	cmpw   $0xa,(%edx)
    5484:	74 05                	je     548b <integer_p+0x1d>
    5486:	b8 00 cd 12 00       	mov    $0x12cd00,%eax
    548b:	5d                   	pop    %ebp
    548c:	c3                   	ret    

0000548d <exact_p>:
    548d:	55                   	push   %ebp
    548e:	89 e5                	mov    %esp,%ebp
    5490:	b8 14 cd 12 00       	mov    $0x12cd14,%eax
    5495:	5d                   	pop    %ebp
    5496:	c3                   	ret    

00005497 <inexact_p>:
    5497:	55                   	push   %ebp
    5498:	89 e5                	mov    %esp,%ebp
    549a:	b8 00 cd 12 00       	mov    $0x12cd00,%eax
    549f:	5d                   	pop    %ebp
    54a0:	c3                   	ret    

000054a1 <divison>:
    54a1:	55                   	push   %ebp
    54a2:	89 e5                	mov    %esp,%ebp
    54a4:	57                   	push   %edi
    54a5:	56                   	push   %esi
    54a6:	53                   	push   %ebx
    54a7:	83 ec 2c             	sub    $0x2c,%esp
    54aa:	8b 7d 08             	mov    0x8(%ebp),%edi
    54ad:	8b 5d 0c             	mov    0xc(%ebp),%ebx
    54b0:	c7 04 24 10 00 00 00 	movl   $0x10,(%esp)
    54b7:	e8 f8 25 00 00       	call   7ab4 <kmalloc>
    54bc:	89 c6                	mov    %eax,%esi
    54be:	83 ff 01             	cmp    $0x1,%edi
    54c1:	75 13                	jne    54d6 <divison+0x35>
    54c3:	66 c7 00 0a 00       	movw   $0xa,(%eax)
    54c8:	c7 40 04 01 00 00 00 	movl   $0x1,0x4(%eax)
    54cf:	b9 00 00 00 00       	mov    $0x0,%ecx
    54d4:	eb 25                	jmp    54fb <divison+0x5a>
    54d6:	83 ef 01             	sub    $0x1,%edi
    54d9:	8b 03                	mov    (%ebx),%eax
    54db:	8b 10                	mov    (%eax),%edx
    54dd:	89 16                	mov    %edx,(%esi)
    54df:	8b 50 04             	mov    0x4(%eax),%edx
    54e2:	89 56 04             	mov    %edx,0x4(%esi)
    54e5:	8b 50 08             	mov    0x8(%eax),%edx
    54e8:	89 56 08             	mov    %edx,0x8(%esi)
    54eb:	8b 40 0c             	mov    0xc(%eax),%eax
    54ee:	89 46 0c             	mov    %eax,0xc(%esi)
    54f1:	85 ff                	test   %edi,%edi
    54f3:	7e 72                	jle    5567 <divison+0xc6>
    54f5:	83 c3 04             	add    $0x4,%ebx
    54f8:	8d 4f ff             	lea    -0x1(%edi),%ecx
    54fb:	89 f0                	mov    %esi,%eax
    54fd:	83 e0 01             	and    $0x1,%eax
    5500:	89 45 e4             	mov    %eax,-0x1c(%ebp)
    5503:	ba 08 00 00 00       	mov    $0x8,%edx
    5508:	83 7d e4 00          	cmpl   $0x0,-0x1c(%ebp)
    550c:	75 03                	jne    5511 <divison+0x70>
    550e:	0f bf 16             	movswl (%esi),%edx
    5511:	8b 3b                	mov    (%ebx),%edi
    5513:	b8 08 00 00 00       	mov    $0x8,%eax
    5518:	f7 c7 01 00 00 00    	test   $0x1,%edi
    551e:	75 03                	jne    5523 <divison+0x82>
    5520:	0f bf 07             	movswl (%edi),%eax
    5523:	39 c2                	cmp    %eax,%edx
    5525:	75 34                	jne    555b <divison+0xba>
    5527:	83 7d e4 00          	cmpl   $0x0,-0x1c(%ebp)
    552b:	75 2e                	jne    555b <divison+0xba>
    552d:	0f b7 06             	movzwl (%esi),%eax
    5530:	66 83 f8 0a          	cmp    $0xa,%ax
    5534:	74 0c                	je     5542 <divison+0xa1>
    5536:	66 83 f8 0f          	cmp    $0xf,%ax
    553a:	75 1f                	jne    555b <divison+0xba>
    553c:	8d 74 26 00          	lea    0x0(%esi,%eiz,1),%esi
    5540:	eb 10                	jmp    5552 <divison+0xb1>
    5542:	8b 56 04             	mov    0x4(%esi),%edx
    5545:	89 d0                	mov    %edx,%eax
    5547:	c1 fa 1f             	sar    $0x1f,%edx
    554a:	f7 7f 04             	idivl  0x4(%edi)
    554d:	89 46 04             	mov    %eax,0x4(%esi)
    5550:	eb 09                	jmp    555b <divison+0xba>
    5552:	dd 47 04             	fldl   0x4(%edi)
    5555:	dc 76 04             	fdivl  0x4(%esi)
    5558:	dd 5e 04             	fstpl  0x4(%esi)
    555b:	85 c9                	test   %ecx,%ecx
    555d:	7e 08                	jle    5567 <divison+0xc6>
    555f:	83 c3 04             	add    $0x4,%ebx
    5562:	83 e9 01             	sub    $0x1,%ecx
    5565:	eb 9c                	jmp    5503 <divison+0x62>
    5567:	89 f0                	mov    %esi,%eax
    5569:	83 c4 2c             	add    $0x2c,%esp
    556c:	5b                   	pop    %ebx
    556d:	5e                   	pop    %esi
    556e:	5f                   	pop    %edi
    556f:	5d                   	pop    %ebp
    5570:	c3                   	ret    

00005571 <multiplication>:
    5571:	55                   	push   %ebp
    5572:	89 e5                	mov    %esp,%ebp
    5574:	57                   	push   %edi
    5575:	56                   	push   %esi
    5576:	53                   	push   %ebx
    5577:	83 ec 2c             	sub    $0x2c,%esp
    557a:	8b 5d 08             	mov    0x8(%ebp),%ebx
    557d:	c7 04 24 10 00 00 00 	movl   $0x10,(%esp)
    5584:	e8 2b 25 00 00       	call   7ab4 <kmalloc>
    5589:	66 c7 00 0a 00       	movw   $0xa,(%eax)
    558e:	c7 40 04 01 00 00 00 	movl   $0x1,0x4(%eax)
    5595:	85 db                	test   %ebx,%ebx
    5597:	7e 6a                	jle    5603 <multiplication+0x92>
    5599:	89 5d e0             	mov    %ebx,-0x20(%ebp)
    559c:	ba 00 00 00 00       	mov    $0x0,%edx
    55a1:	89 c1                	mov    %eax,%ecx
    55a3:	83 e1 01             	and    $0x1,%ecx
    55a6:	89 4d e4             	mov    %ecx,-0x1c(%ebp)
    55a9:	bf 08 00 00 00       	mov    $0x8,%edi
    55ae:	89 fe                	mov    %edi,%esi
    55b0:	83 7d e4 00          	cmpl   $0x0,-0x1c(%ebp)
    55b4:	75 03                	jne    55b9 <multiplication+0x48>
    55b6:	0f bf 30             	movswl (%eax),%esi
    55b9:	8b 5d 0c             	mov    0xc(%ebp),%ebx
    55bc:	8b 0c 93             	mov    (%ebx,%edx,4),%ecx
    55bf:	89 fb                	mov    %edi,%ebx
    55c1:	f6 c1 01             	test   $0x1,%cl
    55c4:	75 03                	jne    55c9 <multiplication+0x58>
    55c6:	0f bf 19             	movswl (%ecx),%ebx
    55c9:	39 de                	cmp    %ebx,%esi
    55cb:	75 2e                	jne    55fb <multiplication+0x8a>
    55cd:	83 7d e4 00          	cmpl   $0x0,-0x1c(%ebp)
    55d1:	75 28                	jne    55fb <multiplication+0x8a>
    55d3:	0f b7 18             	movzwl (%eax),%ebx
    55d6:	66 83 fb 0a          	cmp    $0xa,%bx
    55da:	74 08                	je     55e4 <multiplication+0x73>
    55dc:	66 83 fb 0f          	cmp    $0xf,%bx
    55e0:	75 19                	jne    55fb <multiplication+0x8a>
    55e2:	eb 0e                	jmp    55f2 <multiplication+0x81>
    55e4:	8b 58 04             	mov    0x4(%eax),%ebx
    55e7:	0f af 59 04          	imul   0x4(%ecx),%ebx
    55eb:	89 58 04             	mov    %ebx,0x4(%eax)
    55ee:	66 90                	xchg   %ax,%ax
    55f0:	eb 09                	jmp    55fb <multiplication+0x8a>
    55f2:	dd 40 04             	fldl   0x4(%eax)
    55f5:	dc 49 04             	fmull  0x4(%ecx)
    55f8:	dd 58 04             	fstpl  0x4(%eax)
    55fb:	83 c2 01             	add    $0x1,%edx
    55fe:	3b 55 e0             	cmp    -0x20(%ebp),%edx
    5601:	75 ab                	jne    55ae <multiplication+0x3d>
    5603:	83 c4 2c             	add    $0x2c,%esp
    5606:	5b                   	pop    %ebx
    5607:	5e                   	pop    %esi
    5608:	5f                   	pop    %edi
    5609:	5d                   	pop    %ebp
    560a:	c3                   	ret    

0000560b <subtraction>:
    560b:	55                   	push   %ebp
    560c:	89 e5                	mov    %esp,%ebp
    560e:	57                   	push   %edi
    560f:	56                   	push   %esi
    5610:	53                   	push   %ebx
    5611:	83 ec 2c             	sub    $0x2c,%esp
    5614:	8b 75 08             	mov    0x8(%ebp),%esi
    5617:	8b 5d 0c             	mov    0xc(%ebp),%ebx
    561a:	c7 04 24 10 00 00 00 	movl   $0x10,(%esp)
    5621:	e8 8e 24 00 00       	call   7ab4 <kmalloc>
    5626:	83 fe 01             	cmp    $0x1,%esi
    5629:	75 15                	jne    5640 <subtraction+0x35>
    562b:	66 c7 00 0a 00       	movw   $0xa,(%eax)
    5630:	c7 40 04 00 00 00 00 	movl   $0x0,0x4(%eax)
    5637:	89 d9                	mov    %ebx,%ecx
    5639:	ba 00 00 00 00       	mov    $0x0,%edx
    563e:	eb 25                	jmp    5665 <subtraction+0x5a>
    5640:	83 ee 01             	sub    $0x1,%esi
    5643:	8b 0b                	mov    (%ebx),%ecx
    5645:	8b 11                	mov    (%ecx),%edx
    5647:	89 10                	mov    %edx,(%eax)
    5649:	8b 51 04             	mov    0x4(%ecx),%edx
    564c:	89 50 04             	mov    %edx,0x4(%eax)
    564f:	8b 51 08             	mov    0x8(%ecx),%edx
    5652:	89 50 08             	mov    %edx,0x8(%eax)
    5655:	8b 51 0c             	mov    0xc(%ecx),%edx
    5658:	89 50 0c             	mov    %edx,0xc(%eax)
    565b:	85 f6                	test   %esi,%esi
    565d:	7e 68                	jle    56c7 <subtraction+0xbc>
    565f:	8d 4b 04             	lea    0x4(%ebx),%ecx
    5662:	8d 56 ff             	lea    -0x1(%esi),%edx
    5665:	89 c3                	mov    %eax,%ebx
    5667:	83 e3 01             	and    $0x1,%ebx
    566a:	89 5d e4             	mov    %ebx,-0x1c(%ebp)
    566d:	bf 08 00 00 00       	mov    $0x8,%edi
    5672:	83 7d e4 00          	cmpl   $0x0,-0x1c(%ebp)
    5676:	75 03                	jne    567b <subtraction+0x70>
    5678:	0f bf 38             	movswl (%eax),%edi
    567b:	8b 19                	mov    (%ecx),%ebx
    567d:	be 08 00 00 00       	mov    $0x8,%esi
    5682:	f6 c3 01             	test   $0x1,%bl
    5685:	75 03                	jne    568a <subtraction+0x7f>
    5687:	0f bf 33             	movswl (%ebx),%esi
    568a:	39 f7                	cmp    %esi,%edi
    568c:	75 2d                	jne    56bb <subtraction+0xb0>
    568e:	83 7d e4 00          	cmpl   $0x0,-0x1c(%ebp)
    5692:	75 27                	jne    56bb <subtraction+0xb0>
    5694:	0f b7 30             	movzwl (%eax),%esi
    5697:	66 83 fe 0a          	cmp    $0xa,%si
    569b:	74 08                	je     56a5 <subtraction+0x9a>
    569d:	66 83 fe 0f          	cmp    $0xf,%si
    56a1:	75 18                	jne    56bb <subtraction+0xb0>
    56a3:	eb 0d                	jmp    56b2 <subtraction+0xa7>
    56a5:	8b 5b 04             	mov    0x4(%ebx),%ebx
    56a8:	29 58 04             	sub    %ebx,0x4(%eax)
    56ab:	90                   	nop
    56ac:	8d 74 26 00          	lea    0x0(%esi,%eiz,1),%esi
    56b0:	eb 09                	jmp    56bb <subtraction+0xb0>
    56b2:	dd 43 04             	fldl   0x4(%ebx)
    56b5:	dc 60 04             	fsubl  0x4(%eax)
    56b8:	dd 58 04             	fstpl  0x4(%eax)
    56bb:	85 d2                	test   %edx,%edx
    56bd:	7e 08                	jle    56c7 <subtraction+0xbc>
    56bf:	83 c1 04             	add    $0x4,%ecx
    56c2:	83 ea 01             	sub    $0x1,%edx
    56c5:	eb a6                	jmp    566d <subtraction+0x62>
    56c7:	83 c4 2c             	add    $0x2c,%esp
    56ca:	5b                   	pop    %ebx
    56cb:	5e                   	pop    %esi
    56cc:	5f                   	pop    %edi
    56cd:	5d                   	pop    %ebp
    56ce:	c3                   	ret    

000056cf <addition>:
    56cf:	55                   	push   %ebp
    56d0:	89 e5                	mov    %esp,%ebp
    56d2:	57                   	push   %edi
    56d3:	56                   	push   %esi
    56d4:	53                   	push   %ebx
    56d5:	83 ec 2c             	sub    $0x2c,%esp
    56d8:	8b 5d 08             	mov    0x8(%ebp),%ebx
    56db:	c7 04 24 10 00 00 00 	movl   $0x10,(%esp)
    56e2:	e8 cd 23 00 00       	call   7ab4 <kmalloc>
    56e7:	66 c7 00 0a 00       	movw   $0xa,(%eax)
    56ec:	c7 40 04 00 00 00 00 	movl   $0x0,0x4(%eax)
    56f3:	85 db                	test   %ebx,%ebx
    56f5:	7e 66                	jle    575d <addition+0x8e>
    56f7:	89 5d e0             	mov    %ebx,-0x20(%ebp)
    56fa:	ba 00 00 00 00       	mov    $0x0,%edx
    56ff:	89 c1                	mov    %eax,%ecx
    5701:	83 e1 01             	and    $0x1,%ecx
    5704:	89 4d e4             	mov    %ecx,-0x1c(%ebp)
    5707:	bf 08 00 00 00       	mov    $0x8,%edi
    570c:	89 fe                	mov    %edi,%esi
    570e:	83 7d e4 00          	cmpl   $0x0,-0x1c(%ebp)
    5712:	75 03                	jne    5717 <addition+0x48>
    5714:	0f bf 30             	movswl (%eax),%esi
    5717:	8b 5d 0c             	mov    0xc(%ebp),%ebx
    571a:	8b 0c 93             	mov    (%ebx,%edx,4),%ecx
    571d:	89 fb                	mov    %edi,%ebx
    571f:	f6 c1 01             	test   $0x1,%cl
    5722:	75 03                	jne    5727 <addition+0x58>
    5724:	0f bf 19             	movswl (%ecx),%ebx
    5727:	39 de                	cmp    %ebx,%esi
    5729:	75 2a                	jne    5755 <addition+0x86>
    572b:	83 7d e4 00          	cmpl   $0x0,-0x1c(%ebp)
    572f:	75 24                	jne    5755 <addition+0x86>
    5731:	0f b7 18             	movzwl (%eax),%ebx
    5734:	66 83 fb 0a          	cmp    $0xa,%bx
    5738:	74 0a                	je     5744 <addition+0x75>
    573a:	66 83 fb 0f          	cmp    $0xf,%bx
    573e:	66 90                	xchg   %ax,%ax
    5740:	75 13                	jne    5755 <addition+0x86>
    5742:	eb 08                	jmp    574c <addition+0x7d>
    5744:	8b 49 04             	mov    0x4(%ecx),%ecx
    5747:	01 48 04             	add    %ecx,0x4(%eax)
    574a:	eb 09                	jmp    5755 <addition+0x86>
    574c:	dd 40 04             	fldl   0x4(%eax)
    574f:	dc 41 04             	faddl  0x4(%ecx)
    5752:	dd 58 04             	fstpl  0x4(%eax)
    5755:	83 c2 01             	add    $0x1,%edx
    5758:	3b 55 e0             	cmp    -0x20(%ebp),%edx
    575b:	75 af                	jne    570c <addition+0x3d>
    575d:	83 c4 2c             	add    $0x2c,%esp
    5760:	5b                   	pop    %ebx
    5761:	5e                   	pop    %esi
    5762:	5f                   	pop    %edi
    5763:	5d                   	pop    %ebp
    5764:	c3                   	ret    

00005765 <scheme_make_rational>:
    5765:	55                   	push   %ebp
    5766:	89 e5                	mov    %esp,%ebp
    5768:	83 ec 28             	sub    $0x28,%esp
    576b:	89 5d f4             	mov    %ebx,-0xc(%ebp)
    576e:	89 75 f8             	mov    %esi,-0x8(%ebp)
    5771:	89 7d fc             	mov    %edi,-0x4(%ebp)
    5774:	8b 75 08             	mov    0x8(%ebp),%esi
    5777:	8b 7d 0c             	mov    0xc(%ebp),%edi
    577a:	c7 04 24 10 00 00 00 	movl   $0x10,(%esp)
    5781:	e8 2e 23 00 00       	call   7ab4 <kmalloc>
    5786:	89 c3                	mov    %eax,%ebx
    5788:	89 7c 24 04          	mov    %edi,0x4(%esp)
    578c:	89 34 24             	mov    %esi,(%esp)
    578f:	e8 5c fc ff ff       	call   53f0 <_gcd>
    5794:	89 c1                	mov    %eax,%ecx
    5796:	89 f2                	mov    %esi,%edx
    5798:	89 f0                	mov    %esi,%eax
    579a:	c1 fa 1f             	sar    $0x1f,%edx
    579d:	f7 f9                	idiv   %ecx
    579f:	89 43 04             	mov    %eax,0x4(%ebx)
    57a2:	89 fa                	mov    %edi,%edx
    57a4:	89 f8                	mov    %edi,%eax
    57a6:	c1 fa 1f             	sar    $0x1f,%edx
    57a9:	f7 f9                	idiv   %ecx
    57ab:	89 43 08             	mov    %eax,0x8(%ebx)
    57ae:	89 d8                	mov    %ebx,%eax
    57b0:	8b 5d f4             	mov    -0xc(%ebp),%ebx
    57b3:	8b 75 f8             	mov    -0x8(%ebp),%esi
    57b6:	8b 7d fc             	mov    -0x4(%ebp),%edi
    57b9:	89 ec                	mov    %ebp,%esp
    57bb:	5d                   	pop    %ebp
    57bc:	c3                   	ret    

000057bd <scheme_make_double_numb>:
    57bd:	55                   	push   %ebp
    57be:	89 e5                	mov    %esp,%ebp
    57c0:	83 ec 28             	sub    $0x28,%esp
    57c3:	dd 45 08             	fldl   0x8(%ebp)
    57c6:	dd 5d e8             	fstpl  -0x18(%ebp)
    57c9:	c7 04 24 10 00 00 00 	movl   $0x10,(%esp)
    57d0:	e8 df 22 00 00       	call   7ab4 <kmalloc>
    57d5:	3d c0 cc 12 00       	cmp    $0x12ccc0,%eax
    57da:	74 1e                	je     57fa <scheme_make_double_numb+0x3d>
    57dc:	66 c7 00 0f 00       	movw   $0xf,(%eax)
    57e1:	d9 7d f6             	fnstcw -0xa(%ebp)
    57e4:	0f b7 55 f6          	movzwl -0xa(%ebp),%edx
    57e8:	b6 0c                	mov    $0xc,%dh
    57ea:	66 89 55 f4          	mov    %dx,-0xc(%ebp)
    57ee:	dd 45 e8             	fldl   -0x18(%ebp)
    57f1:	d9 6d f4             	fldcw  -0xc(%ebp)
    57f4:	db 58 04             	fistpl 0x4(%eax)
    57f7:	d9 6d f6             	fldcw  -0xa(%ebp)
    57fa:	c9                   	leave  
    57fb:	c3                   	ret    

000057fc <scheme_make_integer_numb>:
    57fc:	55                   	push   %ebp
    57fd:	89 e5                	mov    %esp,%ebp
    57ff:	83 ec 18             	sub    $0x18,%esp
    5802:	c7 04 24 10 00 00 00 	movl   $0x10,(%esp)
    5809:	e8 a6 22 00 00       	call   7ab4 <kmalloc>
    580e:	3d c0 cc 12 00       	cmp    $0x12ccc0,%eax
    5813:	74 0b                	je     5820 <scheme_make_integer_numb+0x24>
    5815:	66 c7 00 0a 00       	movw   $0xa,(%eax)
    581a:	8b 55 08             	mov    0x8(%ebp),%edx
    581d:	89 50 04             	mov    %edx,0x4(%eax)
    5820:	c9                   	leave  
    5821:	c3                   	ret    

00005822 <scheme_init_number>:
    5822:	55                   	push   %ebp
    5823:	89 e5                	mov    %esp,%ebp
    5825:	53                   	push   %ebx
    5826:	83 ec 24             	sub    $0x24,%esp
    5829:	8b 5d 08             	mov    0x8(%ebp),%ebx
    582c:	89 5c 24 10          	mov    %ebx,0x10(%esp)
    5830:	c7 44 24 0c 01 00 00 	movl   $0x1,0xc(%esp)
    5837:	00 
    5838:	c7 44 24 08 01 00 00 	movl   $0x1,0x8(%esp)
    583f:	00 
    5840:	c7 44 24 04 09 54 00 	movl   $0x5409,0x4(%esp)
    5847:	00 
    5848:	c7 04 24 41 8c 00 00 	movl   $0x8c41,(%esp)
    584f:	e8 4e 0b 00 00       	call   63a2 <scheme_register_primitive>
    5854:	89 5c 24 10          	mov    %ebx,0x10(%esp)
    5858:	c7 44 24 0c 01 00 00 	movl   $0x1,0xc(%esp)
    585f:	00 
    5860:	c7 44 24 08 01 00 00 	movl   $0x1,0x8(%esp)
    5867:	00 
    5868:	c7 44 24 04 30 54 00 	movl   $0x5430,0x4(%esp)
    586f:	00 
    5870:	c7 04 24 49 8c 00 00 	movl   $0x8c49,(%esp)
    5877:	e8 26 0b 00 00       	call   63a2 <scheme_register_primitive>
    587c:	89 5c 24 10          	mov    %ebx,0x10(%esp)
    5880:	c7 44 24 0c 01 00 00 	movl   $0x1,0xc(%esp)
    5887:	00 
    5888:	c7 44 24 08 01 00 00 	movl   $0x1,0x8(%esp)
    588f:	00 
    5890:	c7 44 24 04 4f 54 00 	movl   $0x544f,0x4(%esp)
    5897:	00 
    5898:	c7 04 24 4f 8c 00 00 	movl   $0x8c4f,(%esp)
    589f:	e8 fe 0a 00 00       	call   63a2 <scheme_register_primitive>
    58a4:	89 5c 24 10          	mov    %ebx,0x10(%esp)
    58a8:	c7 44 24 0c 01 00 00 	movl   $0x1,0xc(%esp)
    58af:	00 
    58b0:	c7 44 24 08 01 00 00 	movl   $0x1,0x8(%esp)
    58b7:	00 
    58b8:	c7 44 24 04 6e 54 00 	movl   $0x546e,0x4(%esp)
    58bf:	00 
    58c0:	c7 04 24 59 8c 00 00 	movl   $0x8c59,(%esp)
    58c7:	e8 d6 0a 00 00       	call   63a2 <scheme_register_primitive>
    58cc:	89 5c 24 10          	mov    %ebx,0x10(%esp)
    58d0:	c7 44 24 0c 01 00 00 	movl   $0x1,0xc(%esp)
    58d7:	00 
    58d8:	c7 44 24 08 01 00 00 	movl   $0x1,0x8(%esp)
    58df:	00 
    58e0:	c7 44 24 04 8d 54 00 	movl   $0x548d,0x4(%esp)
    58e7:	00 
    58e8:	c7 04 24 64 8c 00 00 	movl   $0x8c64,(%esp)
    58ef:	e8 ae 0a 00 00       	call   63a2 <scheme_register_primitive>
    58f4:	89 5c 24 10          	mov    %ebx,0x10(%esp)
    58f8:	c7 44 24 0c 01 00 00 	movl   $0x1,0xc(%esp)
    58ff:	00 
    5900:	c7 44 24 08 01 00 00 	movl   $0x1,0x8(%esp)
    5907:	00 
    5908:	c7 44 24 04 97 54 00 	movl   $0x5497,0x4(%esp)
    590f:	00 
    5910:	c7 04 24 62 8c 00 00 	movl   $0x8c62,(%esp)
    5917:	e8 86 0a 00 00       	call   63a2 <scheme_register_primitive>
    591c:	89 5c 24 10          	mov    %ebx,0x10(%esp)
    5920:	c7 44 24 0c ff ff ff 	movl   $0xffffffff,0xc(%esp)
    5927:	ff 
    5928:	c7 44 24 08 00 00 00 	movl   $0x0,0x8(%esp)
    592f:	00 
    5930:	c7 44 24 04 cf 56 00 	movl   $0x56cf,0x4(%esp)
    5937:	00 
    5938:	c7 04 24 6b 8c 00 00 	movl   $0x8c6b,(%esp)
    593f:	e8 5e 0a 00 00       	call   63a2 <scheme_register_primitive>
    5944:	89 5c 24 10          	mov    %ebx,0x10(%esp)
    5948:	c7 44 24 0c ff ff ff 	movl   $0xffffffff,0xc(%esp)
    594f:	ff 
    5950:	c7 44 24 08 00 00 00 	movl   $0x0,0x8(%esp)
    5957:	00 
    5958:	c7 44 24 04 0b 56 00 	movl   $0x560b,0x4(%esp)
    595f:	00 
    5960:	c7 04 24 6d 8c 00 00 	movl   $0x8c6d,(%esp)
    5967:	e8 36 0a 00 00       	call   63a2 <scheme_register_primitive>
    596c:	89 5c 24 10          	mov    %ebx,0x10(%esp)
    5970:	c7 44 24 0c ff ff ff 	movl   $0xffffffff,0xc(%esp)
    5977:	ff 
    5978:	c7 44 24 08 00 00 00 	movl   $0x0,0x8(%esp)
    597f:	00 
    5980:	c7 44 24 04 71 55 00 	movl   $0x5571,0x4(%esp)
    5987:	00 
    5988:	c7 04 24 aa 8d 00 00 	movl   $0x8daa,(%esp)
    598f:	e8 0e 0a 00 00       	call   63a2 <scheme_register_primitive>
    5994:	89 5c 24 10          	mov    %ebx,0x10(%esp)
    5998:	c7 44 24 0c ff ff ff 	movl   $0xffffffff,0xc(%esp)
    599f:	ff 
    59a0:	c7 44 24 08 01 00 00 	movl   $0x1,0x8(%esp)
    59a7:	00 
    59a8:	c7 44 24 04 a1 54 00 	movl   $0x54a1,0x4(%esp)
    59af:	00 
    59b0:	c7 04 24 6f 8c 00 00 	movl   $0x8c6f,(%esp)
    59b7:	e8 e6 09 00 00       	call   63a2 <scheme_register_primitive>
    59bc:	83 c4 24             	add    $0x24,%esp
    59bf:	5b                   	pop    %ebx
    59c0:	5d                   	pop    %ebp
    59c1:	c3                   	ret    
    59c2:	90                   	nop
    59c3:	90                   	nop
    59c4:	90                   	nop
    59c5:	90                   	nop
    59c6:	90                   	nop
    59c7:	90                   	nop
    59c8:	90                   	nop
    59c9:	90                   	nop
    59ca:	90                   	nop
    59cb:	90                   	nop
    59cc:	90                   	nop
    59cd:	90                   	nop
    59ce:	90                   	nop
    59cf:	90                   	nop

000059d0 <eval_stack_empty_p>:
    59d0:	55                   	push   %ebp
    59d1:	89 e5                	mov    %esp,%ebp
    59d3:	a1 40 b9 11 00       	mov    0x11b940,%eax
    59d8:	3b 05 44 b9 11 00    	cmp    0x11b944,%eax
    59de:	0f 94 c0             	sete   %al
    59e1:	0f b6 c0             	movzbl %al,%eax
    59e4:	5d                   	pop    %ebp
    59e5:	c3                   	ret    

000059e6 <eval_stack_full_p>:
    59e6:	55                   	push   %ebp
    59e7:	89 e5                	mov    %esp,%ebp
    59e9:	81 3d 44 b9 11 00 40 	cmpl   $0x1b940,0x11b944
    59f0:	b9 01 00 
    59f3:	0f 94 c0             	sete   %al
    59f6:	0f b6 c0             	movzbl %al,%eax
    59f9:	5d                   	pop    %ebp
    59fa:	c3                   	ret    

000059fb <eval_stack_pop_env>:
    59fb:	55                   	push   %ebp
    59fc:	89 e5                	mov    %esp,%ebp
    59fe:	8b 15 44 b9 11 00    	mov    0x11b944,%edx
    5a04:	b8 00 00 00 00       	mov    $0x0,%eax
    5a09:	39 15 40 b9 11 00    	cmp    %edx,0x11b940
    5a0f:	74 0b                	je     5a1c <eval_stack_pop_env+0x21>
    5a11:	8b 02                	mov    (%edx),%eax
    5a13:	83 c2 04             	add    $0x4,%edx
    5a16:	89 15 44 b9 11 00    	mov    %edx,0x11b944
    5a1c:	5d                   	pop    %ebp
    5a1d:	c3                   	ret    

00005a1e <eval_stack_push_env>:
    5a1e:	55                   	push   %ebp
    5a1f:	89 e5                	mov    %esp,%ebp
    5a21:	e8 c0 ff ff ff       	call   59e6 <eval_stack_full_p>
    5a26:	89 c2                	mov    %eax,%edx
    5a28:	b8 ff ff ff ff       	mov    $0xffffffff,%eax
    5a2d:	85 d2                	test   %edx,%edx
    5a2f:	75 17                	jne    5a48 <eval_stack_push_env+0x2a>
    5a31:	a1 44 b9 11 00       	mov    0x11b944,%eax
    5a36:	83 e8 04             	sub    $0x4,%eax
    5a39:	a3 44 b9 11 00       	mov    %eax,0x11b944
    5a3e:	8b 55 08             	mov    0x8(%ebp),%edx
    5a41:	89 10                	mov    %edx,(%eax)
    5a43:	b8 00 00 00 00       	mov    $0x0,%eax
    5a48:	5d                   	pop    %ebp
    5a49:	c3                   	ret    

00005a4a <gc_alloc_nobj>:
    5a4a:	55                   	push   %ebp
    5a4b:	89 e5                	mov    %esp,%ebp
    5a4d:	5d                   	pop    %ebp
    5a4e:	c3                   	ret    

00005a4f <gc_collect_garbage>:
    5a4f:	55                   	push   %ebp
    5a50:	89 e5                	mov    %esp,%ebp
    5a52:	5d                   	pop    %ebp
    5a53:	c3                   	ret    

00005a54 <_new_generation>:
    5a54:	55                   	push   %ebp
    5a55:	89 e5                	mov    %esp,%ebp
    5a57:	56                   	push   %esi
    5a58:	53                   	push   %ebx
    5a59:	83 ec 10             	sub    $0x10,%esp
    5a5c:	c7 04 24 04 04 00 00 	movl   $0x404,(%esp)
    5a63:	e8 4c 20 00 00       	call   7ab4 <kmalloc>
    5a68:	89 c6                	mov    %eax,%esi
    5a6a:	bb 00 00 00 00       	mov    $0x0,%ebx
    5a6f:	85 c0                	test   %eax,%eax
    5a71:	0f 84 a5 00 00 00    	je     5b1c <_new_generation+0xc8>
    5a77:	c7 00 00 00 00 00    	movl   $0x0,(%eax)
    5a7d:	8b 1d 2c b9 01 00    	mov    0x1b92c,%ebx
    5a83:	85 db                	test   %ebx,%ebx
    5a85:	75 14                	jne    5a9b <_new_generation+0x47>
    5a87:	c7 04 24 03 00 00 00 	movl   $0x3,(%esp)
    5a8e:	e8 19 2a 00 00       	call   84ac <expand_region>
    5a93:	89 c3                	mov    %eax,%ebx
    5a95:	85 c0                	test   %eax,%eax
    5a97:	75 2d                	jne    5ac6 <_new_generation+0x72>
    5a99:	eb 21                	jmp    5abc <_new_generation+0x68>
    5a9b:	8b 43 04             	mov    0x4(%ebx),%eax
    5a9e:	39 c3                	cmp    %eax,%ebx
    5aa0:	75 0c                	jne    5aae <_new_generation+0x5a>
    5aa2:	c7 05 2c b9 01 00 00 	movl   $0x0,0x1b92c
    5aa9:	00 00 00 
    5aac:	eb 18                	jmp    5ac6 <_new_generation+0x72>
    5aae:	8b 13                	mov    (%ebx),%edx
    5ab0:	89 42 04             	mov    %eax,0x4(%edx)
    5ab3:	8b 43 04             	mov    0x4(%ebx),%eax
    5ab6:	8b 13                	mov    (%ebx),%edx
    5ab8:	89 10                	mov    %edx,(%eax)
    5aba:	eb 0a                	jmp    5ac6 <_new_generation+0x72>
    5abc:	89 34 24             	mov    %esi,(%esp)
    5abf:	e8 89 1f 00 00       	call   7a4d <kfree>
    5ac4:	eb 56                	jmp    5b1c <_new_generation+0xc8>
    5ac6:	a1 20 b9 01 00       	mov    0x1b920,%eax
    5acb:	85 c0                	test   %eax,%eax
    5acd:	75 18                	jne    5ae7 <_new_generation+0x93>
    5acf:	89 1d 24 b9 01 00    	mov    %ebx,0x1b924
    5ad5:	89 1d 28 b9 01 00    	mov    %ebx,0x1b928
    5adb:	89 5b 04             	mov    %ebx,0x4(%ebx)
    5ade:	89 1b                	mov    %ebx,(%ebx)
    5ae0:	ba 00 00 00 00       	mov    $0x0,%edx
    5ae5:	eb 16                	jmp    5afd <_new_generation+0xa9>
    5ae7:	0f b7 50 08          	movzwl 0x8(%eax),%edx
    5aeb:	83 c2 01             	add    $0x1,%edx
    5aee:	89 03                	mov    %eax,(%ebx)
    5af0:	89 58 04             	mov    %ebx,0x4(%eax)
    5af3:	a1 28 b9 01 00       	mov    0x1b928,%eax
    5af8:	89 18                	mov    %ebx,(%eax)
    5afa:	89 43 04             	mov    %eax,0x4(%ebx)
    5afd:	66 89 53 08          	mov    %dx,0x8(%ebx)
    5b01:	66 c7 43 0a 00 00    	movw   $0x0,0xa(%ebx)
    5b07:	66 c7 43 0c 00 10    	movw   $0x1000,0xc(%ebx)
    5b0d:	8d 43 20             	lea    0x20(%ebx),%eax
    5b10:	89 43 14             	mov    %eax,0x14(%ebx)
    5b13:	89 73 10             	mov    %esi,0x10(%ebx)
    5b16:	89 1d 20 b9 01 00    	mov    %ebx,0x1b920
    5b1c:	89 d8                	mov    %ebx,%eax
    5b1e:	83 c4 10             	add    $0x10,%esp
    5b21:	5b                   	pop    %ebx
    5b22:	5e                   	pop    %esi
    5b23:	5d                   	pop    %ebp
    5b24:	c3                   	ret    

00005b25 <gc_alloc_obj>:
    5b25:	55                   	push   %ebp
    5b26:	89 e5                	mov    %esp,%ebp
    5b28:	83 ec 08             	sub    $0x8,%esp
    5b2b:	a1 20 b9 01 00       	mov    0x1b920,%eax
    5b30:	8b 50 14             	mov    0x14(%eax),%edx
    5b33:	29 c2                	sub    %eax,%edx
    5b35:	81 fa 00 10 00 00    	cmp    $0x1000,%edx
    5b3b:	75 05                	jne    5b42 <gc_alloc_obj+0x1d>
    5b3d:	e8 12 ff ff ff       	call   5a54 <_new_generation>
    5b42:	8b 15 20 b9 01 00    	mov    0x1b920,%edx
    5b48:	8b 42 14             	mov    0x14(%edx),%eax
    5b4b:	8d 48 10             	lea    0x10(%eax),%ecx
    5b4e:	89 4a 14             	mov    %ecx,0x14(%edx)
    5b51:	c9                   	leave  
    5b52:	c3                   	ret    

00005b53 <scheme_init_gc>:
    5b53:	55                   	push   %ebp
    5b54:	89 e5                	mov    %esp,%ebp
    5b56:	83 ec 08             	sub    $0x8,%esp
    5b59:	c7 05 20 b9 01 00 00 	movl   $0x0,0x1b920
    5b60:	00 00 00 
    5b63:	c7 05 24 b9 01 00 00 	movl   $0x0,0x1b924
    5b6a:	00 00 00 
    5b6d:	c7 05 28 b9 01 00 00 	movl   $0x0,0x1b928
    5b74:	00 00 00 
    5b77:	c7 05 2c b9 01 00 00 	movl   $0x0,0x1b92c
    5b7e:	00 00 00 
    5b81:	c7 05 40 b9 11 00 40 	movl   $0x11b940,0x11b940
    5b88:	b9 11 00 
    5b8b:	c7 05 44 b9 11 00 40 	movl   $0x11b940,0x11b944
    5b92:	b9 11 00 
    5b95:	e8 ba fe ff ff       	call   5a54 <_new_generation>
    5b9a:	c9                   	leave  
    5b9b:	c3                   	ret    
    5b9c:	90                   	nop
    5b9d:	90                   	nop
    5b9e:	90                   	nop
    5b9f:	90                   	nop

00005ba0 <symbol_p>:
    5ba0:	55                   	push   %ebp
    5ba1:	89 e5                	mov    %esp,%ebp
    5ba3:	8b 45 0c             	mov    0xc(%ebp),%eax
    5ba6:	8b 10                	mov    (%eax),%edx
    5ba8:	f6 c2 01             	test   $0x1,%dl
    5bab:	75 0b                	jne    5bb8 <symbol_p+0x18>
    5bad:	b8 14 cd 12 00       	mov    $0x12cd14,%eax
    5bb2:	66 83 3a 12          	cmpw   $0x12,(%edx)
    5bb6:	74 05                	je     5bbd <symbol_p+0x1d>
    5bb8:	b8 00 cd 12 00       	mov    $0x12cd00,%eax
    5bbd:	5d                   	pop    %ebp
    5bbe:	c3                   	ret    

00005bbf <eq_p>:
    5bbf:	55                   	push   %ebp
    5bc0:	89 e5                	mov    %esp,%ebp
    5bc2:	8b 55 0c             	mov    0xc(%ebp),%edx
    5bc5:	8b 0a                	mov    (%edx),%ecx
    5bc7:	b8 14 cd 12 00       	mov    $0x12cd14,%eax
    5bcc:	3b 4a 04             	cmp    0x4(%edx),%ecx
    5bcf:	74 05                	je     5bd6 <eq_p+0x17>
    5bd1:	b8 00 cd 12 00       	mov    $0x12cd00,%eax
    5bd6:	5d                   	pop    %ebp
    5bd7:	c3                   	ret    

00005bd8 <symbol_to_string>:
    5bd8:	55                   	push   %ebp
    5bd9:	89 e5                	mov    %esp,%ebp
    5bdb:	83 ec 18             	sub    $0x18,%esp
    5bde:	8b 45 0c             	mov    0xc(%ebp),%eax
    5be1:	8b 00                	mov    (%eax),%eax
    5be3:	8b 40 04             	mov    0x4(%eax),%eax
    5be6:	89 04 24             	mov    %eax,(%esp)
    5be9:	e8 e7 dd ff ff       	call   39d5 <scheme_make_string>
    5bee:	c9                   	leave  
    5bef:	c3                   	ret    

00005bf0 <scheme_make_symbol>:
    5bf0:	55                   	push   %ebp
    5bf1:	89 e5                	mov    %esp,%ebp
    5bf3:	57                   	push   %edi
    5bf4:	56                   	push   %esi
    5bf5:	53                   	push   %ebx
    5bf6:	83 ec 2c             	sub    $0x2c,%esp
    5bf9:	8b 5d 08             	mov    0x8(%ebp),%ebx
    5bfc:	0f b6 03             	movzbl (%ebx),%eax
    5bff:	88 45 df             	mov    %al,-0x21(%ebp)
    5c02:	84 c0                	test   %al,%al
    5c04:	74 33                	je     5c39 <scheme_make_symbol+0x49>
    5c06:	b8 00 00 00 00       	mov    $0x0,%eax
    5c0b:	83 c0 01             	add    $0x1,%eax
    5c0e:	80 3c 03 00          	cmpb   $0x0,(%ebx,%eax,1)
    5c12:	75 f7                	jne    5c0b <scheme_make_symbol+0x1b>
    5c14:	85 c0                	test   %eax,%eax
    5c16:	7e 21                	jle    5c39 <scheme_make_symbol+0x49>
    5c18:	8d 04 03             	lea    (%ebx,%eax,1),%eax
    5c1b:	89 df                	mov    %ebx,%edi
    5c1d:	ba 00 00 00 00       	mov    $0x0,%edx
    5c22:	89 d1                	mov    %edx,%ecx
    5c24:	c1 e1 05             	shl    $0x5,%ecx
    5c27:	0f be 70 ff          	movsbl -0x1(%eax),%esi
    5c2b:	8d 14 56             	lea    (%esi,%edx,2),%edx
    5c2e:	01 ca                	add    %ecx,%edx
    5c30:	83 e8 01             	sub    $0x1,%eax
    5c33:	39 f8                	cmp    %edi,%eax
    5c35:	75 eb                	jne    5c22 <scheme_make_symbol+0x32>
    5c37:	eb 05                	jmp    5c3e <scheme_make_symbol+0x4e>
    5c39:	ba 00 00 00 00       	mov    $0x0,%edx
    5c3e:	8d 0c 92             	lea    (%edx,%edx,4),%ecx
    5c41:	d1 e9                	shr    %ecx
    5c43:	ba 57 85 21 7f       	mov    $0x7f218557,%edx
    5c48:	89 c8                	mov    %ecx,%eax
    5c4a:	f7 e2                	mul    %edx
    5c4c:	c1 ea 09             	shr    $0x9,%edx
    5c4f:	69 c2 07 04 00 00    	imul   $0x407,%edx,%eax
    5c55:	29 c1                	sub    %eax,%ecx
    5c57:	89 4d e0             	mov    %ecx,-0x20(%ebp)
    5c5a:	8b 3c 8d a0 bc 12 00 	mov    0x12bca0(,%ecx,4),%edi
    5c61:	85 ff                	test   %edi,%edi
    5c63:	74 37                	je     5c9c <scheme_make_symbol+0xac>
    5c65:	89 5d e4             	mov    %ebx,-0x1c(%ebp)
    5c68:	8b 77 04             	mov    0x4(%edi),%esi
    5c6b:	8b 4d e4             	mov    -0x1c(%ebp),%ecx
    5c6e:	eb 0a                	jmp    5c7a <scheme_make_symbol+0x8a>
    5c70:	38 d0                	cmp    %dl,%al
    5c72:	75 22                	jne    5c96 <scheme_make_symbol+0xa6>
    5c74:	83 c6 01             	add    $0x1,%esi
    5c77:	83 c1 01             	add    $0x1,%ecx
    5c7a:	0f b6 06             	movzbl (%esi),%eax
    5c7d:	84 c0                	test   %al,%al
    5c7f:	74 09                	je     5c8a <scheme_make_symbol+0x9a>
    5c81:	0f b6 11             	movzbl (%ecx),%edx
    5c84:	84 d2                	test   %dl,%dl
    5c86:	75 e8                	jne    5c70 <scheme_make_symbol+0x80>
    5c88:	eb 0c                	jmp    5c96 <scheme_make_symbol+0xa6>
    5c8a:	80 39 00             	cmpb   $0x0,(%ecx)
    5c8d:	8d 76 00             	lea    0x0(%esi),%esi
    5c90:	0f 84 80 00 00 00    	je     5d16 <scheme_make_symbol+0x126>
    5c96:	8b 3f                	mov    (%edi),%edi
    5c98:	85 ff                	test   %edi,%edi
    5c9a:	75 cc                	jne    5c68 <scheme_make_symbol+0x78>
    5c9c:	b8 00 00 00 00       	mov    $0x0,%eax
    5ca1:	80 7d df 00          	cmpb   $0x0,-0x21(%ebp)
    5ca5:	74 09                	je     5cb0 <scheme_make_symbol+0xc0>
    5ca7:	83 c0 01             	add    $0x1,%eax
    5caa:	80 3c 03 00          	cmpb   $0x0,(%ebx,%eax,1)
    5cae:	75 f7                	jne    5ca7 <scheme_make_symbol+0xb7>
    5cb0:	89 04 24             	mov    %eax,(%esp)
    5cb3:	e8 fc 1d 00 00       	call   7ab4 <kmalloc>
    5cb8:	89 c6                	mov    %eax,%esi
    5cba:	ba 00 00 00 00       	mov    $0x0,%edx
    5cbf:	0f b6 0c 13          	movzbl (%ebx,%edx,1),%ecx
    5cc3:	88 0c 10             	mov    %cl,(%eax,%edx,1)
    5cc6:	83 c2 01             	add    $0x1,%edx
    5cc9:	84 c9                	test   %cl,%cl
    5ccb:	75 f2                	jne    5cbf <scheme_make_symbol+0xcf>
    5ccd:	c7 04 24 10 00 00 00 	movl   $0x10,(%esp)
    5cd4:	e8 db 1d 00 00       	call   7ab4 <kmalloc>
    5cd9:	89 c3                	mov    %eax,%ebx
    5cdb:	66 c7 00 12 00       	movw   $0x12,(%eax)
    5ce0:	89 70 04             	mov    %esi,0x4(%eax)
    5ce3:	c7 40 08 00 00 00 00 	movl   $0x0,0x8(%eax)
    5cea:	c7 04 24 0c 00 00 00 	movl   $0xc,(%esp)
    5cf1:	e8 be 1d 00 00       	call   7ab4 <kmalloc>
    5cf6:	89 70 04             	mov    %esi,0x4(%eax)
    5cf9:	89 58 08             	mov    %ebx,0x8(%eax)
    5cfc:	ba a0 bc 12 00       	mov    $0x12bca0,%edx
    5d01:	8b 75 e0             	mov    -0x20(%ebp),%esi
    5d04:	8b 0c b2             	mov    (%edx,%esi,4),%ecx
    5d07:	89 08                	mov    %ecx,(%eax)
    5d09:	89 04 b2             	mov    %eax,(%edx,%esi,4)
    5d0c:	89 d8                	mov    %ebx,%eax
    5d0e:	83 c4 2c             	add    $0x2c,%esp
    5d11:	5b                   	pop    %ebx
    5d12:	5e                   	pop    %esi
    5d13:	5f                   	pop    %edi
    5d14:	5d                   	pop    %ebp
    5d15:	c3                   	ret    
    5d16:	8b 5f 08             	mov    0x8(%edi),%ebx
    5d19:	eb f1                	jmp    5d0c <scheme_make_symbol+0x11c>

00005d1b <string_to_symbol>:
    5d1b:	55                   	push   %ebp
    5d1c:	89 e5                	mov    %esp,%ebp
    5d1e:	83 ec 18             	sub    $0x18,%esp
    5d21:	8b 45 0c             	mov    0xc(%ebp),%eax
    5d24:	8b 00                	mov    (%eax),%eax
    5d26:	8b 40 04             	mov    0x4(%eax),%eax
    5d29:	89 04 24             	mov    %eax,(%esp)
    5d2c:	e8 bf fe ff ff       	call   5bf0 <scheme_make_symbol>
    5d31:	c9                   	leave  
    5d32:	c3                   	ret    

00005d33 <scheme_init_symbol>:
    5d33:	55                   	push   %ebp
    5d34:	89 e5                	mov    %esp,%ebp
    5d36:	53                   	push   %ebx
    5d37:	83 ec 24             	sub    $0x24,%esp
    5d3a:	8b 5d 08             	mov    0x8(%ebp),%ebx
    5d3d:	b8 00 00 00 00       	mov    $0x0,%eax
    5d42:	ba a0 bc 12 00       	mov    $0x12bca0,%edx
    5d47:	c7 04 82 00 00 00 00 	movl   $0x0,(%edx,%eax,4)
    5d4e:	83 c0 01             	add    $0x1,%eax
    5d51:	3d 07 04 00 00       	cmp    $0x407,%eax
    5d56:	75 ef                	jne    5d47 <scheme_init_symbol+0x14>
    5d58:	89 5c 24 10          	mov    %ebx,0x10(%esp)
    5d5c:	c7 44 24 0c 01 00 00 	movl   $0x1,0xc(%esp)
    5d63:	00 
    5d64:	c7 44 24 08 01 00 00 	movl   $0x1,0x8(%esp)
    5d6b:	00 
    5d6c:	c7 44 24 04 a0 5b 00 	movl   $0x5ba0,0x4(%esp)
    5d73:	00 
    5d74:	c7 04 24 71 8c 00 00 	movl   $0x8c71,(%esp)
    5d7b:	e8 22 06 00 00       	call   63a2 <scheme_register_primitive>
    5d80:	89 5c 24 10          	mov    %ebx,0x10(%esp)
    5d84:	c7 44 24 0c 02 00 00 	movl   $0x2,0xc(%esp)
    5d8b:	00 
    5d8c:	c7 44 24 08 02 00 00 	movl   $0x2,0x8(%esp)
    5d93:	00 
    5d94:	c7 44 24 04 bf 5b 00 	movl   $0x5bbf,0x4(%esp)
    5d9b:	00 
    5d9c:	c7 04 24 79 8c 00 00 	movl   $0x8c79,(%esp)
    5da3:	e8 fa 05 00 00       	call   63a2 <scheme_register_primitive>
    5da8:	89 5c 24 10          	mov    %ebx,0x10(%esp)
    5dac:	c7 44 24 0c 01 00 00 	movl   $0x1,0xc(%esp)
    5db3:	00 
    5db4:	c7 44 24 08 01 00 00 	movl   $0x1,0x8(%esp)
    5dbb:	00 
    5dbc:	c7 44 24 04 d8 5b 00 	movl   $0x5bd8,0x4(%esp)
    5dc3:	00 
    5dc4:	c7 04 24 7d 8c 00 00 	movl   $0x8c7d,(%esp)
    5dcb:	e8 d2 05 00 00       	call   63a2 <scheme_register_primitive>
    5dd0:	89 5c 24 10          	mov    %ebx,0x10(%esp)
    5dd4:	c7 44 24 0c 01 00 00 	movl   $0x1,0xc(%esp)
    5ddb:	00 
    5ddc:	c7 44 24 08 01 00 00 	movl   $0x1,0x8(%esp)
    5de3:	00 
    5de4:	c7 44 24 04 1b 5d 00 	movl   $0x5d1b,0x4(%esp)
    5deb:	00 
    5dec:	c7 04 24 8c 8c 00 00 	movl   $0x8c8c,(%esp)
    5df3:	e8 aa 05 00 00       	call   63a2 <scheme_register_primitive>
    5df8:	83 c4 24             	add    $0x24,%esp
    5dfb:	5b                   	pop    %ebx
    5dfc:	5d                   	pop    %ebp
    5dfd:	c3                   	ret    
    5dfe:	90                   	nop
    5dff:	90                   	nop

00005e00 <scheme_obj_to_string>:
    5e00:	55                   	push   %ebp
    5e01:	89 e5                	mov    %esp,%ebp
    5e03:	56                   	push   %esi
    5e04:	53                   	push   %ebx
    5e05:	83 ec 10             	sub    $0x10,%esp
    5e08:	8b 4d 08             	mov    0x8(%ebp),%ecx
    5e0b:	8b 55 0c             	mov    0xc(%ebp),%edx
    5e0e:	f6 c2 01             	test   $0x1,%dl
    5e11:	74 5e                	je     5e71 <scheme_obj_to_string+0x71>
    5e13:	c6 01 23             	movb   $0x23,(%ecx)
    5e16:	c6 41 01 5c          	movb   $0x5c,0x1(%ecx)
    5e1a:	89 d0                	mov    %edx,%eax
    5e1c:	d1 e8                	shr    %eax
    5e1e:	3c 20                	cmp    $0x20,%al
    5e20:	75 1d                	jne    5e3f <scheme_obj_to_string+0x3f>
    5e22:	89 ca                	mov    %ecx,%edx
    5e24:	b9 9b 8c 00 00       	mov    $0x8c9b,%ecx
    5e29:	0f b6 01             	movzbl (%ecx),%eax
    5e2c:	88 42 02             	mov    %al,0x2(%edx)
    5e2f:	41                   	inc    %ecx
    5e30:	42                   	inc    %edx
    5e31:	84 c0                	test   %al,%al
    5e33:	75 f4                	jne    5e29 <scheme_obj_to_string+0x29>
    5e35:	b8 07 00 00 00       	mov    $0x7,%eax
    5e3a:	e9 a8 01 00 00       	jmp    5fe7 <scheme_obj_to_string+0x1e7>
    5e3f:	3c 0a                	cmp    $0xa,%al
    5e41:	75 1d                	jne    5e60 <scheme_obj_to_string+0x60>
    5e43:	89 ca                	mov    %ecx,%edx
    5e45:	b9 a1 8c 00 00       	mov    $0x8ca1,%ecx
    5e4a:	0f b6 01             	movzbl (%ecx),%eax
    5e4d:	88 42 02             	mov    %al,0x2(%edx)
    5e50:	41                   	inc    %ecx
    5e51:	42                   	inc    %edx
    5e52:	84 c0                	test   %al,%al
    5e54:	75 f4                	jne    5e4a <scheme_obj_to_string+0x4a>
    5e56:	b8 09 00 00 00       	mov    $0x9,%eax
    5e5b:	e9 87 01 00 00       	jmp    5fe7 <scheme_obj_to_string+0x1e7>
    5e60:	88 41 02             	mov    %al,0x2(%ecx)
    5e63:	c6 41 03 00          	movb   $0x0,0x3(%ecx)
    5e67:	b8 03 00 00 00       	mov    $0x3,%eax
    5e6c:	e9 76 01 00 00       	jmp    5fe7 <scheme_obj_to_string+0x1e7>
    5e71:	66 83 3a 19          	cmpw   $0x19,(%edx)
    5e75:	0f 87 60 01 00 00    	ja     5fdb <scheme_obj_to_string+0x1db>
    5e7b:	0f b7 02             	movzwl (%edx),%eax
    5e7e:	ff 24 85 80 88 00 00 	jmp    *0x8880(,%eax,4)
    5e85:	89 54 24 08          	mov    %edx,0x8(%esp)
    5e89:	c7 44 24 04 a9 8c 00 	movl   $0x8ca9,0x4(%esp)
    5e90:	00 
    5e91:	89 0c 24             	mov    %ecx,(%esp)
    5e94:	e8 77 21 00 00       	call   8010 <sprintf>
    5e99:	e9 49 01 00 00       	jmp    5fe7 <scheme_obj_to_string+0x1e7>
    5e9e:	8b 42 04             	mov    0x4(%edx),%eax
    5ea1:	89 44 24 08          	mov    %eax,0x8(%esp)
    5ea5:	c7 44 24 04 bd 8c 00 	movl   $0x8cbd,0x4(%esp)
    5eac:	00 
    5ead:	89 0c 24             	mov    %ecx,(%esp)
    5eb0:	e8 5b 21 00 00       	call   8010 <sprintf>
    5eb5:	e9 2d 01 00 00       	jmp    5fe7 <scheme_obj_to_string+0x1e7>
    5eba:	8b 42 08             	mov    0x8(%edx),%eax
    5ebd:	89 44 24 08          	mov    %eax,0x8(%esp)
    5ec1:	c7 44 24 04 cd 8c 00 	movl   $0x8ccd,0x4(%esp)
    5ec8:	00 
    5ec9:	89 0c 24             	mov    %ecx,(%esp)
    5ecc:	e8 3f 21 00 00       	call   8010 <sprintf>
    5ed1:	e9 11 01 00 00       	jmp    5fe7 <scheme_obj_to_string+0x1e7>
    5ed6:	8b 42 04             	mov    0x4(%edx),%eax
    5ed9:	89 44 24 08          	mov    %eax,0x8(%esp)
    5edd:	c7 44 24 04 df 8c 00 	movl   $0x8cdf,0x4(%esp)
    5ee4:	00 
    5ee5:	89 0c 24             	mov    %ecx,(%esp)
    5ee8:	e8 23 21 00 00       	call   8010 <sprintf>
    5eed:	e9 f5 00 00 00       	jmp    5fe7 <scheme_obj_to_string+0x1e7>
    5ef2:	c6 01 22             	movb   $0x22,(%ecx)
    5ef5:	8d 71 01             	lea    0x1(%ecx),%esi
    5ef8:	8b 5a 04             	mov    0x4(%edx),%ebx
    5efb:	89 ca                	mov    %ecx,%edx
    5efd:	0f b6 03             	movzbl (%ebx),%eax
    5f00:	88 42 01             	mov    %al,0x1(%edx)
    5f03:	43                   	inc    %ebx
    5f04:	42                   	inc    %edx
    5f05:	84 c0                	test   %al,%al
    5f07:	75 f4                	jne    5efd <scheme_obj_to_string+0xfd>
    5f09:	ba 00 00 00 00       	mov    $0x0,%edx
    5f0e:	80 3e 00             	cmpb   $0x0,(%esi)
    5f11:	74 0d                	je     5f20 <scheme_obj_to_string+0x120>
    5f13:	ba 00 00 00 00       	mov    $0x0,%edx
    5f18:	42                   	inc    %edx
    5f19:	80 7c 0a 01 00       	cmpb   $0x0,0x1(%edx,%ecx,1)
    5f1e:	75 f8                	jne    5f18 <scheme_obj_to_string+0x118>
    5f20:	8d 04 16             	lea    (%esi,%edx,1),%eax
    5f23:	c6 00 22             	movb   $0x22,(%eax)
    5f26:	c6 40 01 00          	movb   $0x0,0x1(%eax)
    5f2a:	8d 42 02             	lea    0x2(%edx),%eax
    5f2d:	e9 b5 00 00 00       	jmp    5fe7 <scheme_obj_to_string+0x1e7>
    5f32:	8b 5a 04             	mov    0x4(%edx),%ebx
    5f35:	89 ca                	mov    %ecx,%edx
    5f37:	0f b6 03             	movzbl (%ebx),%eax
    5f3a:	88 02                	mov    %al,(%edx)
    5f3c:	42                   	inc    %edx
    5f3d:	43                   	inc    %ebx
    5f3e:	84 c0                	test   %al,%al
    5f40:	75 f5                	jne    5f37 <scheme_obj_to_string+0x137>
    5f42:	80 39 00             	cmpb   $0x0,(%ecx)
    5f45:	0f 84 90 00 00 00    	je     5fdb <scheme_obj_to_string+0x1db>
    5f4b:	b8 00 00 00 00       	mov    $0x0,%eax
    5f50:	40                   	inc    %eax
    5f51:	80 3c 08 00          	cmpb   $0x0,(%eax,%ecx,1)
    5f55:	0f 84 8c 00 00 00    	je     5fe7 <scheme_obj_to_string+0x1e7>
    5f5b:	eb f3                	jmp    5f50 <scheme_obj_to_string+0x150>
    5f5d:	ba e2 8c 00 00       	mov    $0x8ce2,%edx
    5f62:	0f b6 02             	movzbl (%edx),%eax
    5f65:	88 01                	mov    %al,(%ecx)
    5f67:	41                   	inc    %ecx
    5f68:	42                   	inc    %edx
    5f69:	84 c0                	test   %al,%al
    5f6b:	75 f5                	jne    5f62 <scheme_obj_to_string+0x162>
    5f6d:	eb 73                	jmp    5fe2 <scheme_obj_to_string+0x1e2>
    5f6f:	89 54 24 04          	mov    %edx,0x4(%esp)
    5f73:	89 0c 24             	mov    %ecx,(%esp)
    5f76:	e8 e5 e2 ff ff       	call   4260 <scheme_list_to_string>
    5f7b:	eb 6a                	jmp    5fe7 <scheme_obj_to_string+0x1e7>
    5f7d:	89 54 24 04          	mov    %edx,0x4(%esp)
    5f81:	89 0c 24             	mov    %ecx,(%esp)
    5f84:	e8 3c e5 ff ff       	call   44c5 <scheme_vector_to_string>
    5f89:	eb 5c                	jmp    5fe7 <scheme_obj_to_string+0x1e7>
    5f8b:	ba e5 8c 00 00       	mov    $0x8ce5,%edx
    5f90:	0f b6 02             	movzbl (%edx),%eax
    5f93:	88 01                	mov    %al,(%ecx)
    5f95:	41                   	inc    %ecx
    5f96:	42                   	inc    %edx
    5f97:	84 c0                	test   %al,%al
    5f99:	75 f5                	jne    5f90 <scheme_obj_to_string+0x190>
    5f9b:	eb 3e                	jmp    5fdb <scheme_obj_to_string+0x1db>
    5f9d:	ba ef 8c 00 00       	mov    $0x8cef,%edx
    5fa2:	0f b6 02             	movzbl (%edx),%eax
    5fa5:	88 01                	mov    %al,(%ecx)
    5fa7:	41                   	inc    %ecx
    5fa8:	42                   	inc    %edx
    5fa9:	84 c0                	test   %al,%al
    5fab:	75 f5                	jne    5fa2 <scheme_obj_to_string+0x1a2>
    5fad:	eb 2c                	jmp    5fdb <scheme_obj_to_string+0x1db>
    5faf:	81 fa 00 cd 12 00    	cmp    $0x12cd00,%edx
    5fb5:	74 12                	je     5fc9 <scheme_obj_to_string+0x1c9>
    5fb7:	ba f9 8c 00 00       	mov    $0x8cf9,%edx
    5fbc:	0f b6 02             	movzbl (%edx),%eax
    5fbf:	88 01                	mov    %al,(%ecx)
    5fc1:	41                   	inc    %ecx
    5fc2:	42                   	inc    %edx
    5fc3:	84 c0                	test   %al,%al
    5fc5:	75 f5                	jne    5fbc <scheme_obj_to_string+0x1bc>
    5fc7:	eb 19                	jmp    5fe2 <scheme_obj_to_string+0x1e2>
    5fc9:	ba fc 8c 00 00       	mov    $0x8cfc,%edx
    5fce:	0f b6 02             	movzbl (%edx),%eax
    5fd1:	88 01                	mov    %al,(%ecx)
    5fd3:	41                   	inc    %ecx
    5fd4:	42                   	inc    %edx
    5fd5:	84 c0                	test   %al,%al
    5fd7:	75 f5                	jne    5fce <scheme_obj_to_string+0x1ce>
    5fd9:	eb 07                	jmp    5fe2 <scheme_obj_to_string+0x1e2>
    5fdb:	b8 00 00 00 00       	mov    $0x0,%eax
    5fe0:	eb 05                	jmp    5fe7 <scheme_obj_to_string+0x1e7>
    5fe2:	b8 02 00 00 00       	mov    $0x2,%eax
    5fe7:	83 c4 10             	add    $0x10,%esp
    5fea:	5b                   	pop    %ebx
    5feb:	5e                   	pop    %esi
    5fec:	5d                   	pop    %ebp
    5fed:	c3                   	ret    
    5fee:	90                   	nop
    5fef:	90                   	nop

00005ff0 <scheme_lookup_var>:
    5ff0:	55                   	push   %ebp
    5ff1:	89 e5                	mov    %esp,%ebp
    5ff3:	56                   	push   %esi
    5ff4:	53                   	push   %ebx
    5ff5:	8b 75 08             	mov    0x8(%ebp),%esi
    5ff8:	8b 5d 0c             	mov    0xc(%ebp),%ebx
    5ffb:	81 fb d0 cc 12 00    	cmp    $0x12ccd0,%ebx
    6001:	74 39                	je     603c <scheme_lookup_var+0x4c>
    6003:	8b 43 08             	mov    0x8(%ebx),%eax
    6006:	8b 50 04             	mov    0x4(%eax),%edx
    6009:	0f bf 08             	movswl (%eax),%ecx
    600c:	85 c9                	test   %ecx,%ecx
    600e:	7e 21                	jle    6031 <scheme_lookup_var+0x41>
    6010:	3b 32                	cmp    (%edx),%esi
    6012:	75 13                	jne    6027 <scheme_lookup_var+0x37>
    6014:	eb 0c                	jmp    6022 <scheme_lookup_var+0x32>
    6016:	83 c2 08             	add    $0x8,%edx
    6019:	39 32                	cmp    %esi,(%edx)
    601b:	90                   	nop
    601c:	8d 74 26 00          	lea    0x0(%esi,%eiz,1),%esi
    6020:	75 0a                	jne    602c <scheme_lookup_var+0x3c>
    6022:	8b 42 04             	mov    0x4(%edx),%eax
    6025:	eb 1a                	jmp    6041 <scheme_lookup_var+0x51>
    6027:	b8 00 00 00 00       	mov    $0x0,%eax
    602c:	40                   	inc    %eax
    602d:	39 c1                	cmp    %eax,%ecx
    602f:	75 e5                	jne    6016 <scheme_lookup_var+0x26>
    6031:	8b 5b 0c             	mov    0xc(%ebx),%ebx
    6034:	81 fb d0 cc 12 00    	cmp    $0x12ccd0,%ebx
    603a:	75 c7                	jne    6003 <scheme_lookup_var+0x13>
    603c:	b8 c0 cc 12 00       	mov    $0x12ccc0,%eax
    6041:	5b                   	pop    %ebx
    6042:	5e                   	pop    %esi
    6043:	5d                   	pop    %ebp
    6044:	c3                   	ret    

00006045 <scheme_set_var>:
    6045:	55                   	push   %ebp
    6046:	89 e5                	mov    %esp,%ebp
    6048:	53                   	push   %ebx
    6049:	8b 5d 08             	mov    0x8(%ebp),%ebx
    604c:	8b 45 10             	mov    0x10(%ebp),%eax
    604f:	8b 40 08             	mov    0x8(%eax),%eax
    6052:	8b 50 04             	mov    0x4(%eax),%edx
    6055:	0f bf 08             	movswl (%eax),%ecx
    6058:	85 c9                	test   %ecx,%ecx
    605a:	7e 22                	jle    607e <scheme_set_var+0x39>
    605c:	b8 00 00 00 00       	mov    $0x0,%eax
    6061:	3b 1a                	cmp    (%edx),%ebx
    6063:	75 14                	jne    6079 <scheme_set_var+0x34>
    6065:	eb 07                	jmp    606e <scheme_set_var+0x29>
    6067:	83 c2 08             	add    $0x8,%edx
    606a:	39 1a                	cmp    %ebx,(%edx)
    606c:	75 0b                	jne    6079 <scheme_set_var+0x34>
    606e:	8b 4a 04             	mov    0x4(%edx),%ecx
    6071:	8b 45 0c             	mov    0xc(%ebp),%eax
    6074:	89 42 04             	mov    %eax,0x4(%edx)
    6077:	eb 0a                	jmp    6083 <scheme_set_var+0x3e>
    6079:	40                   	inc    %eax
    607a:	39 c1                	cmp    %eax,%ecx
    607c:	75 e9                	jne    6067 <scheme_set_var+0x22>
    607e:	b9 c0 cc 12 00       	mov    $0x12ccc0,%ecx
    6083:	89 c8                	mov    %ecx,%eax
    6085:	5b                   	pop    %ebx
    6086:	5d                   	pop    %ebp
    6087:	c3                   	ret    

00006088 <scheme_report_environment>:
    6088:	55                   	push   %ebp
    6089:	89 e5                	mov    %esp,%ebp
    608b:	b8 f0 cc 12 00       	mov    $0x12ccf0,%eax
    6090:	5d                   	pop    %ebp
    6091:	c3                   	ret    

00006092 <null_environment>:
    6092:	55                   	push   %ebp
    6093:	89 e5                	mov    %esp,%ebp
    6095:	b8 d0 cc 12 00       	mov    $0x12ccd0,%eax
    609a:	5d                   	pop    %ebp
    609b:	c3                   	ret    

0000609c <interaction_environment>:
    609c:	55                   	push   %ebp
    609d:	89 e5                	mov    %esp,%ebp
    609f:	b8 f0 cc 12 00       	mov    $0x12ccf0,%eax
    60a4:	5d                   	pop    %ebp
    60a5:	c3                   	ret    

000060a6 <scheme_define_var>:
    60a6:	55                   	push   %ebp
    60a7:	89 e5                	mov    %esp,%ebp
    60a9:	57                   	push   %edi
    60aa:	56                   	push   %esi
    60ab:	53                   	push   %ebx
    60ac:	83 ec 0c             	sub    $0xc,%esp
    60af:	8b 45 10             	mov    0x10(%ebp),%eax
    60b2:	8b 40 08             	mov    0x8(%eax),%eax
    60b5:	89 45 ec             	mov    %eax,-0x14(%ebp)
    60b8:	8b 50 04             	mov    0x4(%eax),%edx
    60bb:	0f bf 00             	movswl (%eax),%eax
    60be:	bb 00 00 00 00       	mov    $0x0,%ebx
    60c3:	85 c0                	test   %eax,%eax
    60c5:	7e 25                	jle    60ec <scheme_define_var+0x46>
    60c7:	bb 00 00 00 00       	mov    $0x0,%ebx
    60cc:	8b 4d 08             	mov    0x8(%ebp),%ecx
    60cf:	3b 0a                	cmp    (%edx),%ecx
    60d1:	75 11                	jne    60e4 <scheme_define_var+0x3e>
    60d3:	eb 07                	jmp    60dc <scheme_define_var+0x36>
    60d5:	8b 75 08             	mov    0x8(%ebp),%esi
    60d8:	3b 32                	cmp    (%edx),%esi
    60da:	75 08                	jne    60e4 <scheme_define_var+0x3e>
    60dc:	8b 7d 0c             	mov    0xc(%ebp),%edi
    60df:	89 7a 04             	mov    %edi,0x4(%edx)
    60e2:	eb 6c                	jmp    6150 <scheme_define_var+0xaa>
    60e4:	83 c2 08             	add    $0x8,%edx
    60e7:	43                   	inc    %ebx
    60e8:	39 d8                	cmp    %ebx,%eax
    60ea:	75 e9                	jne    60d5 <scheme_define_var+0x2f>
    60ec:	8b 4d ec             	mov    -0x14(%ebp),%ecx
    60ef:	0f bf 41 02          	movswl 0x2(%ecx),%eax
    60f3:	39 c3                	cmp    %eax,%ebx
    60f5:	75 45                	jne    613c <scheme_define_var+0x96>
    60f7:	8d 43 20             	lea    0x20(%ebx),%eax
    60fa:	98                   	cwtl   
    60fb:	66 89 41 02          	mov    %ax,0x2(%ecx)
    60ff:	c1 e0 03             	shl    $0x3,%eax
    6102:	89 04 24             	mov    %eax,(%esp)
    6105:	e8 aa 19 00 00       	call   7ab4 <kmalloc>
    610a:	89 45 f0             	mov    %eax,-0x10(%ebp)
    610d:	c1 e3 03             	shl    $0x3,%ebx
    6110:	8b 75 ec             	mov    -0x14(%ebp),%esi
    6113:	8b 46 04             	mov    0x4(%esi),%eax
    6116:	8b 7d f0             	mov    -0x10(%ebp),%edi
    6119:	89 c6                	mov    %eax,%esi
    611b:	89 d9                	mov    %ebx,%ecx
    611d:	56                   	push   %esi
    611e:	57                   	push   %edi
    611f:	fc                   	cld    
    6120:	f3 a4                	rep movsb %ds:(%esi),%es:(%edi)
    6122:	5f                   	pop    %edi
    6123:	5e                   	pop    %esi
    6124:	8b 55 ec             	mov    -0x14(%ebp),%edx
    6127:	8b 42 04             	mov    0x4(%edx),%eax
    612a:	89 04 24             	mov    %eax,(%esp)
    612d:	e8 1b 19 00 00       	call   7a4d <kfree>
    6132:	8b 4d ec             	mov    -0x14(%ebp),%ecx
    6135:	89 79 04             	mov    %edi,0x4(%ecx)
    6138:	89 fa                	mov    %edi,%edx
    613a:	01 da                	add    %ebx,%edx
    613c:	8b 75 ec             	mov    -0x14(%ebp),%esi
    613f:	8b 06                	mov    (%esi),%eax
    6141:	40                   	inc    %eax
    6142:	66 89 06             	mov    %ax,(%esi)
    6145:	8b 7d 08             	mov    0x8(%ebp),%edi
    6148:	89 3a                	mov    %edi,(%edx)
    614a:	8b 45 0c             	mov    0xc(%ebp),%eax
    614d:	89 42 04             	mov    %eax,0x4(%edx)
    6150:	8b 45 08             	mov    0x8(%ebp),%eax
    6153:	83 c4 0c             	add    $0xc,%esp
    6156:	5b                   	pop    %ebx
    6157:	5e                   	pop    %esi
    6158:	5f                   	pop    %edi
    6159:	5d                   	pop    %ebp
    615a:	c3                   	ret    

0000615b <scheme_extend_env>:
    615b:	55                   	push   %ebp
    615c:	89 e5                	mov    %esp,%ebp
    615e:	57                   	push   %edi
    615f:	56                   	push   %esi
    6160:	53                   	push   %ebx
    6161:	83 ec 1c             	sub    $0x1c,%esp
    6164:	8b 75 08             	mov    0x8(%ebp),%esi
    6167:	89 f0                	mov    %esi,%eax
    6169:	24 01                	and    $0x1,%al
    616b:	88 45 eb             	mov    %al,-0x15(%ebp)
    616e:	0f 85 f7 00 00 00    	jne    626b <scheme_extend_env+0x110>
    6174:	66 83 3e 14          	cmpw   $0x14,(%esi)
    6178:	0f 85 f7 00 00 00    	jne    6275 <scheme_extend_env+0x11a>
    617e:	89 f0                	mov    %esi,%eax
    6180:	bf 00 00 00 00       	mov    $0x0,%edi
    6185:	8b 40 08             	mov    0x8(%eax),%eax
    6188:	47                   	inc    %edi
    6189:	a8 01                	test   $0x1,%al
    618b:	75 0d                	jne    619a <scheme_extend_env+0x3f>
    618d:	66 83 38 14          	cmpw   $0x14,(%eax)
    6191:	0f 85 e5 00 00 00    	jne    627c <scheme_extend_env+0x121>
    6197:	eb ec                	jmp    6185 <scheme_extend_env+0x2a>
    6199:	47                   	inc    %edi
    619a:	8d 57 1f             	lea    0x1f(%edi),%edx
    619d:	89 d0                	mov    %edx,%eax
    619f:	c1 f8 1f             	sar    $0x1f,%eax
    61a2:	c1 e8 1b             	shr    $0x1b,%eax
    61a5:	01 d0                	add    %edx,%eax
    61a7:	c1 f8 05             	sar    $0x5,%eax
    61aa:	89 c2                	mov    %eax,%edx
    61ac:	c1 e2 05             	shl    $0x5,%edx
    61af:	89 55 ec             	mov    %edx,-0x14(%ebp)
    61b2:	c1 e0 08             	shl    $0x8,%eax
    61b5:	89 04 24             	mov    %eax,(%esp)
    61b8:	e8 f7 18 00 00       	call   7ab4 <kmalloc>
    61bd:	89 c3                	mov    %eax,%ebx
    61bf:	c7 04 24 08 00 00 00 	movl   $0x8,(%esp)
    61c6:	e8 e9 18 00 00       	call   7ab4 <kmalloc>
    61cb:	89 45 f0             	mov    %eax,-0x10(%ebp)
    61ce:	c7 04 24 10 00 00 00 	movl   $0x10,(%esp)
    61d5:	e8 da 18 00 00       	call   7ab4 <kmalloc>
    61da:	89 c2                	mov    %eax,%edx
    61dc:	85 db                	test   %ebx,%ebx
    61de:	74 06                	je     61e6 <scheme_extend_env+0x8b>
    61e0:	83 7d f0 00          	cmpl   $0x0,-0x10(%ebp)
    61e4:	75 1d                	jne    6203 <scheme_extend_env+0xa8>
    61e6:	89 1c 24             	mov    %ebx,(%esp)
    61e9:	e8 5f 18 00 00       	call   7a4d <kfree>
    61ee:	8b 4d f0             	mov    -0x10(%ebp),%ecx
    61f1:	89 0c 24             	mov    %ecx,(%esp)
    61f4:	e8 54 18 00 00       	call   7a4d <kfree>
    61f9:	ba c0 cc 12 00       	mov    $0x12ccc0,%edx
    61fe:	e9 91 00 00 00       	jmp    6294 <scheme_extend_env+0x139>
    6203:	8b 4d ec             	mov    -0x14(%ebp),%ecx
    6206:	8b 45 f0             	mov    -0x10(%ebp),%eax
    6209:	66 89 48 02          	mov    %cx,0x2(%eax)
    620d:	66 89 38             	mov    %di,(%eax)
    6210:	89 58 04             	mov    %ebx,0x4(%eax)
    6213:	80 7d eb 00          	cmpb   $0x0,-0x15(%ebp)
    6217:	75 38                	jne    6251 <scheme_extend_env+0xf6>
    6219:	66 83 3e 14          	cmpw   $0x14,(%esi)
    621d:	75 6c                	jne    628b <scheme_extend_env+0x130>
    621f:	8b 46 04             	mov    0x4(%esi),%eax
    6222:	89 03                	mov    %eax,(%ebx)
    6224:	8b 4d 0c             	mov    0xc(%ebp),%ecx
    6227:	8b 41 04             	mov    0x4(%ecx),%eax
    622a:	89 43 04             	mov    %eax,0x4(%ebx)
    622d:	8b 76 08             	mov    0x8(%esi),%esi
    6230:	8b 41 08             	mov    0x8(%ecx),%eax
    6233:	89 45 0c             	mov    %eax,0xc(%ebp)
    6236:	83 c3 08             	add    $0x8,%ebx
    6239:	f7 c6 01 00 00 00    	test   $0x1,%esi
    623f:	75 10                	jne    6251 <scheme_extend_env+0xf6>
    6241:	66 83 3e 14          	cmpw   $0x14,(%esi)
    6245:	75 44                	jne    628b <scheme_extend_env+0x130>
    6247:	eb d6                	jmp    621f <scheme_extend_env+0xc4>
    6249:	89 33                	mov    %esi,(%ebx)
    624b:	8b 4d 0c             	mov    0xc(%ebp),%ecx
    624e:	89 4b 04             	mov    %ecx,0x4(%ebx)
    6251:	66 c7 02 00 00       	movw   $0x0,(%edx)
    6256:	c7 42 04 d0 cc 12 00 	movl   $0x12ccd0,0x4(%edx)
    625d:	8b 45 10             	mov    0x10(%ebp),%eax
    6260:	89 42 0c             	mov    %eax,0xc(%edx)
    6263:	8b 45 f0             	mov    -0x10(%ebp),%eax
    6266:	89 42 08             	mov    %eax,0x8(%edx)
    6269:	eb 29                	jmp    6294 <scheme_extend_env+0x139>
    626b:	bf 00 00 00 00       	mov    $0x0,%edi
    6270:	e9 25 ff ff ff       	jmp    619a <scheme_extend_env+0x3f>
    6275:	89 f0                	mov    %esi,%eax
    6277:	bf 00 00 00 00       	mov    $0x0,%edi
    627c:	66 83 38 12          	cmpw   $0x12,(%eax)
    6280:	0f 84 13 ff ff ff    	je     6199 <scheme_extend_env+0x3e>
    6286:	e9 0f ff ff ff       	jmp    619a <scheme_extend_env+0x3f>
    628b:	66 83 3e 12          	cmpw   $0x12,(%esi)
    628f:	90                   	nop
    6290:	74 b7                	je     6249 <scheme_extend_env+0xee>
    6292:	eb bd                	jmp    6251 <scheme_extend_env+0xf6>
    6294:	89 d0                	mov    %edx,%eax
    6296:	83 c4 1c             	add    $0x1c,%esp
    6299:	5b                   	pop    %ebx
    629a:	5e                   	pop    %esi
    629b:	5f                   	pop    %edi
    629c:	5d                   	pop    %ebp
    629d:	c3                   	ret    

0000629e <scheme_register_prims>:
    629e:	55                   	push   %ebp
    629f:	89 e5                	mov    %esp,%ebp
    62a1:	57                   	push   %edi
    62a2:	56                   	push   %esi
    62a3:	53                   	push   %ebx
    62a4:	83 ec 2c             	sub    $0x2c,%esp
    62a7:	8b 45 08             	mov    0x8(%ebp),%eax
    62aa:	8b 50 04             	mov    0x4(%eax),%edx
    62ad:	85 d2                	test   %edx,%edx
    62af:	0f 84 e5 00 00 00    	je     639a <scheme_register_prims+0xfc>
    62b5:	83 c0 10             	add    $0x10,%eax
    62b8:	89 45 f0             	mov    %eax,-0x10(%ebp)
    62bb:	8b 4d f0             	mov    -0x10(%ebp),%ecx
    62be:	8b 41 fc             	mov    -0x4(%ecx),%eax
    62c1:	89 44 24 08          	mov    %eax,0x8(%esp)
    62c5:	8b 41 f8             	mov    -0x8(%ecx),%eax
    62c8:	89 44 24 04          	mov    %eax,0x4(%esp)
    62cc:	89 14 24             	mov    %edx,(%esp)
    62cf:	e8 4b 05 00 00       	call   681f <scheme_make_prim_proc>
    62d4:	89 45 ec             	mov    %eax,-0x14(%ebp)
    62d7:	8b 5d f0             	mov    -0x10(%ebp),%ebx
    62da:	8b 43 f0             	mov    -0x10(%ebx),%eax
    62dd:	89 04 24             	mov    %eax,(%esp)
    62e0:	e8 0b f9 ff ff       	call   5bf0 <scheme_make_symbol>
    62e5:	89 45 e4             	mov    %eax,-0x1c(%ebp)
    62e8:	8b 35 f8 cc 12 00    	mov    0x12ccf8,%esi
    62ee:	89 75 e0             	mov    %esi,-0x20(%ebp)
    62f1:	8b 56 04             	mov    0x4(%esi),%edx
    62f4:	0f bf 0e             	movswl (%esi),%ecx
    62f7:	b8 00 00 00 00       	mov    $0x0,%eax
    62fc:	85 c9                	test   %ecx,%ecx
    62fe:	7e 25                	jle    6325 <scheme_register_prims+0x87>
    6300:	b8 00 00 00 00       	mov    $0x0,%eax
    6305:	8b 7d e4             	mov    -0x1c(%ebp),%edi
    6308:	3b 3a                	cmp    (%edx),%edi
    630a:	75 11                	jne    631d <scheme_register_prims+0x7f>
    630c:	eb 07                	jmp    6315 <scheme_register_prims+0x77>
    630e:	8b 5d e4             	mov    -0x1c(%ebp),%ebx
    6311:	3b 1a                	cmp    (%edx),%ebx
    6313:	75 08                	jne    631d <scheme_register_prims+0x7f>
    6315:	8b 75 ec             	mov    -0x14(%ebp),%esi
    6318:	89 72 04             	mov    %esi,0x4(%edx)
    631b:	eb 69                	jmp    6386 <scheme_register_prims+0xe8>
    631d:	83 c2 08             	add    $0x8,%edx
    6320:	40                   	inc    %eax
    6321:	39 c1                	cmp    %eax,%ecx
    6323:	75 e9                	jne    630e <scheme_register_prims+0x70>
    6325:	8b 7d e0             	mov    -0x20(%ebp),%edi
    6328:	0f bf 5f 02          	movswl 0x2(%edi),%ebx
    632c:	39 c3                	cmp    %eax,%ebx
    632e:	75 42                	jne    6372 <scheme_register_prims+0xd4>
    6330:	8d 43 20             	lea    0x20(%ebx),%eax
    6333:	98                   	cwtl   
    6334:	66 89 47 02          	mov    %ax,0x2(%edi)
    6338:	c1 e0 03             	shl    $0x3,%eax
    633b:	89 04 24             	mov    %eax,(%esp)
    633e:	e8 71 17 00 00       	call   7ab4 <kmalloc>
    6343:	89 45 e8             	mov    %eax,-0x18(%ebp)
    6346:	c1 e3 03             	shl    $0x3,%ebx
    6349:	8b 47 04             	mov    0x4(%edi),%eax
    634c:	8b 7d e8             	mov    -0x18(%ebp),%edi
    634f:	89 c6                	mov    %eax,%esi
    6351:	89 d9                	mov    %ebx,%ecx
    6353:	56                   	push   %esi
    6354:	57                   	push   %edi
    6355:	fc                   	cld    
    6356:	f3 a4                	rep movsb %ds:(%esi),%es:(%edi)
    6358:	5f                   	pop    %edi
    6359:	5e                   	pop    %esi
    635a:	8b 55 e0             	mov    -0x20(%ebp),%edx
    635d:	8b 42 04             	mov    0x4(%edx),%eax
    6360:	89 04 24             	mov    %eax,(%esp)
    6363:	e8 e5 16 00 00       	call   7a4d <kfree>
    6368:	8b 4d e0             	mov    -0x20(%ebp),%ecx
    636b:	89 79 04             	mov    %edi,0x4(%ecx)
    636e:	89 fa                	mov    %edi,%edx
    6370:	01 da                	add    %ebx,%edx
    6372:	8b 5d e0             	mov    -0x20(%ebp),%ebx
    6375:	8b 03                	mov    (%ebx),%eax
    6377:	40                   	inc    %eax
    6378:	66 89 03             	mov    %ax,(%ebx)
    637b:	8b 75 e4             	mov    -0x1c(%ebp),%esi
    637e:	89 32                	mov    %esi,(%edx)
    6380:	8b 7d ec             	mov    -0x14(%ebp),%edi
    6383:	89 7a 04             	mov    %edi,0x4(%edx)
    6386:	8b 45 f0             	mov    -0x10(%ebp),%eax
    6389:	8b 50 04             	mov    0x4(%eax),%edx
    638c:	83 c0 10             	add    $0x10,%eax
    638f:	89 45 f0             	mov    %eax,-0x10(%ebp)
    6392:	85 d2                	test   %edx,%edx
    6394:	0f 85 21 ff ff ff    	jne    62bb <scheme_register_prims+0x1d>
    639a:	83 c4 2c             	add    $0x2c,%esp
    639d:	5b                   	pop    %ebx
    639e:	5e                   	pop    %esi
    639f:	5f                   	pop    %edi
    63a0:	5d                   	pop    %ebp
    63a1:	c3                   	ret    

000063a2 <scheme_register_primitive>:
    63a2:	55                   	push   %ebp
    63a3:	89 e5                	mov    %esp,%ebp
    63a5:	57                   	push   %edi
    63a6:	56                   	push   %esi
    63a7:	53                   	push   %ebx
    63a8:	83 ec 1c             	sub    $0x1c,%esp
    63ab:	8b 45 14             	mov    0x14(%ebp),%eax
    63ae:	89 44 24 08          	mov    %eax,0x8(%esp)
    63b2:	8b 45 10             	mov    0x10(%ebp),%eax
    63b5:	89 44 24 04          	mov    %eax,0x4(%esp)
    63b9:	8b 45 0c             	mov    0xc(%ebp),%eax
    63bc:	89 04 24             	mov    %eax,(%esp)
    63bf:	e8 5b 04 00 00       	call   681f <scheme_make_prim_proc>
    63c4:	89 45 f0             	mov    %eax,-0x10(%ebp)
    63c7:	8b 45 08             	mov    0x8(%ebp),%eax
    63ca:	89 04 24             	mov    %eax,(%esp)
    63cd:	e8 1e f8 ff ff       	call   5bf0 <scheme_make_symbol>
    63d2:	89 45 e8             	mov    %eax,-0x18(%ebp)
    63d5:	8b 45 18             	mov    0x18(%ebp),%eax
    63d8:	8b 40 08             	mov    0x8(%eax),%eax
    63db:	89 45 e4             	mov    %eax,-0x1c(%ebp)
    63de:	8b 50 04             	mov    0x4(%eax),%edx
    63e1:	0f bf 00             	movswl (%eax),%eax
    63e4:	bb 00 00 00 00       	mov    $0x0,%ebx
    63e9:	85 c0                	test   %eax,%eax
    63eb:	7e 25                	jle    6412 <scheme_register_primitive+0x70>
    63ed:	bb 00 00 00 00       	mov    $0x0,%ebx
    63f2:	8b 4d e8             	mov    -0x18(%ebp),%ecx
    63f5:	3b 0a                	cmp    (%edx),%ecx
    63f7:	75 11                	jne    640a <scheme_register_primitive+0x68>
    63f9:	eb 07                	jmp    6402 <scheme_register_primitive+0x60>
    63fb:	8b 75 e8             	mov    -0x18(%ebp),%esi
    63fe:	3b 32                	cmp    (%edx),%esi
    6400:	75 08                	jne    640a <scheme_register_primitive+0x68>
    6402:	8b 7d f0             	mov    -0x10(%ebp),%edi
    6405:	89 7a 04             	mov    %edi,0x4(%edx)
    6408:	eb 6c                	jmp    6476 <scheme_register_primitive+0xd4>
    640a:	83 c2 08             	add    $0x8,%edx
    640d:	43                   	inc    %ebx
    640e:	39 d8                	cmp    %ebx,%eax
    6410:	75 e9                	jne    63fb <scheme_register_primitive+0x59>
    6412:	8b 4d e4             	mov    -0x1c(%ebp),%ecx
    6415:	0f bf 41 02          	movswl 0x2(%ecx),%eax
    6419:	39 c3                	cmp    %eax,%ebx
    641b:	75 45                	jne    6462 <scheme_register_primitive+0xc0>
    641d:	8d 43 20             	lea    0x20(%ebx),%eax
    6420:	98                   	cwtl   
    6421:	66 89 41 02          	mov    %ax,0x2(%ecx)
    6425:	c1 e0 03             	shl    $0x3,%eax
    6428:	89 04 24             	mov    %eax,(%esp)
    642b:	e8 84 16 00 00       	call   7ab4 <kmalloc>
    6430:	89 45 ec             	mov    %eax,-0x14(%ebp)
    6433:	c1 e3 03             	shl    $0x3,%ebx
    6436:	8b 75 e4             	mov    -0x1c(%ebp),%esi
    6439:	8b 46 04             	mov    0x4(%esi),%eax
    643c:	8b 7d ec             	mov    -0x14(%ebp),%edi
    643f:	89 c6                	mov    %eax,%esi
    6441:	89 d9                	mov    %ebx,%ecx
    6443:	56                   	push   %esi
    6444:	57                   	push   %edi
    6445:	fc                   	cld    
    6446:	f3 a4                	rep movsb %ds:(%esi),%es:(%edi)
    6448:	5f                   	pop    %edi
    6449:	5e                   	pop    %esi
    644a:	8b 55 e4             	mov    -0x1c(%ebp),%edx
    644d:	8b 42 04             	mov    0x4(%edx),%eax
    6450:	89 04 24             	mov    %eax,(%esp)
    6453:	e8 f5 15 00 00       	call   7a4d <kfree>
    6458:	8b 4d e4             	mov    -0x1c(%ebp),%ecx
    645b:	89 79 04             	mov    %edi,0x4(%ecx)
    645e:	89 fa                	mov    %edi,%edx
    6460:	01 da                	add    %ebx,%edx
    6462:	8b 75 e4             	mov    -0x1c(%ebp),%esi
    6465:	8b 06                	mov    (%esi),%eax
    6467:	40                   	inc    %eax
    6468:	66 89 06             	mov    %ax,(%esi)
    646b:	8b 7d e8             	mov    -0x18(%ebp),%edi
    646e:	89 3a                	mov    %edi,(%edx)
    6470:	8b 45 f0             	mov    -0x10(%ebp),%eax
    6473:	89 42 04             	mov    %eax,0x4(%edx)
    6476:	83 c4 1c             	add    $0x1c,%esp
    6479:	5b                   	pop    %ebx
    647a:	5e                   	pop    %esi
    647b:	5f                   	pop    %edi
    647c:	5d                   	pop    %ebp
    647d:	c3                   	ret    

0000647e <scheme_init_env>:
    647e:	55                   	push   %ebp
    647f:	89 e5                	mov    %esp,%ebp
    6481:	57                   	push   %edi
    6482:	56                   	push   %esi
    6483:	53                   	push   %ebx
    6484:	83 ec 3c             	sub    $0x3c,%esp
    6487:	c7 04 24 00 04 00 00 	movl   $0x400,(%esp)
    648e:	e8 21 16 00 00       	call   7ab4 <kmalloc>
    6493:	89 c6                	mov    %eax,%esi
    6495:	c7 04 24 08 00 00 00 	movl   $0x8,(%esp)
    649c:	e8 13 16 00 00       	call   7ab4 <kmalloc>
    64a1:	89 c3                	mov    %eax,%ebx
    64a3:	85 f6                	test   %esi,%esi
    64a5:	74 04                	je     64ab <scheme_init_env+0x2d>
    64a7:	85 c0                	test   %eax,%eax
    64a9:	75 15                	jne    64c0 <scheme_init_env+0x42>
    64ab:	89 34 24             	mov    %esi,(%esp)
    64ae:	e8 9a 15 00 00       	call   7a4d <kfree>
    64b3:	89 1c 24             	mov    %ebx,(%esp)
    64b6:	e8 92 15 00 00       	call   7a4d <kfree>
    64bb:	e9 8b 02 00 00       	jmp    674b <scheme_init_env+0x2cd>
    64c0:	66 c7 00 00 00       	movw   $0x0,(%eax)
    64c5:	66 c7 40 02 80 00    	movw   $0x80,0x2(%eax)
    64cb:	89 70 04             	mov    %esi,0x4(%eax)
    64ce:	66 c7 05 f0 cc 12 00 	movw   $0x0,0x12ccf0
    64d5:	00 00 
    64d7:	a3 f8 cc 12 00       	mov    %eax,0x12ccf8
    64dc:	c7 05 fc cc 12 00 d0 	movl   $0x12ccd0,0x12ccfc
    64e3:	cc 12 00 
    64e6:	c7 44 24 08 01 00 00 	movl   $0x1,0x8(%esp)
    64ed:	00 
    64ee:	c7 44 24 04 01 00 00 	movl   $0x1,0x4(%esp)
    64f5:	00 
    64f6:	c7 04 24 88 60 00 00 	movl   $0x6088,(%esp)
    64fd:	e8 1d 03 00 00       	call   681f <scheme_make_prim_proc>
    6502:	89 45 d0             	mov    %eax,-0x30(%ebp)
    6505:	c7 04 24 ff 8c 00 00 	movl   $0x8cff,(%esp)
    650c:	e8 df f6 ff ff       	call   5bf0 <scheme_make_symbol>
    6511:	89 45 d4             	mov    %eax,-0x2c(%ebp)
    6514:	a1 f8 cc 12 00       	mov    0x12ccf8,%eax
    6519:	89 45 cc             	mov    %eax,-0x34(%ebp)
    651c:	8b 50 04             	mov    0x4(%eax),%edx
    651f:	0f bf 00             	movswl (%eax),%eax
    6522:	bb 00 00 00 00       	mov    $0x0,%ebx
    6527:	85 c0                	test   %eax,%eax
    6529:	7e 25                	jle    6550 <scheme_init_env+0xd2>
    652b:	bb 00 00 00 00       	mov    $0x0,%ebx
    6530:	8b 4d d4             	mov    -0x2c(%ebp),%ecx
    6533:	3b 0a                	cmp    (%edx),%ecx
    6535:	75 11                	jne    6548 <scheme_init_env+0xca>
    6537:	eb 07                	jmp    6540 <scheme_init_env+0xc2>
    6539:	8b 7d d4             	mov    -0x2c(%ebp),%edi
    653c:	3b 3a                	cmp    (%edx),%edi
    653e:	75 08                	jne    6548 <scheme_init_env+0xca>
    6540:	8b 45 d0             	mov    -0x30(%ebp),%eax
    6543:	89 42 04             	mov    %eax,0x4(%edx)
    6546:	eb 69                	jmp    65b1 <scheme_init_env+0x133>
    6548:	83 c2 08             	add    $0x8,%edx
    654b:	43                   	inc    %ebx
    654c:	39 d8                	cmp    %ebx,%eax
    654e:	75 e9                	jne    6539 <scheme_init_env+0xbb>
    6550:	8b 4d cc             	mov    -0x34(%ebp),%ecx
    6553:	0f bf 41 02          	movswl 0x2(%ecx),%eax
    6557:	39 c3                	cmp    %eax,%ebx
    6559:	75 42                	jne    659d <scheme_init_env+0x11f>
    655b:	8d 43 20             	lea    0x20(%ebx),%eax
    655e:	98                   	cwtl   
    655f:	66 89 41 02          	mov    %ax,0x2(%ecx)
    6563:	c1 e0 03             	shl    $0x3,%eax
    6566:	89 04 24             	mov    %eax,(%esp)
    6569:	e8 46 15 00 00       	call   7ab4 <kmalloc>
    656e:	89 45 c8             	mov    %eax,-0x38(%ebp)
    6571:	c1 e3 03             	shl    $0x3,%ebx
    6574:	8b 7d cc             	mov    -0x34(%ebp),%edi
    6577:	8b 77 04             	mov    0x4(%edi),%esi
    657a:	89 c7                	mov    %eax,%edi
    657c:	89 d9                	mov    %ebx,%ecx
    657e:	56                   	push   %esi
    657f:	57                   	push   %edi
    6580:	fc                   	cld    
    6581:	f3 a4                	rep movsb %ds:(%esi),%es:(%edi)
    6583:	5f                   	pop    %edi
    6584:	5e                   	pop    %esi
    6585:	8b 55 cc             	mov    -0x34(%ebp),%edx
    6588:	8b 42 04             	mov    0x4(%edx),%eax
    658b:	89 04 24             	mov    %eax,(%esp)
    658e:	e8 ba 14 00 00       	call   7a4d <kfree>
    6593:	8b 4d cc             	mov    -0x34(%ebp),%ecx
    6596:	89 79 04             	mov    %edi,0x4(%ecx)
    6599:	89 fa                	mov    %edi,%edx
    659b:	01 da                	add    %ebx,%edx
    659d:	8b 5d cc             	mov    -0x34(%ebp),%ebx
    65a0:	8b 03                	mov    (%ebx),%eax
    65a2:	40                   	inc    %eax
    65a3:	66 89 03             	mov    %ax,(%ebx)
    65a6:	8b 7d d4             	mov    -0x2c(%ebp),%edi
    65a9:	89 3a                	mov    %edi,(%edx)
    65ab:	8b 45 d0             	mov    -0x30(%ebp),%eax
    65ae:	89 42 04             	mov    %eax,0x4(%edx)
    65b1:	c7 44 24 08 01 00 00 	movl   $0x1,0x8(%esp)
    65b8:	00 
    65b9:	c7 44 24 04 01 00 00 	movl   $0x1,0x4(%esp)
    65c0:	00 
    65c1:	c7 04 24 92 60 00 00 	movl   $0x6092,(%esp)
    65c8:	e8 52 02 00 00       	call   681f <scheme_make_prim_proc>
    65cd:	89 45 e0             	mov    %eax,-0x20(%ebp)
    65d0:	c7 04 24 19 8d 00 00 	movl   $0x8d19,(%esp)
    65d7:	e8 14 f6 ff ff       	call   5bf0 <scheme_make_symbol>
    65dc:	89 45 e4             	mov    %eax,-0x1c(%ebp)
    65df:	8b 15 f8 cc 12 00    	mov    0x12ccf8,%edx
    65e5:	89 55 dc             	mov    %edx,-0x24(%ebp)
    65e8:	89 d1                	mov    %edx,%ecx
    65ea:	8b 52 04             	mov    0x4(%edx),%edx
    65ed:	0f bf 01             	movswl (%ecx),%eax
    65f0:	bb 00 00 00 00       	mov    $0x0,%ebx
    65f5:	85 c0                	test   %eax,%eax
    65f7:	7e 25                	jle    661e <scheme_init_env+0x1a0>
    65f9:	bb 00 00 00 00       	mov    $0x0,%ebx
    65fe:	8b 7d e4             	mov    -0x1c(%ebp),%edi
    6601:	3b 3a                	cmp    (%edx),%edi
    6603:	75 11                	jne    6616 <scheme_init_env+0x198>
    6605:	eb 07                	jmp    660e <scheme_init_env+0x190>
    6607:	8b 4d e4             	mov    -0x1c(%ebp),%ecx
    660a:	3b 0a                	cmp    (%edx),%ecx
    660c:	75 08                	jne    6616 <scheme_init_env+0x198>
    660e:	8b 5d e0             	mov    -0x20(%ebp),%ebx
    6611:	89 5a 04             	mov    %ebx,0x4(%edx)
    6614:	eb 66                	jmp    667c <scheme_init_env+0x1fe>
    6616:	83 c2 08             	add    $0x8,%edx
    6619:	43                   	inc    %ebx
    661a:	39 d8                	cmp    %ebx,%eax
    661c:	75 e9                	jne    6607 <scheme_init_env+0x189>
    661e:	8b 7d dc             	mov    -0x24(%ebp),%edi
    6621:	0f bf 47 02          	movswl 0x2(%edi),%eax
    6625:	39 c3                	cmp    %eax,%ebx
    6627:	75 3f                	jne    6668 <scheme_init_env+0x1ea>
    6629:	8d 43 20             	lea    0x20(%ebx),%eax
    662c:	98                   	cwtl   
    662d:	66 89 47 02          	mov    %ax,0x2(%edi)
    6631:	c1 e0 03             	shl    $0x3,%eax
    6634:	89 04 24             	mov    %eax,(%esp)
    6637:	e8 78 14 00 00       	call   7ab4 <kmalloc>
    663c:	89 45 d8             	mov    %eax,-0x28(%ebp)
    663f:	c1 e3 03             	shl    $0x3,%ebx
    6642:	8b 77 04             	mov    0x4(%edi),%esi
    6645:	89 c7                	mov    %eax,%edi
    6647:	89 d9                	mov    %ebx,%ecx
    6649:	56                   	push   %esi
    664a:	57                   	push   %edi
    664b:	fc                   	cld    
    664c:	f3 a4                	rep movsb %ds:(%esi),%es:(%edi)
    664e:	5f                   	pop    %edi
    664f:	5e                   	pop    %esi
    6650:	8b 55 dc             	mov    -0x24(%ebp),%edx
    6653:	8b 42 04             	mov    0x4(%edx),%eax
    6656:	89 04 24             	mov    %eax,(%esp)
    6659:	e8 ef 13 00 00       	call   7a4d <kfree>
    665e:	8b 4d dc             	mov    -0x24(%ebp),%ecx
    6661:	89 79 04             	mov    %edi,0x4(%ecx)
    6664:	89 fa                	mov    %edi,%edx
    6666:	01 da                	add    %ebx,%edx
    6668:	8b 5d dc             	mov    -0x24(%ebp),%ebx
    666b:	8b 03                	mov    (%ebx),%eax
    666d:	40                   	inc    %eax
    666e:	66 89 03             	mov    %ax,(%ebx)
    6671:	8b 7d e4             	mov    -0x1c(%ebp),%edi
    6674:	89 3a                	mov    %edi,(%edx)
    6676:	8b 45 e0             	mov    -0x20(%ebp),%eax
    6679:	89 42 04             	mov    %eax,0x4(%edx)
    667c:	c7 44 24 08 00 00 00 	movl   $0x0,0x8(%esp)
    6683:	00 
    6684:	c7 44 24 04 00 00 00 	movl   $0x0,0x4(%esp)
    668b:	00 
    668c:	c7 04 24 9c 60 00 00 	movl   $0x609c,(%esp)
    6693:	e8 87 01 00 00       	call   681f <scheme_make_prim_proc>
    6698:	89 45 f0             	mov    %eax,-0x10(%ebp)
    669b:	c7 04 24 2a 8d 00 00 	movl   $0x8d2a,(%esp)
    66a2:	e8 49 f5 ff ff       	call   5bf0 <scheme_make_symbol>
    66a7:	89 45 c4             	mov    %eax,-0x3c(%ebp)
    66aa:	8b 15 f8 cc 12 00    	mov    0x12ccf8,%edx
    66b0:	89 55 ec             	mov    %edx,-0x14(%ebp)
    66b3:	89 d1                	mov    %edx,%ecx
    66b5:	8b 52 04             	mov    0x4(%edx),%edx
    66b8:	0f bf 09             	movswl (%ecx),%ecx
    66bb:	b8 00 00 00 00       	mov    $0x0,%eax
    66c0:	85 c9                	test   %ecx,%ecx
    66c2:	7e 26                	jle    66ea <scheme_init_env+0x26c>
    66c4:	b8 00 00 00 00       	mov    $0x0,%eax
    66c9:	8b 5d c4             	mov    -0x3c(%ebp),%ebx
    66cc:	3b 1a                	cmp    (%edx),%ebx
    66ce:	75 12                	jne    66e2 <scheme_init_env+0x264>
    66d0:	eb 07                	jmp    66d9 <scheme_init_env+0x25b>
    66d2:	8b 7d c4             	mov    -0x3c(%ebp),%edi
    66d5:	3b 3a                	cmp    (%edx),%edi
    66d7:	75 09                	jne    66e2 <scheme_init_env+0x264>
    66d9:	8b 45 f0             	mov    -0x10(%ebp),%eax
    66dc:	89 42 04             	mov    %eax,0x4(%edx)
    66df:	90                   	nop
    66e0:	eb 69                	jmp    674b <scheme_init_env+0x2cd>
    66e2:	83 c2 08             	add    $0x8,%edx
    66e5:	40                   	inc    %eax
    66e6:	39 c1                	cmp    %eax,%ecx
    66e8:	75 e8                	jne    66d2 <scheme_init_env+0x254>
    66ea:	8b 4d ec             	mov    -0x14(%ebp),%ecx
    66ed:	0f bf 59 02          	movswl 0x2(%ecx),%ebx
    66f1:	39 c3                	cmp    %eax,%ebx
    66f3:	75 42                	jne    6737 <scheme_init_env+0x2b9>
    66f5:	8d 43 20             	lea    0x20(%ebx),%eax
    66f8:	98                   	cwtl   
    66f9:	66 89 41 02          	mov    %ax,0x2(%ecx)
    66fd:	c1 e0 03             	shl    $0x3,%eax
    6700:	89 04 24             	mov    %eax,(%esp)
    6703:	e8 ac 13 00 00       	call   7ab4 <kmalloc>
    6708:	89 45 e8             	mov    %eax,-0x18(%ebp)
    670b:	c1 e3 03             	shl    $0x3,%ebx
    670e:	8b 7d ec             	mov    -0x14(%ebp),%edi
    6711:	8b 77 04             	mov    0x4(%edi),%esi
    6714:	89 c7                	mov    %eax,%edi
    6716:	89 d9                	mov    %ebx,%ecx
    6718:	56                   	push   %esi
    6719:	57                   	push   %edi
    671a:	fc                   	cld    
    671b:	f3 a4                	rep movsb %ds:(%esi),%es:(%edi)
    671d:	5f                   	pop    %edi
    671e:	5e                   	pop    %esi
    671f:	8b 55 ec             	mov    -0x14(%ebp),%edx
    6722:	8b 42 04             	mov    0x4(%edx),%eax
    6725:	89 04 24             	mov    %eax,(%esp)
    6728:	e8 20 13 00 00       	call   7a4d <kfree>
    672d:	8b 4d ec             	mov    -0x14(%ebp),%ecx
    6730:	89 79 04             	mov    %edi,0x4(%ecx)
    6733:	89 fa                	mov    %edi,%edx
    6735:	01 da                	add    %ebx,%edx
    6737:	8b 5d ec             	mov    -0x14(%ebp),%ebx
    673a:	8b 03                	mov    (%ebx),%eax
    673c:	40                   	inc    %eax
    673d:	66 89 03             	mov    %ax,(%ebx)
    6740:	8b 7d c4             	mov    -0x3c(%ebp),%edi
    6743:	89 3a                	mov    %edi,(%edx)
    6745:	8b 45 f0             	mov    -0x10(%ebp),%eax
    6748:	89 42 04             	mov    %eax,0x4(%edx)
    674b:	83 c4 3c             	add    $0x3c,%esp
    674e:	5b                   	pop    %ebx
    674f:	5e                   	pop    %esi
    6750:	5f                   	pop    %edi
    6751:	5d                   	pop    %ebp
    6752:	c3                   	ret    
    6753:	90                   	nop
    6754:	90                   	nop
    6755:	90                   	nop
    6756:	90                   	nop
    6757:	90                   	nop
    6758:	90                   	nop
    6759:	90                   	nop
    675a:	90                   	nop
    675b:	90                   	nop
    675c:	90                   	nop
    675d:	90                   	nop
    675e:	90                   	nop
    675f:	90                   	nop

00006760 <scheme_init_proc>:
    6760:	55                   	push   %ebp
    6761:	89 e5                	mov    %esp,%ebp
    6763:	66 c7 05 c0 cc 12 00 	movw   $0x1a,0x12ccc0
    676a:	1a 00 
    676c:	5d                   	pop    %ebp
    676d:	c3                   	ret    

0000676e <scheme_make_procedure>:
    676e:	55                   	push   %ebp
    676f:	89 e5                	mov    %esp,%ebp
    6771:	83 ec 18             	sub    $0x18,%esp
    6774:	c7 04 24 10 00 00 00 	movl   $0x10,(%esp)
    677b:	e8 34 13 00 00       	call   7ab4 <kmalloc>
    6780:	8b 55 0c             	mov    0xc(%ebp),%edx
    6783:	89 50 08             	mov    %edx,0x8(%eax)
    6786:	8b 55 08             	mov    0x8(%ebp),%edx
    6789:	89 50 04             	mov    %edx,0x4(%eax)
    678c:	8b 55 10             	mov    0x10(%ebp),%edx
    678f:	89 50 0c             	mov    %edx,0xc(%eax)
    6792:	66 c7 00 05 00       	movw   $0x5,(%eax)
    6797:	c9                   	leave  
    6798:	c3                   	ret    

00006799 <scheme_apply_prim_proc>:
    6799:	55                   	push   %ebp
    679a:	89 e5                	mov    %esp,%ebp
    679c:	57                   	push   %edi
    679d:	56                   	push   %esi
    679e:	53                   	push   %ebx
    679f:	83 ec 2c             	sub    $0x2c,%esp
    67a2:	8b 7d 08             	mov    0x8(%ebp),%edi
    67a5:	8b 75 0c             	mov    0xc(%ebp),%esi
    67a8:	89 f0                	mov    %esi,%eax
    67aa:	bb 00 00 00 00       	mov    $0x0,%ebx
    67af:	81 fe d0 cc 12 00    	cmp    $0x12ccd0,%esi
    67b5:	74 0d                	je     67c4 <scheme_apply_prim_proc+0x2b>
    67b7:	8b 40 08             	mov    0x8(%eax),%eax
    67ba:	83 c3 01             	add    $0x1,%ebx
    67bd:	3d d0 cc 12 00       	cmp    $0x12ccd0,%eax
    67c2:	75 f3                	jne    67b7 <scheme_apply_prim_proc+0x1e>
    67c4:	8b 57 0c             	mov    0xc(%edi),%edx
    67c7:	85 d2                	test   %edx,%edx
    67c9:	7e 09                	jle    67d4 <scheme_apply_prim_proc+0x3b>
    67cb:	b8 c0 cc 12 00       	mov    $0x12ccc0,%eax
    67d0:	39 da                	cmp    %ebx,%edx
    67d2:	7c 43                	jl     6817 <scheme_apply_prim_proc+0x7e>
    67d4:	b8 c0 cc 12 00       	mov    $0x12ccc0,%eax
    67d9:	39 5f 08             	cmp    %ebx,0x8(%edi)
    67dc:	7f 39                	jg     6817 <scheme_apply_prim_proc+0x7e>
    67de:	8d 04 9d 00 00 00 00 	lea    0x0(,%ebx,4),%eax
    67e5:	89 04 24             	mov    %eax,(%esp)
    67e8:	e8 c7 12 00 00       	call   7ab4 <kmalloc>
    67ed:	89 45 e4             	mov    %eax,-0x1c(%ebp)
    67f0:	85 db                	test   %ebx,%ebx
    67f2:	7e 16                	jle    680a <scheme_apply_prim_proc+0x71>
    67f4:	ba 00 00 00 00       	mov    $0x0,%edx
    67f9:	83 c2 01             	add    $0x1,%edx
    67fc:	8b 4e 04             	mov    0x4(%esi),%ecx
    67ff:	89 4c 90 fc          	mov    %ecx,-0x4(%eax,%edx,4)
    6803:	8b 76 08             	mov    0x8(%esi),%esi
    6806:	39 da                	cmp    %ebx,%edx
    6808:	75 ef                	jne    67f9 <scheme_apply_prim_proc+0x60>
    680a:	8b 45 e4             	mov    -0x1c(%ebp),%eax
    680d:	89 44 24 04          	mov    %eax,0x4(%esp)
    6811:	89 1c 24             	mov    %ebx,(%esp)
    6814:	ff 57 04             	call   *0x4(%edi)
    6817:	83 c4 2c             	add    $0x2c,%esp
    681a:	5b                   	pop    %ebx
    681b:	5e                   	pop    %esi
    681c:	5f                   	pop    %edi
    681d:	5d                   	pop    %ebp
    681e:	c3                   	ret    

0000681f <scheme_make_prim_proc>:
    681f:	55                   	push   %ebp
    6820:	89 e5                	mov    %esp,%ebp
    6822:	83 ec 18             	sub    $0x18,%esp
    6825:	c7 04 24 10 00 00 00 	movl   $0x10,(%esp)
    682c:	e8 83 12 00 00       	call   7ab4 <kmalloc>
    6831:	8b 55 08             	mov    0x8(%ebp),%edx
    6834:	89 50 04             	mov    %edx,0x4(%eax)
    6837:	8b 55 10             	mov    0x10(%ebp),%edx
    683a:	89 50 0c             	mov    %edx,0xc(%eax)
    683d:	8b 55 0c             	mov    0xc(%ebp),%edx
    6840:	89 50 08             	mov    %edx,0x8(%eax)
    6843:	66 c7 00 04 00       	movw   $0x4,(%eax)
    6848:	c9                   	leave  
    6849:	c3                   	ret    

0000684a <scheme_apply>:
    684a:	55                   	push   %ebp
    684b:	89 e5                	mov    %esp,%ebp
    684d:	53                   	push   %ebx
    684e:	83 ec 14             	sub    $0x14,%esp
    6851:	8b 5d 08             	mov    0x8(%ebp),%ebx
    6854:	8b 45 0c             	mov    0xc(%ebp),%eax
    6857:	f6 c3 01             	test   $0x1,%bl
    685a:	75 4d                	jne    68a9 <scheme_apply+0x5f>
    685c:	0f b7 13             	movzwl (%ebx),%edx
    685f:	66 83 fa 04          	cmp    $0x4,%dx
    6863:	74 0d                	je     6872 <scheme_apply+0x28>
    6865:	66 83 fa 05          	cmp    $0x5,%dx
    6869:	75 3e                	jne    68a9 <scheme_apply+0x5f>
    686b:	90                   	nop
    686c:	8d 74 26 00          	lea    0x0(%esi,%eiz,1),%esi
    6870:	eb 10                	jmp    6882 <scheme_apply+0x38>
    6872:	89 44 24 04          	mov    %eax,0x4(%esp)
    6876:	89 1c 24             	mov    %ebx,(%esp)
    6879:	e8 1b ff ff ff       	call   6799 <scheme_apply_prim_proc>
    687e:	66 90                	xchg   %ax,%ax
    6880:	eb 38                	jmp    68ba <scheme_apply+0x70>
    6882:	8b 53 0c             	mov    0xc(%ebx),%edx
    6885:	89 54 24 08          	mov    %edx,0x8(%esp)
    6889:	89 44 24 04          	mov    %eax,0x4(%esp)
    688d:	8b 43 04             	mov    0x4(%ebx),%eax
    6890:	89 04 24             	mov    %eax,(%esp)
    6893:	e8 c3 f8 ff ff       	call   615b <scheme_extend_env>
    6898:	89 44 24 04          	mov    %eax,0x4(%esp)
    689c:	8b 43 08             	mov    0x8(%ebx),%eax
    689f:	89 04 24             	mov    %eax,(%esp)
    68a2:	e8 e8 0c 00 00       	call   758f <scheme_eval_sequence>
    68a7:	eb 11                	jmp    68ba <scheme_apply+0x70>
    68a9:	c7 04 24 18 8e 00 00 	movl   $0x8e18,(%esp)
    68b0:	e8 0f 16 00 00       	call   7ec4 <printf>
    68b5:	b8 c0 cc 12 00       	mov    $0x12ccc0,%eax
    68ba:	83 c4 14             	add    $0x14,%esp
    68bd:	5b                   	pop    %ebx
    68be:	5d                   	pop    %ebp
    68bf:	c3                   	ret    

000068c0 <apply>:
    68c0:	55                   	push   %ebp
    68c1:	89 e5                	mov    %esp,%ebp
    68c3:	83 ec 18             	sub    $0x18,%esp
    68c6:	8b 45 0c             	mov    0xc(%ebp),%eax
    68c9:	8b 50 04             	mov    0x4(%eax),%edx
    68cc:	89 54 24 04          	mov    %edx,0x4(%esp)
    68d0:	8b 00                	mov    (%eax),%eax
    68d2:	89 04 24             	mov    %eax,(%esp)
    68d5:	e8 70 ff ff ff       	call   684a <scheme_apply>
    68da:	c9                   	leave  
    68db:	c3                   	ret    
    68dc:	90                   	nop
    68dd:	90                   	nop
    68de:	90                   	nop
    68df:	90                   	nop

000068e0 <_analyze_case>:
    68e0:	55                   	push   %ebp
    68e1:	89 e5                	mov    %esp,%ebp
    68e3:	5d                   	pop    %ebp
    68e4:	c3                   	ret    

000068e5 <_analyze_delay>:
    68e5:	55                   	push   %ebp
    68e6:	89 e5                	mov    %esp,%ebp
    68e8:	5d                   	pop    %ebp
    68e9:	c3                   	ret    

000068ea <_analyze_loop>:
    68ea:	55                   	push   %ebp
    68eb:	89 e5                	mov    %esp,%ebp
    68ed:	5d                   	pop    %ebp
    68ee:	c3                   	ret    

000068ef <_analyze_else>:
    68ef:	55                   	push   %ebp
    68f0:	89 e5                	mov    %esp,%ebp
    68f2:	b8 14 cd 12 00       	mov    $0x12cd14,%eax
    68f7:	5d                   	pop    %ebp
    68f8:	c3                   	ret    

000068f9 <_analyze_let>:
    68f9:	55                   	push   %ebp
    68fa:	89 e5                	mov    %esp,%ebp
    68fc:	5d                   	pop    %ebp
    68fd:	c3                   	ret    

000068fe <_analyze_letrec>:
    68fe:	55                   	push   %ebp
    68ff:	89 e5                	mov    %esp,%ebp
    6901:	5d                   	pop    %ebp
    6902:	c3                   	ret    

00006903 <_analyze_let_star>:
    6903:	55                   	push   %ebp
    6904:	89 e5                	mov    %esp,%ebp
    6906:	5d                   	pop    %ebp
    6907:	c3                   	ret    

00006908 <_analyze_quasiquote>:
    6908:	55                   	push   %ebp
    6909:	89 e5                	mov    %esp,%ebp
    690b:	5d                   	pop    %ebp
    690c:	c3                   	ret    

0000690d <_analyze_quoted>:
    690d:	55                   	push   %ebp
    690e:	89 e5                	mov    %esp,%ebp
    6910:	83 ec 08             	sub    $0x8,%esp
    6913:	c7 04 24 10 00 00 00 	movl   $0x10,(%esp)
    691a:	e8 95 11 00 00       	call   7ab4 <kmalloc>
    691f:	66 c7 00 1e 00       	movw   $0x1e,(%eax)
    6924:	8b 55 08             	mov    0x8(%ebp),%edx
    6927:	8b 52 08             	mov    0x8(%edx),%edx
    692a:	8b 52 04             	mov    0x4(%edx),%edx
    692d:	89 50 04             	mov    %edx,0x4(%eax)
    6930:	c9                   	leave  
    6931:	c3                   	ret    

00006932 <_analyze>:
    6932:	55                   	push   %ebp
    6933:	89 e5                	mov    %esp,%ebp
    6935:	83 ec 38             	sub    $0x38,%esp
    6938:	89 5d f4             	mov    %ebx,-0xc(%ebp)
    693b:	89 75 f8             	mov    %esi,-0x8(%ebp)
    693e:	89 7d fc             	mov    %edi,-0x4(%ebp)
    6941:	89 c3                	mov    %eax,%ebx
    6943:	a8 01                	test   $0x1,%al
    6945:	75 39                	jne    6980 <_analyze+0x4e>
    6947:	0f bf 08             	movswl (%eax),%ecx
    694a:	66 83 f9 1c          	cmp    $0x1c,%cx
    694e:	0f 8f f4 01 00 00    	jg     6b48 <_analyze+0x216>
    6954:	66 83 f9 19          	cmp    $0x19,%cx
    6958:	77 1c                	ja     6976 <_analyze+0x44>
    695a:	b8 01 00 00 00       	mov    $0x1,%eax
    695f:	d3 e0                	shl    %cl,%eax
    6961:	a9 00 ff 2a 02       	test   $0x22aff00,%eax
    6966:	75 18                	jne    6980 <_analyze+0x4e>
    6968:	a9 00 00 04 00       	test   $0x40000,%eax
    696d:	75 2c                	jne    699b <_analyze+0x69>
    696f:	a9 00 00 10 00       	test   $0x100000,%eax
    6974:	75 40                	jne    69b6 <_analyze+0x84>
    6976:	bb c0 cc 12 00       	mov    $0x12ccc0,%ebx
    697b:	e9 c8 01 00 00       	jmp    6b48 <_analyze+0x216>
    6980:	c7 04 24 10 00 00 00 	movl   $0x10,(%esp)
    6987:	e8 28 11 00 00       	call   7ab4 <kmalloc>
    698c:	66 c7 00 1d 00       	movw   $0x1d,(%eax)
    6991:	89 58 04             	mov    %ebx,0x4(%eax)
    6994:	89 c3                	mov    %eax,%ebx
    6996:	e9 ad 01 00 00       	jmp    6b48 <_analyze+0x216>
    699b:	c7 04 24 10 00 00 00 	movl   $0x10,(%esp)
    69a2:	e8 0d 11 00 00       	call   7ab4 <kmalloc>
    69a7:	66 c7 00 1f 00       	movw   $0x1f,(%eax)
    69ac:	89 58 04             	mov    %ebx,0x4(%eax)
    69af:	89 c3                	mov    %eax,%ebx
    69b1:	e9 92 01 00 00       	jmp    6b48 <_analyze+0x216>
    69b6:	8b 43 04             	mov    0x4(%ebx),%eax
    69b9:	89 45 e0             	mov    %eax,-0x20(%ebp)
    69bc:	a8 01                	test   $0x1,%al
    69be:	0f 85 58 01 00 00    	jne    6b1c <_analyze+0x1ea>
    69c4:	8b 00                	mov    (%eax),%eax
    69c6:	66 83 f8 12          	cmp    $0x12,%ax
    69ca:	74 0f                	je     69db <_analyze+0xa9>
    69cc:	66 83 f8 14          	cmp    $0x14,%ax
    69d0:	0f 85 46 01 00 00    	jne    6b1c <_analyze+0x1ea>
    69d6:	e9 48 01 00 00       	jmp    6b23 <_analyze+0x1f1>
    69db:	8b 4d e0             	mov    -0x20(%ebp),%ecx
    69de:	8b 49 04             	mov    0x4(%ecx),%ecx
    69e1:	89 4d ec             	mov    %ecx,-0x14(%ebp)
    69e4:	0f b6 01             	movzbl (%ecx),%eax
    69e7:	88 45 eb             	mov    %al,-0x15(%ebp)
    69ea:	84 c0                	test   %al,%al
    69ec:	0f 84 cb 00 00 00    	je     6abd <_analyze+0x18b>
    69f2:	c7 45 e4 00 00 00 00 	movl   $0x0,-0x1c(%ebp)
    69f9:	be 11 00 00 00       	mov    $0x11,%esi
    69fe:	c7 45 f0 00 00 00 00 	movl   $0x0,-0x10(%ebp)
    6a05:	c7 45 d8 00 00 00 00 	movl   $0x0,-0x28(%ebp)
    6a0c:	eb 7f                	jmp    6a8d <_analyze+0x15b>
    6a0e:	8b 4d d4             	mov    -0x2c(%ebp),%ecx
    6a11:	8b 49 08             	mov    0x8(%ecx),%ecx
    6a14:	89 4d dc             	mov    %ecx,-0x24(%ebp)
    6a17:	83 45 d4 08          	addl   $0x8,-0x2c(%ebp)
    6a1b:	0f b6 45 eb          	movzbl -0x15(%ebp),%eax
    6a1f:	8b 7d d8             	mov    -0x28(%ebp),%edi
    6a22:	38 04 39             	cmp    %al,(%ecx,%edi,1)
    6a25:	74 05                	je     6a2c <_analyze+0xfa>
    6a27:	42                   	inc    %edx
    6a28:	39 d6                	cmp    %edx,%esi
    6a2a:	75 e2                	jne    6a0e <_analyze+0xdc>
    6a2c:	89 55 e4             	mov    %edx,-0x1c(%ebp)
    6a2f:	39 75 e4             	cmp    %esi,-0x1c(%ebp)
    6a32:	0f 84 eb 00 00 00    	je     6b23 <_analyze+0x1f1>
    6a38:	8b 75 e4             	mov    -0x1c(%ebp),%esi
    6a3b:	46                   	inc    %esi
    6a3c:	8b 04 f5 e0 93 00 00 	mov    0x93e0(,%esi,8),%eax
    6a43:	85 c0                	test   %eax,%eax
    6a45:	74 2f                	je     6a76 <_analyze+0x144>
    6a47:	8b 4d e4             	mov    -0x1c(%ebp),%ecx
    6a4a:	8d 14 cd e0 93 00 00 	lea    0x93e0(,%ecx,8),%edx
    6a51:	0f b6 4d eb          	movzbl -0x15(%ebp),%ecx
    6a55:	8b 7d d8             	mov    -0x28(%ebp),%edi
    6a58:	3a 0c 38             	cmp    (%eax,%edi,1),%cl
    6a5b:	74 11                	je     6a6e <_analyze+0x13c>
    6a5d:	eb 17                	jmp    6a76 <_analyze+0x144>
    6a5f:	83 c2 08             	add    $0x8,%edx
    6a62:	0f b6 4d eb          	movzbl -0x15(%ebp),%ecx
    6a66:	8b 7d d8             	mov    -0x28(%ebp),%edi
    6a69:	38 0c 38             	cmp    %cl,(%eax,%edi,1)
    6a6c:	75 08                	jne    6a76 <_analyze+0x144>
    6a6e:	46                   	inc    %esi
    6a6f:	8b 42 10             	mov    0x10(%edx),%eax
    6a72:	85 c0                	test   %eax,%eax
    6a74:	75 e9                	jne    6a5f <_analyze+0x12d>
    6a76:	ff 45 f0             	incl   -0x10(%ebp)
    6a79:	8b 45 f0             	mov    -0x10(%ebp),%eax
    6a7c:	89 45 d8             	mov    %eax,-0x28(%ebp)
    6a7f:	8b 55 ec             	mov    -0x14(%ebp),%edx
    6a82:	0f b6 14 10          	movzbl (%eax,%edx,1),%edx
    6a86:	88 55 eb             	mov    %dl,-0x15(%ebp)
    6a89:	84 d2                	test   %dl,%dl
    6a8b:	74 37                	je     6ac4 <_analyze+0x192>
    6a8d:	39 75 e4             	cmp    %esi,-0x1c(%ebp)
    6a90:	7d 9d                	jge    6a2f <_analyze+0xfd>
    6a92:	8b 4d e4             	mov    -0x1c(%ebp),%ecx
    6a95:	8b 04 cd e0 93 00 00 	mov    0x93e0(,%ecx,8),%eax
    6a9c:	0f b6 55 eb          	movzbl -0x15(%ebp),%edx
    6aa0:	8b 4d d8             	mov    -0x28(%ebp),%ecx
    6aa3:	38 14 08             	cmp    %dl,(%eax,%ecx,1)
    6aa6:	74 87                	je     6a2f <_analyze+0xfd>
    6aa8:	8b 7d e4             	mov    -0x1c(%ebp),%edi
    6aab:	8d 3c fd e0 93 00 00 	lea    0x93e0(,%edi,8),%edi
    6ab2:	89 7d d4             	mov    %edi,-0x2c(%ebp)
    6ab5:	8b 55 e4             	mov    -0x1c(%ebp),%edx
    6ab8:	e9 6a ff ff ff       	jmp    6a27 <_analyze+0xf5>
    6abd:	c7 45 e4 00 00 00 00 	movl   $0x0,-0x1c(%ebp)
    6ac4:	8b 55 e4             	mov    -0x1c(%ebp),%edx
    6ac7:	8b 04 d5 e4 93 00 00 	mov    0x93e4(,%edx,8),%eax
    6ace:	85 c0                	test   %eax,%eax
    6ad0:	74 51                	je     6b23 <_analyze+0x1f1>
    6ad2:	89 1c 24             	mov    %ebx,(%esp)
    6ad5:	ff d0                	call   *%eax
    6ad7:	89 c3                	mov    %eax,%ebx
    6ad9:	eb 6d                	jmp    6b48 <_analyze+0x216>
    6adb:	8b 43 04             	mov    0x4(%ebx),%eax
    6ade:	89 f6                	mov    %esi,%esi
    6ae0:	e8 4d fe ff ff       	call   6932 <_analyze>
    6ae5:	c7 44 24 04 d0 cc 12 	movl   $0x12ccd0,0x4(%esp)
    6aec:	00 
    6aed:	89 04 24             	mov    %eax,(%esp)
    6af0:	e8 d4 d5 ff ff       	call   40c9 <scheme_make_pair>
    6af5:	81 fe d0 cc 12 00    	cmp    $0x12ccd0,%esi
    6afb:	74 07                	je     6b04 <_analyze+0x1d2>
    6afd:	89 47 08             	mov    %eax,0x8(%edi)
    6b00:	89 c7                	mov    %eax,%edi
    6b02:	eb 04                	jmp    6b08 <_analyze+0x1d6>
    6b04:	89 c6                	mov    %eax,%esi
    6b06:	89 c7                	mov    %eax,%edi
    6b08:	8b 5b 08             	mov    0x8(%ebx),%ebx
    6b0b:	81 fb d0 cc 12 00    	cmp    $0x12ccd0,%ebx
    6b11:	75 c8                	jne    6adb <_analyze+0x1a9>
    6b13:	66 c7 06 28 00       	movw   $0x28,(%esi)
    6b18:	89 f3                	mov    %esi,%ebx
    6b1a:	eb 2c                	jmp    6b48 <_analyze+0x216>
    6b1c:	bb c0 cc 12 00       	mov    $0x12ccc0,%ebx
    6b21:	eb 25                	jmp    6b48 <_analyze+0x216>
    6b23:	be d0 cc 12 00       	mov    $0x12ccd0,%esi
    6b28:	39 f3                	cmp    %esi,%ebx
    6b2a:	74 e7                	je     6b13 <_analyze+0x1e1>
    6b2c:	8b 45 e0             	mov    -0x20(%ebp),%eax
    6b2f:	e8 fe fd ff ff       	call   6932 <_analyze>
    6b34:	c7 44 24 04 d0 cc 12 	movl   $0x12ccd0,0x4(%esp)
    6b3b:	00 
    6b3c:	89 04 24             	mov    %eax,(%esp)
    6b3f:	e8 85 d5 ff ff       	call   40c9 <scheme_make_pair>
    6b44:	89 c6                	mov    %eax,%esi
    6b46:	eb be                	jmp    6b06 <_analyze+0x1d4>
    6b48:	89 d8                	mov    %ebx,%eax
    6b4a:	8b 5d f4             	mov    -0xc(%ebp),%ebx
    6b4d:	8b 75 f8             	mov    -0x8(%ebp),%esi
    6b50:	8b 7d fc             	mov    -0x4(%ebp),%edi
    6b53:	89 ec                	mov    %ebp,%esp
    6b55:	5d                   	pop    %ebp
    6b56:	c3                   	ret    

00006b57 <_analyze_assignment>:
    6b57:	55                   	push   %ebp
    6b58:	89 e5                	mov    %esp,%ebp
    6b5a:	53                   	push   %ebx
    6b5b:	83 ec 14             	sub    $0x14,%esp
    6b5e:	8b 45 08             	mov    0x8(%ebp),%eax
    6b61:	8b 40 08             	mov    0x8(%eax),%eax
    6b64:	8b 58 04             	mov    0x4(%eax),%ebx
    6b67:	f6 c3 01             	test   $0x1,%bl
    6b6a:	75 24                	jne    6b90 <_analyze_assignment+0x39>
    6b6c:	66 83 3b 12          	cmpw   $0x12,(%ebx)
    6b70:	75 1e                	jne    6b90 <_analyze_assignment+0x39>
    6b72:	8b 40 08             	mov    0x8(%eax),%eax
    6b75:	8b 40 04             	mov    0x4(%eax),%eax
    6b78:	e8 b5 fd ff ff       	call   6932 <_analyze>
    6b7d:	89 44 24 04          	mov    %eax,0x4(%esp)
    6b81:	89 1c 24             	mov    %ebx,(%esp)
    6b84:	e8 40 d5 ff ff       	call   40c9 <scheme_make_pair>
    6b89:	66 c7 00 20 00       	movw   $0x20,(%eax)
    6b8e:	eb 05                	jmp    6b95 <_analyze_assignment+0x3e>
    6b90:	b8 c0 cc 12 00       	mov    $0x12ccc0,%eax
    6b95:	83 c4 14             	add    $0x14,%esp
    6b98:	5b                   	pop    %ebx
    6b99:	5d                   	pop    %ebp
    6b9a:	c3                   	ret    

00006b9b <_analyze_if>:
    6b9b:	55                   	push   %ebp
    6b9c:	89 e5                	mov    %esp,%ebp
    6b9e:	83 ec 18             	sub    $0x18,%esp
    6ba1:	89 5d f4             	mov    %ebx,-0xc(%ebp)
    6ba4:	89 75 f8             	mov    %esi,-0x8(%ebp)
    6ba7:	89 7d fc             	mov    %edi,-0x4(%ebp)
    6baa:	8b 45 08             	mov    0x8(%ebp),%eax
    6bad:	8b 58 08             	mov    0x8(%eax),%ebx
    6bb0:	f6 c3 01             	test   $0x1,%bl
    6bb3:	0f 85 9a 00 00 00    	jne    6c53 <_analyze_if+0xb8>
    6bb9:	66 83 3b 14          	cmpw   $0x14,(%ebx)
    6bbd:	0f 85 90 00 00 00    	jne    6c53 <_analyze_if+0xb8>
    6bc3:	8b 43 04             	mov    0x4(%ebx),%eax
    6bc6:	e8 67 fd ff ff       	call   6932 <_analyze>
    6bcb:	89 c6                	mov    %eax,%esi
    6bcd:	8b 5b 08             	mov    0x8(%ebx),%ebx
    6bd0:	f6 c3 01             	test   $0x1,%bl
    6bd3:	75 36                	jne    6c0b <_analyze_if+0x70>
    6bd5:	66 83 3b 14          	cmpw   $0x14,(%ebx)
    6bd9:	75 30                	jne    6c0b <_analyze_if+0x70>
    6bdb:	8b 43 04             	mov    0x4(%ebx),%eax
    6bde:	e8 4f fd ff ff       	call   6932 <_analyze>
    6be3:	89 c7                	mov    %eax,%edi
    6be5:	8b 5b 08             	mov    0x8(%ebx),%ebx
    6be8:	f6 c3 01             	test   $0x1,%bl
    6beb:	75 1e                	jne    6c0b <_analyze_if+0x70>
    6bed:	66 83 3b 14          	cmpw   $0x14,(%ebx)
    6bf1:	75 18                	jne    6c0b <_analyze_if+0x70>
    6bf3:	b8 c0 cc 12 00       	mov    $0x12ccc0,%eax
    6bf8:	81 7b 08 d0 cc 12 00 	cmpl   $0x12ccd0,0x8(%ebx)
    6bff:	75 5e                	jne    6c5f <_analyze_if+0xc4>
    6c01:	8b 43 04             	mov    0x4(%ebx),%eax
    6c04:	e8 29 fd ff ff       	call   6932 <_analyze>
    6c09:	eb 12                	jmp    6c1d <_analyze_if+0x82>
    6c0b:	b8 c0 cc 12 00       	mov    $0x12ccc0,%eax
    6c10:	81 fb d0 cc 12 00    	cmp    $0x12ccd0,%ebx
    6c16:	75 47                	jne    6c5f <_analyze_if+0xc4>
    6c18:	b8 d0 cc 12 00       	mov    $0x12ccd0,%eax
    6c1d:	81 fe c0 cc 12 00    	cmp    $0x12ccc0,%esi
    6c23:	74 35                	je     6c5a <_analyze_if+0xbf>
    6c25:	81 ff c0 cc 12 00    	cmp    $0x12ccc0,%edi
    6c2b:	74 2d                	je     6c5a <_analyze_if+0xbf>
    6c2d:	3d c0 cc 12 00       	cmp    $0x12ccc0,%eax
    6c32:	74 26                	je     6c5a <_analyze_if+0xbf>
    6c34:	89 44 24 04          	mov    %eax,0x4(%esp)
    6c38:	89 3c 24             	mov    %edi,(%esp)
    6c3b:	e8 89 d4 ff ff       	call   40c9 <scheme_make_pair>
    6c40:	89 44 24 04          	mov    %eax,0x4(%esp)
    6c44:	89 34 24             	mov    %esi,(%esp)
    6c47:	e8 7d d4 ff ff       	call   40c9 <scheme_make_pair>
    6c4c:	66 c7 00 23 00       	movw   $0x23,(%eax)
    6c51:	eb 0c                	jmp    6c5f <_analyze_if+0xc4>
    6c53:	b8 c0 cc 12 00       	mov    $0x12ccc0,%eax
    6c58:	eb 05                	jmp    6c5f <_analyze_if+0xc4>
    6c5a:	b8 c0 cc 12 00       	mov    $0x12ccc0,%eax
    6c5f:	8b 5d f4             	mov    -0xc(%ebp),%ebx
    6c62:	8b 75 f8             	mov    -0x8(%ebp),%esi
    6c65:	8b 7d fc             	mov    -0x4(%ebp),%edi
    6c68:	89 ec                	mov    %ebp,%esp
    6c6a:	5d                   	pop    %ebp
    6c6b:	c3                   	ret    

00006c6c <scheme_eval>:
    6c6c:	55                   	push   %ebp
    6c6d:	89 e5                	mov    %esp,%ebp
    6c6f:	83 ec 08             	sub    $0x8,%esp
    6c72:	8b 55 08             	mov    0x8(%ebp),%edx
    6c75:	b8 d0 cc 12 00       	mov    $0x12ccd0,%eax
    6c7a:	39 c2                	cmp    %eax,%edx
    6c7c:	74 46                	je     6cc4 <scheme_eval+0x58>
    6c7e:	89 d0                	mov    %edx,%eax
    6c80:	e8 ad fc ff ff       	call   6932 <_analyze>
    6c85:	89 c2                	mov    %eax,%edx
    6c87:	b8 ec ff ff ff       	mov    $0xffffffec,%eax
    6c8c:	f6 c2 01             	test   $0x1,%dl
    6c8f:	75 17                	jne    6ca8 <scheme_eval+0x3c>
    6c91:	0f bf 02             	movswl (%edx),%eax
    6c94:	66 83 f8 1d          	cmp    $0x1d,%ax
    6c98:	74 06                	je     6ca0 <scheme_eval+0x34>
    6c9a:	66 83 f8 1e          	cmp    $0x1e,%ax
    6c9e:	75 05                	jne    6ca5 <scheme_eval+0x39>
    6ca0:	8b 42 04             	mov    0x4(%edx),%eax
    6ca3:	eb 1f                	jmp    6cc4 <scheme_eval+0x58>
    6ca5:	83 e8 1c             	sub    $0x1c,%eax
    6ca8:	8b 0c 85 00 89 00 00 	mov    0x8900(,%eax,4),%ecx
    6caf:	b8 c0 cc 12 00       	mov    $0x12ccc0,%eax
    6cb4:	85 c9                	test   %ecx,%ecx
    6cb6:	74 0c                	je     6cc4 <scheme_eval+0x58>
    6cb8:	8b 45 0c             	mov    0xc(%ebp),%eax
    6cbb:	89 44 24 04          	mov    %eax,0x4(%esp)
    6cbf:	89 14 24             	mov    %edx,(%esp)
    6cc2:	ff d1                	call   *%ecx
    6cc4:	c9                   	leave  
    6cc5:	c3                   	ret    

00006cc6 <_eval_lambda>:
    6cc6:	55                   	push   %ebp
    6cc7:	89 e5                	mov    %esp,%ebp
    6cc9:	83 ec 18             	sub    $0x18,%esp
    6ccc:	8b 55 08             	mov    0x8(%ebp),%edx
    6ccf:	8b 45 0c             	mov    0xc(%ebp),%eax
    6cd2:	89 44 24 08          	mov    %eax,0x8(%esp)
    6cd6:	8b 42 08             	mov    0x8(%edx),%eax
    6cd9:	89 44 24 04          	mov    %eax,0x4(%esp)
    6cdd:	8b 42 04             	mov    0x4(%edx),%eax
    6ce0:	89 04 24             	mov    %eax,(%esp)
    6ce3:	e8 86 fa ff ff       	call   676e <scheme_make_procedure>
    6ce8:	c9                   	leave  
    6ce9:	c3                   	ret    

00006cea <_eval_defun>:
    6cea:	55                   	push   %ebp
    6ceb:	89 e5                	mov    %esp,%ebp
    6ced:	83 ec 18             	sub    $0x18,%esp
    6cf0:	89 5d f8             	mov    %ebx,-0x8(%ebp)
    6cf3:	89 75 fc             	mov    %esi,-0x4(%ebp)
    6cf6:	8b 75 08             	mov    0x8(%ebp),%esi
    6cf9:	8b 5d 0c             	mov    0xc(%ebp),%ebx
    6cfc:	8b 56 08             	mov    0x8(%esi),%edx
    6cff:	89 5c 24 08          	mov    %ebx,0x8(%esp)
    6d03:	8b 42 08             	mov    0x8(%edx),%eax
    6d06:	89 44 24 04          	mov    %eax,0x4(%esp)
    6d0a:	8b 42 04             	mov    0x4(%edx),%eax
    6d0d:	89 04 24             	mov    %eax,(%esp)
    6d10:	e8 59 fa ff ff       	call   676e <scheme_make_procedure>
    6d15:	89 5c 24 08          	mov    %ebx,0x8(%esp)
    6d19:	89 44 24 04          	mov    %eax,0x4(%esp)
    6d1d:	8b 46 04             	mov    0x4(%esi),%eax
    6d20:	89 04 24             	mov    %eax,(%esp)
    6d23:	e8 7e f3 ff ff       	call   60a6 <scheme_define_var>
    6d28:	8b 5d f8             	mov    -0x8(%ebp),%ebx
    6d2b:	8b 75 fc             	mov    -0x4(%ebp),%esi
    6d2e:	89 ec                	mov    %ebp,%esp
    6d30:	5d                   	pop    %ebp
    6d31:	c3                   	ret    

00006d32 <_eval_variable>:
    6d32:	55                   	push   %ebp
    6d33:	89 e5                	mov    %esp,%ebp
    6d35:	83 ec 08             	sub    $0x8,%esp
    6d38:	8b 45 0c             	mov    0xc(%ebp),%eax
    6d3b:	89 44 24 04          	mov    %eax,0x4(%esp)
    6d3f:	8b 45 08             	mov    0x8(%ebp),%eax
    6d42:	8b 40 04             	mov    0x4(%eax),%eax
    6d45:	89 04 24             	mov    %eax,(%esp)
    6d48:	e8 a3 f2 ff ff       	call   5ff0 <scheme_lookup_var>
    6d4d:	c9                   	leave  
    6d4e:	c3                   	ret    

00006d4f <_analyze_definition>:
    6d4f:	55                   	push   %ebp
    6d50:	89 e5                	mov    %esp,%ebp
    6d52:	57                   	push   %edi
    6d53:	56                   	push   %esi
    6d54:	53                   	push   %ebx
    6d55:	83 ec 1c             	sub    $0x1c,%esp
    6d58:	8b 45 08             	mov    0x8(%ebp),%eax
    6d5b:	8b 40 08             	mov    0x8(%eax),%eax
    6d5e:	8b 50 04             	mov    0x4(%eax),%edx
    6d61:	89 55 ec             	mov    %edx,-0x14(%ebp)
    6d64:	f6 c2 01             	test   $0x1,%dl
    6d67:	0f 85 cd 00 00 00    	jne    6e3a <_analyze_definition+0xeb>
    6d6d:	0f bf 12             	movswl (%edx),%edx
    6d70:	66 83 fa 12          	cmp    $0x12,%dx
    6d74:	75 24                	jne    6d9a <_analyze_definition+0x4b>
    6d76:	8b 40 08             	mov    0x8(%eax),%eax
    6d79:	8b 40 04             	mov    0x4(%eax),%eax
    6d7c:	e8 b1 fb ff ff       	call   6932 <_analyze>
    6d81:	89 44 24 04          	mov    %eax,0x4(%esp)
    6d85:	8b 4d ec             	mov    -0x14(%ebp),%ecx
    6d88:	89 0c 24             	mov    %ecx,(%esp)
    6d8b:	e8 39 d3 ff ff       	call   40c9 <scheme_make_pair>
    6d90:	66 c7 00 21 00       	movw   $0x21,(%eax)
    6d95:	e9 a0 00 00 00       	jmp    6e3a <_analyze_definition+0xeb>
    6d9a:	66 83 fa 14          	cmp    $0x14,%dx
    6d9e:	0f 85 96 00 00 00    	jne    6e3a <_analyze_definition+0xeb>
    6da4:	8b 55 ec             	mov    -0x14(%ebp),%edx
    6da7:	8b 52 04             	mov    0x4(%edx),%edx
    6daa:	89 55 f0             	mov    %edx,-0x10(%ebp)
    6dad:	8b 58 08             	mov    0x8(%eax),%ebx
    6db0:	bf d0 cc 12 00       	mov    $0x12ccd0,%edi
    6db5:	39 fb                	cmp    %edi,%ebx
    6db7:	74 38                	je     6df1 <_analyze_definition+0xa2>
    6db9:	eb 63                	jmp    6e1e <_analyze_definition+0xcf>
    6dbb:	8b 43 04             	mov    0x4(%ebx),%eax
    6dbe:	e8 6f fb ff ff       	call   6932 <_analyze>
    6dc3:	c7 44 24 04 d0 cc 12 	movl   $0x12ccd0,0x4(%esp)
    6dca:	00 
    6dcb:	89 04 24             	mov    %eax,(%esp)
    6dce:	e8 f6 d2 ff ff       	call   40c9 <scheme_make_pair>
    6dd3:	81 ff d0 cc 12 00    	cmp    $0x12ccd0,%edi
    6dd9:	74 07                	je     6de2 <_analyze_definition+0x93>
    6ddb:	89 46 08             	mov    %eax,0x8(%esi)
    6dde:	89 c6                	mov    %eax,%esi
    6de0:	eb 04                	jmp    6de6 <_analyze_definition+0x97>
    6de2:	89 c7                	mov    %eax,%edi
    6de4:	89 c6                	mov    %eax,%esi
    6de6:	8b 5b 08             	mov    0x8(%ebx),%ebx
    6de9:	81 fb d0 cc 12 00    	cmp    $0x12ccd0,%ebx
    6def:	75 ca                	jne    6dbb <_analyze_definition+0x6c>
    6df1:	66 c7 07 26 00       	movw   $0x26,(%edi)
    6df6:	89 7c 24 04          	mov    %edi,0x4(%esp)
    6dfa:	8b 4d ec             	mov    -0x14(%ebp),%ecx
    6dfd:	8b 41 08             	mov    0x8(%ecx),%eax
    6e00:	89 04 24             	mov    %eax,(%esp)
    6e03:	e8 c1 d2 ff ff       	call   40c9 <scheme_make_pair>
    6e08:	89 44 24 04          	mov    %eax,0x4(%esp)
    6e0c:	8b 45 f0             	mov    -0x10(%ebp),%eax
    6e0f:	89 04 24             	mov    %eax,(%esp)
    6e12:	e8 b2 d2 ff ff       	call   40c9 <scheme_make_pair>
    6e17:	66 c7 00 22 00       	movw   $0x22,(%eax)
    6e1c:	eb 1c                	jmp    6e3a <_analyze_definition+0xeb>
    6e1e:	8b 43 04             	mov    0x4(%ebx),%eax
    6e21:	e8 0c fb ff ff       	call   6932 <_analyze>
    6e26:	c7 44 24 04 d0 cc 12 	movl   $0x12ccd0,0x4(%esp)
    6e2d:	00 
    6e2e:	89 04 24             	mov    %eax,(%esp)
    6e31:	e8 93 d2 ff ff       	call   40c9 <scheme_make_pair>
    6e36:	89 c7                	mov    %eax,%edi
    6e38:	eb aa                	jmp    6de4 <_analyze_definition+0x95>
    6e3a:	83 c4 1c             	add    $0x1c,%esp
    6e3d:	5b                   	pop    %ebx
    6e3e:	5e                   	pop    %esi
    6e3f:	5f                   	pop    %edi
    6e40:	5d                   	pop    %ebp
    6e41:	c3                   	ret    

00006e42 <_analyze_cond>:
    6e42:	55                   	push   %ebp
    6e43:	89 e5                	mov    %esp,%ebp
    6e45:	57                   	push   %edi
    6e46:	56                   	push   %esi
    6e47:	53                   	push   %ebx
    6e48:	83 ec 1c             	sub    $0x1c,%esp
    6e4b:	8b 45 08             	mov    0x8(%ebp),%eax
    6e4e:	8b 40 08             	mov    0x8(%eax),%eax
    6e51:	89 45 f0             	mov    %eax,-0x10(%ebp)
    6e54:	c7 45 e4 d0 cc 12 00 	movl   $0x12ccd0,-0x1c(%ebp)
    6e5b:	3d d0 cc 12 00       	cmp    $0x12ccd0,%eax
    6e60:	0f 84 d3 00 00 00    	je     6f39 <_analyze_cond+0xf7>
    6e66:	c7 45 e4 d0 cc 12 00 	movl   $0x12ccd0,-0x1c(%ebp)
    6e6d:	c7 45 ec d0 cc 12 00 	movl   $0x12ccd0,-0x14(%ebp)
    6e74:	8b 45 f0             	mov    -0x10(%ebp),%eax
    6e77:	8b 58 04             	mov    0x4(%eax),%ebx
    6e7a:	8b 43 04             	mov    0x4(%ebx),%eax
    6e7d:	e8 b0 fa ff ff       	call   6932 <_analyze>
    6e82:	89 45 e8             	mov    %eax,-0x18(%ebp)
    6e85:	8b 5b 08             	mov    0x8(%ebx),%ebx
    6e88:	bf d0 cc 12 00       	mov    $0x12ccd0,%edi
    6e8d:	39 fb                	cmp    %edi,%ebx
    6e8f:	74 3b                	je     6ecc <_analyze_cond+0x8a>
    6e91:	e9 87 00 00 00       	jmp    6f1d <_analyze_cond+0xdb>
    6e96:	8b 43 04             	mov    0x4(%ebx),%eax
    6e99:	e8 94 fa ff ff       	call   6932 <_analyze>
    6e9e:	c7 44 24 04 d0 cc 12 	movl   $0x12ccd0,0x4(%esp)
    6ea5:	00 
    6ea6:	89 04 24             	mov    %eax,(%esp)
    6ea9:	e8 1b d2 ff ff       	call   40c9 <scheme_make_pair>
    6eae:	81 ff d0 cc 12 00    	cmp    $0x12ccd0,%edi
    6eb4:	74 07                	je     6ebd <_analyze_cond+0x7b>
    6eb6:	89 46 08             	mov    %eax,0x8(%esi)
    6eb9:	89 c6                	mov    %eax,%esi
    6ebb:	eb 04                	jmp    6ec1 <_analyze_cond+0x7f>
    6ebd:	89 c7                	mov    %eax,%edi
    6ebf:	89 c6                	mov    %eax,%esi
    6ec1:	8b 5b 08             	mov    0x8(%ebx),%ebx
    6ec4:	81 fb d0 cc 12 00    	cmp    $0x12ccd0,%ebx
    6eca:	75 ca                	jne    6e96 <_analyze_cond+0x54>
    6ecc:	66 c7 07 26 00       	movw   $0x26,(%edi)
    6ed1:	89 7c 24 04          	mov    %edi,0x4(%esp)
    6ed5:	8b 55 e8             	mov    -0x18(%ebp),%edx
    6ed8:	89 14 24             	mov    %edx,(%esp)
    6edb:	e8 e9 d1 ff ff       	call   40c9 <scheme_make_pair>
    6ee0:	c7 44 24 04 d0 cc 12 	movl   $0x12ccd0,0x4(%esp)
    6ee7:	00 
    6ee8:	89 04 24             	mov    %eax,(%esp)
    6eeb:	e8 d9 d1 ff ff       	call   40c9 <scheme_make_pair>
    6ef0:	81 7d e4 d0 cc 12 00 	cmpl   $0x12ccd0,-0x1c(%ebp)
    6ef7:	75 05                	jne    6efe <_analyze_cond+0xbc>
    6ef9:	89 45 e4             	mov    %eax,-0x1c(%ebp)
    6efc:	eb 06                	jmp    6f04 <_analyze_cond+0xc2>
    6efe:	8b 55 ec             	mov    -0x14(%ebp),%edx
    6f01:	89 42 08             	mov    %eax,0x8(%edx)
    6f04:	8b 55 f0             	mov    -0x10(%ebp),%edx
    6f07:	8b 52 08             	mov    0x8(%edx),%edx
    6f0a:	89 55 f0             	mov    %edx,-0x10(%ebp)
    6f0d:	89 45 ec             	mov    %eax,-0x14(%ebp)
    6f10:	81 fa d0 cc 12 00    	cmp    $0x12ccd0,%edx
    6f16:	74 21                	je     6f39 <_analyze_cond+0xf7>
    6f18:	e9 57 ff ff ff       	jmp    6e74 <_analyze_cond+0x32>
    6f1d:	8b 43 04             	mov    0x4(%ebx),%eax
    6f20:	e8 0d fa ff ff       	call   6932 <_analyze>
    6f25:	c7 44 24 04 d0 cc 12 	movl   $0x12ccd0,0x4(%esp)
    6f2c:	00 
    6f2d:	89 04 24             	mov    %eax,(%esp)
    6f30:	e8 94 d1 ff ff       	call   40c9 <scheme_make_pair>
    6f35:	89 c7                	mov    %eax,%edi
    6f37:	eb 86                	jmp    6ebf <_analyze_cond+0x7d>
    6f39:	8b 45 e4             	mov    -0x1c(%ebp),%eax
    6f3c:	66 c7 00 27 00       	movw   $0x27,(%eax)
    6f41:	8b 45 e4             	mov    -0x1c(%ebp),%eax
    6f44:	83 c4 1c             	add    $0x1c,%esp
    6f47:	5b                   	pop    %ebx
    6f48:	5e                   	pop    %esi
    6f49:	5f                   	pop    %edi
    6f4a:	5d                   	pop    %ebp
    6f4b:	c3                   	ret    

00006f4c <_analyze_begin>:
    6f4c:	55                   	push   %ebp
    6f4d:	89 e5                	mov    %esp,%ebp
    6f4f:	57                   	push   %edi
    6f50:	56                   	push   %esi
    6f51:	53                   	push   %ebx
    6f52:	83 ec 0c             	sub    $0xc,%esp
    6f55:	8b 45 08             	mov    0x8(%ebp),%eax
    6f58:	8b 58 08             	mov    0x8(%eax),%ebx
    6f5b:	bf d0 cc 12 00       	mov    $0x12ccd0,%edi
    6f60:	39 fb                	cmp    %edi,%ebx
    6f62:	74 56                	je     6fba <_analyze_begin+0x6e>
    6f64:	eb 38                	jmp    6f9e <_analyze_begin+0x52>
    6f66:	8b 43 04             	mov    0x4(%ebx),%eax
    6f69:	e8 c4 f9 ff ff       	call   6932 <_analyze>
    6f6e:	c7 44 24 04 d0 cc 12 	movl   $0x12ccd0,0x4(%esp)
    6f75:	00 
    6f76:	89 04 24             	mov    %eax,(%esp)
    6f79:	e8 4b d1 ff ff       	call   40c9 <scheme_make_pair>
    6f7e:	81 ff d0 cc 12 00    	cmp    $0x12ccd0,%edi
    6f84:	74 07                	je     6f8d <_analyze_begin+0x41>
    6f86:	89 46 08             	mov    %eax,0x8(%esi)
    6f89:	89 c6                	mov    %eax,%esi
    6f8b:	eb 04                	jmp    6f91 <_analyze_begin+0x45>
    6f8d:	89 c7                	mov    %eax,%edi
    6f8f:	89 c6                	mov    %eax,%esi
    6f91:	8b 5b 08             	mov    0x8(%ebx),%ebx
    6f94:	81 fb d0 cc 12 00    	cmp    $0x12ccd0,%ebx
    6f9a:	75 ca                	jne    6f66 <_analyze_begin+0x1a>
    6f9c:	eb 1c                	jmp    6fba <_analyze_begin+0x6e>
    6f9e:	8b 43 04             	mov    0x4(%ebx),%eax
    6fa1:	e8 8c f9 ff ff       	call   6932 <_analyze>
    6fa6:	c7 44 24 04 d0 cc 12 	movl   $0x12ccd0,0x4(%esp)
    6fad:	00 
    6fae:	89 04 24             	mov    %eax,(%esp)
    6fb1:	e8 13 d1 ff ff       	call   40c9 <scheme_make_pair>
    6fb6:	89 c7                	mov    %eax,%edi
    6fb8:	eb d5                	jmp    6f8f <_analyze_begin+0x43>
    6fba:	66 c7 07 25 00       	movw   $0x25,(%edi)
    6fbf:	89 f8                	mov    %edi,%eax
    6fc1:	83 c4 0c             	add    $0xc,%esp
    6fc4:	5b                   	pop    %ebx
    6fc5:	5e                   	pop    %esi
    6fc6:	5f                   	pop    %edi
    6fc7:	5d                   	pop    %ebp
    6fc8:	c3                   	ret    

00006fc9 <_analyze_and>:
    6fc9:	55                   	push   %ebp
    6fca:	89 e5                	mov    %esp,%ebp
    6fcc:	57                   	push   %edi
    6fcd:	56                   	push   %esi
    6fce:	53                   	push   %ebx
    6fcf:	83 ec 0c             	sub    $0xc,%esp
    6fd2:	8b 45 08             	mov    0x8(%ebp),%eax
    6fd5:	8b 58 08             	mov    0x8(%eax),%ebx
    6fd8:	bf d0 cc 12 00       	mov    $0x12ccd0,%edi
    6fdd:	39 fb                	cmp    %edi,%ebx
    6fdf:	74 56                	je     7037 <_analyze_and+0x6e>
    6fe1:	eb 38                	jmp    701b <_analyze_and+0x52>
    6fe3:	8b 43 04             	mov    0x4(%ebx),%eax
    6fe6:	e8 47 f9 ff ff       	call   6932 <_analyze>
    6feb:	c7 44 24 04 d0 cc 12 	movl   $0x12ccd0,0x4(%esp)
    6ff2:	00 
    6ff3:	89 04 24             	mov    %eax,(%esp)
    6ff6:	e8 ce d0 ff ff       	call   40c9 <scheme_make_pair>
    6ffb:	81 ff d0 cc 12 00    	cmp    $0x12ccd0,%edi
    7001:	74 07                	je     700a <_analyze_and+0x41>
    7003:	89 46 08             	mov    %eax,0x8(%esi)
    7006:	89 c6                	mov    %eax,%esi
    7008:	eb 04                	jmp    700e <_analyze_and+0x45>
    700a:	89 c7                	mov    %eax,%edi
    700c:	89 c6                	mov    %eax,%esi
    700e:	8b 5b 08             	mov    0x8(%ebx),%ebx
    7011:	81 fb d0 cc 12 00    	cmp    $0x12ccd0,%ebx
    7017:	75 ca                	jne    6fe3 <_analyze_and+0x1a>
    7019:	eb 1c                	jmp    7037 <_analyze_and+0x6e>
    701b:	8b 43 04             	mov    0x4(%ebx),%eax
    701e:	e8 0f f9 ff ff       	call   6932 <_analyze>
    7023:	c7 44 24 04 d0 cc 12 	movl   $0x12ccd0,0x4(%esp)
    702a:	00 
    702b:	89 04 24             	mov    %eax,(%esp)
    702e:	e8 96 d0 ff ff       	call   40c9 <scheme_make_pair>
    7033:	89 c7                	mov    %eax,%edi
    7035:	eb d5                	jmp    700c <_analyze_and+0x43>
    7037:	66 c7 07 29 00       	movw   $0x29,(%edi)
    703c:	89 f8                	mov    %edi,%eax
    703e:	83 c4 0c             	add    $0xc,%esp
    7041:	5b                   	pop    %ebx
    7042:	5e                   	pop    %esi
    7043:	5f                   	pop    %edi
    7044:	5d                   	pop    %ebp
    7045:	c3                   	ret    

00007046 <_analyze_or>:
    7046:	55                   	push   %ebp
    7047:	89 e5                	mov    %esp,%ebp
    7049:	57                   	push   %edi
    704a:	56                   	push   %esi
    704b:	53                   	push   %ebx
    704c:	83 ec 0c             	sub    $0xc,%esp
    704f:	8b 45 08             	mov    0x8(%ebp),%eax
    7052:	8b 58 08             	mov    0x8(%eax),%ebx
    7055:	bf d0 cc 12 00       	mov    $0x12ccd0,%edi
    705a:	39 fb                	cmp    %edi,%ebx
    705c:	74 56                	je     70b4 <_analyze_or+0x6e>
    705e:	eb 38                	jmp    7098 <_analyze_or+0x52>
    7060:	8b 43 04             	mov    0x4(%ebx),%eax
    7063:	e8 ca f8 ff ff       	call   6932 <_analyze>
    7068:	c7 44 24 04 d0 cc 12 	movl   $0x12ccd0,0x4(%esp)
    706f:	00 
    7070:	89 04 24             	mov    %eax,(%esp)
    7073:	e8 51 d0 ff ff       	call   40c9 <scheme_make_pair>
    7078:	81 ff d0 cc 12 00    	cmp    $0x12ccd0,%edi
    707e:	74 07                	je     7087 <_analyze_or+0x41>
    7080:	89 46 08             	mov    %eax,0x8(%esi)
    7083:	89 c6                	mov    %eax,%esi
    7085:	eb 04                	jmp    708b <_analyze_or+0x45>
    7087:	89 c7                	mov    %eax,%edi
    7089:	89 c6                	mov    %eax,%esi
    708b:	8b 5b 08             	mov    0x8(%ebx),%ebx
    708e:	81 fb d0 cc 12 00    	cmp    $0x12ccd0,%ebx
    7094:	75 ca                	jne    7060 <_analyze_or+0x1a>
    7096:	eb 1c                	jmp    70b4 <_analyze_or+0x6e>
    7098:	8b 43 04             	mov    0x4(%ebx),%eax
    709b:	e8 92 f8 ff ff       	call   6932 <_analyze>
    70a0:	c7 44 24 04 d0 cc 12 	movl   $0x12ccd0,0x4(%esp)
    70a7:	00 
    70a8:	89 04 24             	mov    %eax,(%esp)
    70ab:	e8 19 d0 ff ff       	call   40c9 <scheme_make_pair>
    70b0:	89 c7                	mov    %eax,%edi
    70b2:	eb d5                	jmp    7089 <_analyze_or+0x43>
    70b4:	66 c7 07 2a 00       	movw   $0x2a,(%edi)
    70b9:	89 f8                	mov    %edi,%eax
    70bb:	83 c4 0c             	add    $0xc,%esp
    70be:	5b                   	pop    %ebx
    70bf:	5e                   	pop    %esi
    70c0:	5f                   	pop    %edi
    70c1:	5d                   	pop    %ebp
    70c2:	c3                   	ret    

000070c3 <_analyze_lambda>:
    70c3:	55                   	push   %ebp
    70c4:	89 e5                	mov    %esp,%ebp
    70c6:	57                   	push   %edi
    70c7:	56                   	push   %esi
    70c8:	53                   	push   %ebx
    70c9:	83 ec 0c             	sub    $0xc,%esp
    70cc:	8b 45 08             	mov    0x8(%ebp),%eax
    70cf:	8b 40 08             	mov    0x8(%eax),%eax
    70d2:	8b 50 04             	mov    0x4(%eax),%edx
    70d5:	89 55 f0             	mov    %edx,-0x10(%ebp)
    70d8:	8b 58 08             	mov    0x8(%eax),%ebx
    70db:	bf d0 cc 12 00       	mov    $0x12ccd0,%edi
    70e0:	39 fb                	cmp    %edi,%ebx
    70e2:	74 56                	je     713a <_analyze_lambda+0x77>
    70e4:	eb 38                	jmp    711e <_analyze_lambda+0x5b>
    70e6:	8b 43 04             	mov    0x4(%ebx),%eax
    70e9:	e8 44 f8 ff ff       	call   6932 <_analyze>
    70ee:	c7 44 24 04 d0 cc 12 	movl   $0x12ccd0,0x4(%esp)
    70f5:	00 
    70f6:	89 04 24             	mov    %eax,(%esp)
    70f9:	e8 cb cf ff ff       	call   40c9 <scheme_make_pair>
    70fe:	81 ff d0 cc 12 00    	cmp    $0x12ccd0,%edi
    7104:	74 07                	je     710d <_analyze_lambda+0x4a>
    7106:	89 46 08             	mov    %eax,0x8(%esi)
    7109:	89 c6                	mov    %eax,%esi
    710b:	eb 04                	jmp    7111 <_analyze_lambda+0x4e>
    710d:	89 c7                	mov    %eax,%edi
    710f:	89 c6                	mov    %eax,%esi
    7111:	8b 5b 08             	mov    0x8(%ebx),%ebx
    7114:	81 fb d0 cc 12 00    	cmp    $0x12ccd0,%ebx
    711a:	75 ca                	jne    70e6 <_analyze_lambda+0x23>
    711c:	eb 1c                	jmp    713a <_analyze_lambda+0x77>
    711e:	8b 43 04             	mov    0x4(%ebx),%eax
    7121:	e8 0c f8 ff ff       	call   6932 <_analyze>
    7126:	c7 44 24 04 d0 cc 12 	movl   $0x12ccd0,0x4(%esp)
    712d:	00 
    712e:	89 04 24             	mov    %eax,(%esp)
    7131:	e8 93 cf ff ff       	call   40c9 <scheme_make_pair>
    7136:	89 c7                	mov    %eax,%edi
    7138:	eb d5                	jmp    710f <_analyze_lambda+0x4c>
    713a:	66 c7 07 26 00       	movw   $0x26,(%edi)
    713f:	89 7c 24 04          	mov    %edi,0x4(%esp)
    7143:	8b 45 f0             	mov    -0x10(%ebp),%eax
    7146:	89 04 24             	mov    %eax,(%esp)
    7149:	e8 7b cf ff ff       	call   40c9 <scheme_make_pair>
    714e:	66 c7 00 24 00       	movw   $0x24,(%eax)
    7153:	83 c4 0c             	add    $0xc,%esp
    7156:	5b                   	pop    %ebx
    7157:	5e                   	pop    %esi
    7158:	5f                   	pop    %edi
    7159:	5d                   	pop    %ebp
    715a:	c3                   	ret    

0000715b <_eval_and>:
    715b:	55                   	push   %ebp
    715c:	89 e5                	mov    %esp,%ebp
    715e:	56                   	push   %esi
    715f:	53                   	push   %ebx
    7160:	83 ec 10             	sub    $0x10,%esp
    7163:	8b 5d 08             	mov    0x8(%ebp),%ebx
    7166:	8b 75 0c             	mov    0xc(%ebp),%esi
    7169:	81 fb d0 cc 12 00    	cmp    $0x12ccd0,%ebx
    716f:	74 69                	je     71da <_eval_and+0x7f>
    7171:	8b 43 04             	mov    0x4(%ebx),%eax
    7174:	ba d0 cc 12 00       	mov    $0x12ccd0,%edx
    7179:	39 d0                	cmp    %edx,%eax
    717b:	74 43                	je     71c0 <_eval_and+0x65>
    717d:	e8 b0 f7 ff ff       	call   6932 <_analyze>
    7182:	ba ec ff ff ff       	mov    $0xffffffec,%edx
    7187:	a8 01                	test   $0x1,%al
    7189:	75 1a                	jne    71a5 <_eval_and+0x4a>
    718b:	0f bf 10             	movswl (%eax),%edx
    718e:	66 83 fa 1d          	cmp    $0x1d,%dx
    7192:	74 06                	je     719a <_eval_and+0x3f>
    7194:	66 83 fa 1e          	cmp    $0x1e,%dx
    7198:	75 08                	jne    71a2 <_eval_and+0x47>
    719a:	8b 50 04             	mov    0x4(%eax),%edx
    719d:	8d 76 00             	lea    0x0(%esi),%esi
    71a0:	eb 1e                	jmp    71c0 <_eval_and+0x65>
    71a2:	83 ea 1c             	sub    $0x1c,%edx
    71a5:	8b 0c 95 00 89 00 00 	mov    0x8900(,%edx,4),%ecx
    71ac:	ba c0 cc 12 00       	mov    $0x12ccc0,%edx
    71b1:	85 c9                	test   %ecx,%ecx
    71b3:	74 0b                	je     71c0 <_eval_and+0x65>
    71b5:	89 74 24 04          	mov    %esi,0x4(%esp)
    71b9:	89 04 24             	mov    %eax,(%esp)
    71bc:	ff d1                	call   *%ecx
    71be:	89 c2                	mov    %eax,%edx
    71c0:	81 fa 00 cd 12 00    	cmp    $0x12cd00,%edx
    71c6:	75 07                	jne    71cf <_eval_and+0x74>
    71c8:	b8 00 cd 12 00       	mov    $0x12cd00,%eax
    71cd:	eb 10                	jmp    71df <_eval_and+0x84>
    71cf:	8b 5b 08             	mov    0x8(%ebx),%ebx
    71d2:	81 fb d0 cc 12 00    	cmp    $0x12ccd0,%ebx
    71d8:	75 97                	jne    7171 <_eval_and+0x16>
    71da:	b8 14 cd 12 00       	mov    $0x12cd14,%eax
    71df:	83 c4 10             	add    $0x10,%esp
    71e2:	5b                   	pop    %ebx
    71e3:	5e                   	pop    %esi
    71e4:	5d                   	pop    %ebp
    71e5:	c3                   	ret    

000071e6 <_eval_application>:
    71e6:	55                   	push   %ebp
    71e7:	89 e5                	mov    %esp,%ebp
    71e9:	57                   	push   %edi
    71ea:	56                   	push   %esi
    71eb:	53                   	push   %ebx
    71ec:	83 ec 0c             	sub    $0xc,%esp
    71ef:	8b 5d 08             	mov    0x8(%ebp),%ebx
    71f2:	8b 43 04             	mov    0x4(%ebx),%eax
    71f5:	bf d0 cc 12 00       	mov    $0x12ccd0,%edi
    71fa:	39 f8                	cmp    %edi,%eax
    71fc:	74 40                	je     723e <_eval_application+0x58>
    71fe:	e8 2f f7 ff ff       	call   6932 <_analyze>
    7203:	ba ec ff ff ff       	mov    $0xffffffec,%edx
    7208:	a8 01                	test   $0x1,%al
    720a:	75 19                	jne    7225 <_eval_application+0x3f>
    720c:	0f bf 10             	movswl (%eax),%edx
    720f:	66 83 fa 1d          	cmp    $0x1d,%dx
    7213:	74 06                	je     721b <_eval_application+0x35>
    7215:	66 83 fa 1e          	cmp    $0x1e,%dx
    7219:	75 07                	jne    7222 <_eval_application+0x3c>
    721b:	8b 78 04             	mov    0x4(%eax),%edi
    721e:	89 f6                	mov    %esi,%esi
    7220:	eb 1c                	jmp    723e <_eval_application+0x58>
    7222:	83 ea 1c             	sub    $0x1c,%edx
    7225:	8b 14 95 00 89 00 00 	mov    0x8900(,%edx,4),%edx
    722c:	85 d2                	test   %edx,%edx
    722e:	74 16                	je     7246 <_eval_application+0x60>
    7230:	8b 4d 0c             	mov    0xc(%ebp),%ecx
    7233:	89 4c 24 04          	mov    %ecx,0x4(%esp)
    7237:	89 04 24             	mov    %eax,(%esp)
    723a:	ff d2                	call   *%edx
    723c:	89 c7                	mov    %eax,%edi
    723e:	81 ff c0 cc 12 00    	cmp    $0x12ccc0,%edi
    7244:	75 16                	jne    725c <_eval_application+0x76>
    7246:	c7 04 24 48 8d 00 00 	movl   $0x8d48,(%esp)
    724d:	e8 72 0c 00 00       	call   7ec4 <printf>
    7252:	b8 c0 cc 12 00       	mov    $0x12ccc0,%eax
    7257:	e9 a8 00 00 00       	jmp    7304 <_eval_application+0x11e>
    725c:	8b 5b 08             	mov    0x8(%ebx),%ebx
    725f:	c7 45 f0 d0 cc 12 00 	movl   $0x12ccd0,-0x10(%ebp)
    7266:	81 fb d0 cc 12 00    	cmp    $0x12ccd0,%ebx
    726c:	0f 84 83 00 00 00    	je     72f5 <_eval_application+0x10f>
    7272:	be d0 cc 12 00       	mov    $0x12ccd0,%esi
    7277:	8b 43 04             	mov    0x4(%ebx),%eax
    727a:	ba d0 cc 12 00       	mov    $0x12ccd0,%edx
    727f:	39 d0                	cmp    %edx,%eax
    7281:	74 43                	je     72c6 <_eval_application+0xe0>
    7283:	e8 aa f6 ff ff       	call   6932 <_analyze>
    7288:	ba ec ff ff ff       	mov    $0xffffffec,%edx
    728d:	a8 01                	test   $0x1,%al
    728f:	75 17                	jne    72a8 <_eval_application+0xc2>
    7291:	0f bf 10             	movswl (%eax),%edx
    7294:	66 83 fa 1d          	cmp    $0x1d,%dx
    7298:	74 06                	je     72a0 <_eval_application+0xba>
    729a:	66 83 fa 1e          	cmp    $0x1e,%dx
    729e:	75 05                	jne    72a5 <_eval_application+0xbf>
    72a0:	8b 50 04             	mov    0x4(%eax),%edx
    72a3:	eb 21                	jmp    72c6 <_eval_application+0xe0>
    72a5:	83 ea 1c             	sub    $0x1c,%edx
    72a8:	8b 0c 95 00 89 00 00 	mov    0x8900(,%edx,4),%ecx
    72af:	ba c0 cc 12 00       	mov    $0x12ccc0,%edx
    72b4:	85 c9                	test   %ecx,%ecx
    72b6:	74 0e                	je     72c6 <_eval_application+0xe0>
    72b8:	8b 55 0c             	mov    0xc(%ebp),%edx
    72bb:	89 54 24 04          	mov    %edx,0x4(%esp)
    72bf:	89 04 24             	mov    %eax,(%esp)
    72c2:	ff d1                	call   *%ecx
    72c4:	89 c2                	mov    %eax,%edx
    72c6:	c7 44 24 04 d0 cc 12 	movl   $0x12ccd0,0x4(%esp)
    72cd:	00 
    72ce:	89 14 24             	mov    %edx,(%esp)
    72d1:	e8 f3 cd ff ff       	call   40c9 <scheme_make_pair>
    72d6:	81 fe d0 cc 12 00    	cmp    $0x12ccd0,%esi
    72dc:	75 05                	jne    72e3 <_eval_application+0xfd>
    72de:	89 45 f0             	mov    %eax,-0x10(%ebp)
    72e1:	eb 03                	jmp    72e6 <_eval_application+0x100>
    72e3:	89 46 08             	mov    %eax,0x8(%esi)
    72e6:	8b 5b 08             	mov    0x8(%ebx),%ebx
    72e9:	81 fb d0 cc 12 00    	cmp    $0x12ccd0,%ebx
    72ef:	74 04                	je     72f5 <_eval_application+0x10f>
    72f1:	89 c6                	mov    %eax,%esi
    72f3:	eb 82                	jmp    7277 <_eval_application+0x91>
    72f5:	8b 4d f0             	mov    -0x10(%ebp),%ecx
    72f8:	89 4c 24 04          	mov    %ecx,0x4(%esp)
    72fc:	89 3c 24             	mov    %edi,(%esp)
    72ff:	e8 46 f5 ff ff       	call   684a <scheme_apply>
    7304:	83 c4 0c             	add    $0xc,%esp
    7307:	5b                   	pop    %ebx
    7308:	5e                   	pop    %esi
    7309:	5f                   	pop    %edi
    730a:	5d                   	pop    %ebp
    730b:	c3                   	ret    

0000730c <_eval_or>:
    730c:	55                   	push   %ebp
    730d:	89 e5                	mov    %esp,%ebp
    730f:	56                   	push   %esi
    7310:	53                   	push   %ebx
    7311:	83 ec 10             	sub    $0x10,%esp
    7314:	8b 5d 08             	mov    0x8(%ebp),%ebx
    7317:	8b 75 0c             	mov    0xc(%ebp),%esi
    731a:	81 fb d0 cc 12 00    	cmp    $0x12ccd0,%ebx
    7320:	74 68                	je     738a <_eval_or+0x7e>
    7322:	8b 43 04             	mov    0x4(%ebx),%eax
    7325:	ba d0 cc 12 00       	mov    $0x12ccd0,%edx
    732a:	39 d0                	cmp    %edx,%eax
    732c:	74 42                	je     7370 <_eval_or+0x64>
    732e:	e8 ff f5 ff ff       	call   6932 <_analyze>
    7333:	ba ec ff ff ff       	mov    $0xffffffec,%edx
    7338:	a8 01                	test   $0x1,%al
    733a:	75 19                	jne    7355 <_eval_or+0x49>
    733c:	0f bf 10             	movswl (%eax),%edx
    733f:	66 83 fa 1d          	cmp    $0x1d,%dx
    7343:	74 06                	je     734b <_eval_or+0x3f>
    7345:	66 83 fa 1e          	cmp    $0x1e,%dx
    7349:	75 07                	jne    7352 <_eval_or+0x46>
    734b:	8b 50 04             	mov    0x4(%eax),%edx
    734e:	89 f6                	mov    %esi,%esi
    7350:	eb 1e                	jmp    7370 <_eval_or+0x64>
    7352:	83 ea 1c             	sub    $0x1c,%edx
    7355:	8b 0c 95 00 89 00 00 	mov    0x8900(,%edx,4),%ecx
    735c:	ba c0 cc 12 00       	mov    $0x12ccc0,%edx
    7361:	85 c9                	test   %ecx,%ecx
    7363:	74 0b                	je     7370 <_eval_or+0x64>
    7365:	89 74 24 04          	mov    %esi,0x4(%esp)
    7369:	89 04 24             	mov    %eax,(%esp)
    736c:	ff d1                	call   *%ecx
    736e:	89 c2                	mov    %eax,%edx
    7370:	81 fa 00 cd 12 00    	cmp    $0x12cd00,%edx
    7376:	74 07                	je     737f <_eval_or+0x73>
    7378:	b8 14 cd 12 00       	mov    $0x12cd14,%eax
    737d:	eb 10                	jmp    738f <_eval_or+0x83>
    737f:	8b 5b 08             	mov    0x8(%ebx),%ebx
    7382:	81 fb d0 cc 12 00    	cmp    $0x12ccd0,%ebx
    7388:	75 98                	jne    7322 <_eval_or+0x16>
    738a:	b8 00 cd 12 00       	mov    $0x12cd00,%eax
    738f:	83 c4 10             	add    $0x10,%esp
    7392:	5b                   	pop    %ebx
    7393:	5e                   	pop    %esi
    7394:	5d                   	pop    %ebp
    7395:	c3                   	ret    

00007396 <eval>:
    7396:	55                   	push   %ebp
    7397:	89 e5                	mov    %esp,%ebp
    7399:	53                   	push   %ebx
    739a:	83 ec 14             	sub    $0x14,%esp
    739d:	8b 45 0c             	mov    0xc(%ebp),%eax
    73a0:	8b 58 04             	mov    0x4(%eax),%ebx
    73a3:	8b 00                	mov    (%eax),%eax
    73a5:	ba d0 cc 12 00       	mov    $0x12ccd0,%edx
    73aa:	39 d0                	cmp    %edx,%eax
    73ac:	74 42                	je     73f0 <eval+0x5a>
    73ae:	e8 7f f5 ff ff       	call   6932 <_analyze>
    73b3:	ba ec ff ff ff       	mov    $0xffffffec,%edx
    73b8:	a8 01                	test   $0x1,%al
    73ba:	75 19                	jne    73d5 <eval+0x3f>
    73bc:	0f bf 10             	movswl (%eax),%edx
    73bf:	66 83 fa 1d          	cmp    $0x1d,%dx
    73c3:	74 06                	je     73cb <eval+0x35>
    73c5:	66 83 fa 1e          	cmp    $0x1e,%dx
    73c9:	75 07                	jne    73d2 <eval+0x3c>
    73cb:	8b 50 04             	mov    0x4(%eax),%edx
    73ce:	89 f6                	mov    %esi,%esi
    73d0:	eb 1e                	jmp    73f0 <eval+0x5a>
    73d2:	83 ea 1c             	sub    $0x1c,%edx
    73d5:	8b 0c 95 00 89 00 00 	mov    0x8900(,%edx,4),%ecx
    73dc:	ba c0 cc 12 00       	mov    $0x12ccc0,%edx
    73e1:	85 c9                	test   %ecx,%ecx
    73e3:	74 0b                	je     73f0 <eval+0x5a>
    73e5:	89 5c 24 04          	mov    %ebx,0x4(%esp)
    73e9:	89 04 24             	mov    %eax,(%esp)
    73ec:	ff d1                	call   *%ecx
    73ee:	89 c2                	mov    %eax,%edx
    73f0:	89 d0                	mov    %edx,%eax
    73f2:	83 c4 14             	add    $0x14,%esp
    73f5:	5b                   	pop    %ebx
    73f6:	5d                   	pop    %ebp
    73f7:	c3                   	ret    

000073f8 <_eval_defvar>:
    73f8:	55                   	push   %ebp
    73f9:	89 e5                	mov    %esp,%ebp
    73fb:	56                   	push   %esi
    73fc:	53                   	push   %ebx
    73fd:	83 ec 10             	sub    $0x10,%esp
    7400:	8b 5d 08             	mov    0x8(%ebp),%ebx
    7403:	8b 75 0c             	mov    0xc(%ebp),%esi
    7406:	8b 43 08             	mov    0x8(%ebx),%eax
    7409:	ba d0 cc 12 00       	mov    $0x12ccd0,%edx
    740e:	39 d0                	cmp    %edx,%eax
    7410:	74 40                	je     7452 <_eval_defvar+0x5a>
    7412:	e8 1b f5 ff ff       	call   6932 <_analyze>
    7417:	ba ec ff ff ff       	mov    $0xffffffec,%edx
    741c:	a8 01                	test   $0x1,%al
    741e:	75 17                	jne    7437 <_eval_defvar+0x3f>
    7420:	0f bf 10             	movswl (%eax),%edx
    7423:	66 83 fa 1d          	cmp    $0x1d,%dx
    7427:	74 06                	je     742f <_eval_defvar+0x37>
    7429:	66 83 fa 1e          	cmp    $0x1e,%dx
    742d:	75 05                	jne    7434 <_eval_defvar+0x3c>
    742f:	8b 50 04             	mov    0x4(%eax),%edx
    7432:	eb 1e                	jmp    7452 <_eval_defvar+0x5a>
    7434:	83 ea 1c             	sub    $0x1c,%edx
    7437:	8b 0c 95 00 89 00 00 	mov    0x8900(,%edx,4),%ecx
    743e:	ba c0 cc 12 00       	mov    $0x12ccc0,%edx
    7443:	85 c9                	test   %ecx,%ecx
    7445:	74 0b                	je     7452 <_eval_defvar+0x5a>
    7447:	89 74 24 04          	mov    %esi,0x4(%esp)
    744b:	89 04 24             	mov    %eax,(%esp)
    744e:	ff d1                	call   *%ecx
    7450:	89 c2                	mov    %eax,%edx
    7452:	89 74 24 08          	mov    %esi,0x8(%esp)
    7456:	89 54 24 04          	mov    %edx,0x4(%esp)
    745a:	8b 43 04             	mov    0x4(%ebx),%eax
    745d:	89 04 24             	mov    %eax,(%esp)
    7460:	e8 41 ec ff ff       	call   60a6 <scheme_define_var>
    7465:	83 c4 10             	add    $0x10,%esp
    7468:	5b                   	pop    %ebx
    7469:	5e                   	pop    %esi
    746a:	5d                   	pop    %ebp
    746b:	c3                   	ret    

0000746c <_eval_if>:
    746c:	55                   	push   %ebp
    746d:	89 e5                	mov    %esp,%ebp
    746f:	83 ec 18             	sub    $0x18,%esp
    7472:	89 5d f4             	mov    %ebx,-0xc(%ebp)
    7475:	89 75 f8             	mov    %esi,-0x8(%ebp)
    7478:	89 7d fc             	mov    %edi,-0x4(%ebp)
    747b:	8b 45 08             	mov    0x8(%ebp),%eax
    747e:	8b 7d 0c             	mov    0xc(%ebp),%edi
    7481:	8b 50 04             	mov    0x4(%eax),%edx
    7484:	8b 40 08             	mov    0x8(%eax),%eax
    7487:	8b 58 04             	mov    0x4(%eax),%ebx
    748a:	8b 70 08             	mov    0x8(%eax),%esi
    748d:	b8 d0 cc 12 00       	mov    $0x12ccd0,%eax
    7492:	39 c2                	cmp    %eax,%edx
    7494:	74 43                	je     74d9 <_eval_if+0x6d>
    7496:	89 d0                	mov    %edx,%eax
    7498:	e8 95 f4 ff ff       	call   6932 <_analyze>
    749d:	89 c1                	mov    %eax,%ecx
    749f:	b8 ec ff ff ff       	mov    $0xffffffec,%eax
    74a4:	f6 c1 01             	test   $0x1,%cl
    74a7:	75 17                	jne    74c0 <_eval_if+0x54>
    74a9:	0f bf 11             	movswl (%ecx),%edx
    74ac:	66 83 fa 1d          	cmp    $0x1d,%dx
    74b0:	74 09                	je     74bb <_eval_if+0x4f>
    74b2:	8d 42 e4             	lea    -0x1c(%edx),%eax
    74b5:	66 83 fa 1e          	cmp    $0x1e,%dx
    74b9:	75 05                	jne    74c0 <_eval_if+0x54>
    74bb:	8b 41 04             	mov    0x4(%ecx),%eax
    74be:	eb 19                	jmp    74d9 <_eval_if+0x6d>
    74c0:	8b 14 85 00 89 00 00 	mov    0x8900(,%eax,4),%edx
    74c7:	b8 c0 cc 12 00       	mov    $0x12ccc0,%eax
    74cc:	85 d2                	test   %edx,%edx
    74ce:	74 09                	je     74d9 <_eval_if+0x6d>
    74d0:	89 7c 24 04          	mov    %edi,0x4(%esp)
    74d4:	89 0c 24             	mov    %ecx,(%esp)
    74d7:	ff d2                	call   *%edx
    74d9:	3d 00 cd 12 00       	cmp    $0x12cd00,%eax
    74de:	74 52                	je     7532 <_eval_if+0xc6>
    74e0:	ba d0 cc 12 00       	mov    $0x12ccd0,%edx
    74e5:	39 d3                	cmp    %edx,%ebx
    74e7:	0f 84 93 00 00 00    	je     7580 <_eval_if+0x114>
    74ed:	89 d8                	mov    %ebx,%eax
    74ef:	e8 3e f4 ff ff       	call   6932 <_analyze>
    74f4:	ba ec ff ff ff       	mov    $0xffffffec,%edx
    74f9:	a8 01                	test   $0x1,%al
    74fb:	75 18                	jne    7515 <_eval_if+0xa9>
    74fd:	0f bf 10             	movswl (%eax),%edx
    7500:	66 83 fa 1d          	cmp    $0x1d,%dx
    7504:	74 06                	je     750c <_eval_if+0xa0>
    7506:	66 83 fa 1e          	cmp    $0x1e,%dx
    750a:	75 06                	jne    7512 <_eval_if+0xa6>
    750c:	8b 50 04             	mov    0x4(%eax),%edx
    750f:	90                   	nop
    7510:	eb 6e                	jmp    7580 <_eval_if+0x114>
    7512:	83 ea 1c             	sub    $0x1c,%edx
    7515:	8b 0c 95 00 89 00 00 	mov    0x8900(,%edx,4),%ecx
    751c:	ba c0 cc 12 00       	mov    $0x12ccc0,%edx
    7521:	85 c9                	test   %ecx,%ecx
    7523:	74 5b                	je     7580 <_eval_if+0x114>
    7525:	89 7c 24 04          	mov    %edi,0x4(%esp)
    7529:	89 04 24             	mov    %eax,(%esp)
    752c:	ff d1                	call   *%ecx
    752e:	89 c2                	mov    %eax,%edx
    7530:	eb 4e                	jmp    7580 <_eval_if+0x114>
    7532:	ba d0 cc 12 00       	mov    $0x12ccd0,%edx
    7537:	39 d6                	cmp    %edx,%esi
    7539:	74 45                	je     7580 <_eval_if+0x114>
    753b:	89 f0                	mov    %esi,%eax
    753d:	e8 f0 f3 ff ff       	call   6932 <_analyze>
    7542:	ba ec ff ff ff       	mov    $0xffffffec,%edx
    7547:	a8 01                	test   $0x1,%al
    7549:	75 1a                	jne    7565 <_eval_if+0xf9>
    754b:	0f bf 10             	movswl (%eax),%edx
    754e:	66 83 fa 1d          	cmp    $0x1d,%dx
    7552:	74 06                	je     755a <_eval_if+0xee>
    7554:	66 83 fa 1e          	cmp    $0x1e,%dx
    7558:	75 08                	jne    7562 <_eval_if+0xf6>
    755a:	8b 50 04             	mov    0x4(%eax),%edx
    755d:	8d 76 00             	lea    0x0(%esi),%esi
    7560:	eb 1e                	jmp    7580 <_eval_if+0x114>
    7562:	83 ea 1c             	sub    $0x1c,%edx
    7565:	8b 0c 95 00 89 00 00 	mov    0x8900(,%edx,4),%ecx
    756c:	ba c0 cc 12 00       	mov    $0x12ccc0,%edx
    7571:	85 c9                	test   %ecx,%ecx
    7573:	74 0b                	je     7580 <_eval_if+0x114>
    7575:	89 7c 24 04          	mov    %edi,0x4(%esp)
    7579:	89 04 24             	mov    %eax,(%esp)
    757c:	ff d1                	call   *%ecx
    757e:	89 c2                	mov    %eax,%edx
    7580:	89 d0                	mov    %edx,%eax
    7582:	8b 5d f4             	mov    -0xc(%ebp),%ebx
    7585:	8b 75 f8             	mov    -0x8(%ebp),%esi
    7588:	8b 7d fc             	mov    -0x4(%ebp),%edi
    758b:	89 ec                	mov    %ebp,%esp
    758d:	5d                   	pop    %ebp
    758e:	c3                   	ret    

0000758f <scheme_eval_sequence>:
    758f:	55                   	push   %ebp
    7590:	89 e5                	mov    %esp,%ebp
    7592:	56                   	push   %esi
    7593:	53                   	push   %ebx
    7594:	83 ec 10             	sub    $0x10,%esp
    7597:	8b 5d 08             	mov    0x8(%ebp),%ebx
    759a:	8b 75 0c             	mov    0xc(%ebp),%esi
    759d:	b9 d0 cc 12 00       	mov    $0x12ccd0,%ecx
    75a2:	39 cb                	cmp    %ecx,%ebx
    75a4:	0f 84 9f 00 00 00    	je     7649 <scheme_eval_sequence+0xba>
    75aa:	81 7b 08 d0 cc 12 00 	cmpl   $0x12ccd0,0x8(%ebx)
    75b1:	74 4a                	je     75fd <scheme_eval_sequence+0x6e>
    75b3:	8b 43 04             	mov    0x4(%ebx),%eax
    75b6:	3d d0 cc 12 00       	cmp    $0x12ccd0,%eax
    75bb:	74 34                	je     75f1 <scheme_eval_sequence+0x62>
    75bd:	e8 70 f3 ff ff       	call   6932 <_analyze>
    75c2:	ba ec ff ff ff       	mov    $0xffffffec,%edx
    75c7:	a8 01                	test   $0x1,%al
    75c9:	75 12                	jne    75dd <scheme_eval_sequence+0x4e>
    75cb:	0f bf 10             	movswl (%eax),%edx
    75ce:	66 83 fa 1d          	cmp    $0x1d,%dx
    75d2:	74 1d                	je     75f1 <scheme_eval_sequence+0x62>
    75d4:	66 83 fa 1e          	cmp    $0x1e,%dx
    75d8:	74 17                	je     75f1 <scheme_eval_sequence+0x62>
    75da:	83 ea 1c             	sub    $0x1c,%edx
    75dd:	8b 14 95 00 89 00 00 	mov    0x8900(,%edx,4),%edx
    75e4:	85 d2                	test   %edx,%edx
    75e6:	74 09                	je     75f1 <scheme_eval_sequence+0x62>
    75e8:	89 74 24 04          	mov    %esi,0x4(%esp)
    75ec:	89 04 24             	mov    %eax,(%esp)
    75ef:	ff d2                	call   *%edx
    75f1:	8b 5b 08             	mov    0x8(%ebx),%ebx
    75f4:	81 7b 08 d0 cc 12 00 	cmpl   $0x12ccd0,0x8(%ebx)
    75fb:	75 b6                	jne    75b3 <scheme_eval_sequence+0x24>
    75fd:	8b 43 04             	mov    0x4(%ebx),%eax
    7600:	b9 d0 cc 12 00       	mov    $0x12ccd0,%ecx
    7605:	39 c8                	cmp    %ecx,%eax
    7607:	74 40                	je     7649 <scheme_eval_sequence+0xba>
    7609:	e8 24 f3 ff ff       	call   6932 <_analyze>
    760e:	ba ec ff ff ff       	mov    $0xffffffec,%edx
    7613:	a8 01                	test   $0x1,%al
    7615:	75 17                	jne    762e <scheme_eval_sequence+0x9f>
    7617:	0f bf 10             	movswl (%eax),%edx
    761a:	66 83 fa 1d          	cmp    $0x1d,%dx
    761e:	74 06                	je     7626 <scheme_eval_sequence+0x97>
    7620:	66 83 fa 1e          	cmp    $0x1e,%dx
    7624:	75 05                	jne    762b <scheme_eval_sequence+0x9c>
    7626:	8b 48 04             	mov    0x4(%eax),%ecx
    7629:	eb 1e                	jmp    7649 <scheme_eval_sequence+0xba>
    762b:	83 ea 1c             	sub    $0x1c,%edx
    762e:	8b 14 95 00 89 00 00 	mov    0x8900(,%edx,4),%edx
    7635:	b9 c0 cc 12 00       	mov    $0x12ccc0,%ecx
    763a:	85 d2                	test   %edx,%edx
    763c:	74 0b                	je     7649 <scheme_eval_sequence+0xba>
    763e:	89 74 24 04          	mov    %esi,0x4(%esp)
    7642:	89 04 24             	mov    %eax,(%esp)
    7645:	ff d2                	call   *%edx
    7647:	89 c1                	mov    %eax,%ecx
    7649:	89 c8                	mov    %ecx,%eax
    764b:	83 c4 10             	add    $0x10,%esp
    764e:	5b                   	pop    %ebx
    764f:	5e                   	pop    %esi
    7650:	5d                   	pop    %ebp
    7651:	c3                   	ret    

00007652 <_eval_assignment>:
    7652:	55                   	push   %ebp
    7653:	89 e5                	mov    %esp,%ebp
    7655:	56                   	push   %esi
    7656:	53                   	push   %ebx
    7657:	83 ec 10             	sub    $0x10,%esp
    765a:	8b 5d 08             	mov    0x8(%ebp),%ebx
    765d:	8b 75 0c             	mov    0xc(%ebp),%esi
    7660:	8b 43 08             	mov    0x8(%ebx),%eax
    7663:	ba d0 cc 12 00       	mov    $0x12ccd0,%edx
    7668:	39 d0                	cmp    %edx,%eax
    766a:	74 40                	je     76ac <_eval_assignment+0x5a>
    766c:	e8 c1 f2 ff ff       	call   6932 <_analyze>
    7671:	ba ec ff ff ff       	mov    $0xffffffec,%edx
    7676:	a8 01                	test   $0x1,%al
    7678:	75 17                	jne    7691 <_eval_assignment+0x3f>
    767a:	0f bf 10             	movswl (%eax),%edx
    767d:	66 83 fa 1d          	cmp    $0x1d,%dx
    7681:	74 06                	je     7689 <_eval_assignment+0x37>
    7683:	66 83 fa 1e          	cmp    $0x1e,%dx
    7687:	75 05                	jne    768e <_eval_assignment+0x3c>
    7689:	8b 50 04             	mov    0x4(%eax),%edx
    768c:	eb 1e                	jmp    76ac <_eval_assignment+0x5a>
    768e:	83 ea 1c             	sub    $0x1c,%edx
    7691:	8b 0c 95 00 89 00 00 	mov    0x8900(,%edx,4),%ecx
    7698:	ba c0 cc 12 00       	mov    $0x12ccc0,%edx
    769d:	85 c9                	test   %ecx,%ecx
    769f:	74 0b                	je     76ac <_eval_assignment+0x5a>
    76a1:	89 74 24 04          	mov    %esi,0x4(%esp)
    76a5:	89 04 24             	mov    %eax,(%esp)
    76a8:	ff d1                	call   *%ecx
    76aa:	89 c2                	mov    %eax,%edx
    76ac:	89 74 24 08          	mov    %esi,0x8(%esp)
    76b0:	89 54 24 04          	mov    %edx,0x4(%esp)
    76b4:	8b 43 04             	mov    0x4(%ebx),%eax
    76b7:	89 04 24             	mov    %eax,(%esp)
    76ba:	e8 86 e9 ff ff       	call   6045 <scheme_set_var>
    76bf:	83 c4 10             	add    $0x10,%esp
    76c2:	5b                   	pop    %ebx
    76c3:	5e                   	pop    %esi
    76c4:	5d                   	pop    %ebp
    76c5:	c3                   	ret    

000076c6 <_eval_cond>:
    76c6:	55                   	push   %ebp
    76c7:	89 e5                	mov    %esp,%ebp
    76c9:	57                   	push   %edi
    76ca:	56                   	push   %esi
    76cb:	53                   	push   %ebx
    76cc:	83 ec 0c             	sub    $0xc,%esp
    76cf:	8b 5d 08             	mov    0x8(%ebp),%ebx
    76d2:	8b 7d 0c             	mov    0xc(%ebp),%edi
    76d5:	81 fb d0 cc 12 00    	cmp    $0x12ccd0,%ebx
    76db:	0f 84 31 01 00 00    	je     7812 <_eval_cond+0x14c>
    76e1:	8b 73 04             	mov    0x4(%ebx),%esi
    76e4:	8b 46 04             	mov    0x4(%esi),%eax
    76e7:	3d 14 cd 12 00       	cmp    $0x12cd14,%eax
    76ec:	75 0f                	jne    76fd <_eval_cond+0x37>
    76ee:	eb 62                	jmp    7752 <_eval_cond+0x8c>
    76f0:	8b 73 04             	mov    0x4(%ebx),%esi
    76f3:	8b 46 04             	mov    0x4(%esi),%eax
    76f6:	3d 14 cd 12 00       	cmp    $0x12cd14,%eax
    76fb:	74 55                	je     7752 <_eval_cond+0x8c>
    76fd:	ba d0 cc 12 00       	mov    $0x12ccd0,%edx
    7702:	39 d0                	cmp    %edx,%eax
    7704:	74 40                	je     7746 <_eval_cond+0x80>
    7706:	e8 27 f2 ff ff       	call   6932 <_analyze>
    770b:	ba ec ff ff ff       	mov    $0xffffffec,%edx
    7710:	a8 01                	test   $0x1,%al
    7712:	75 17                	jne    772b <_eval_cond+0x65>
    7714:	0f bf 10             	movswl (%eax),%edx
    7717:	66 83 fa 1d          	cmp    $0x1d,%dx
    771b:	74 06                	je     7723 <_eval_cond+0x5d>
    771d:	66 83 fa 1e          	cmp    $0x1e,%dx
    7721:	75 05                	jne    7728 <_eval_cond+0x62>
    7723:	8b 50 04             	mov    0x4(%eax),%edx
    7726:	eb 1e                	jmp    7746 <_eval_cond+0x80>
    7728:	83 ea 1c             	sub    $0x1c,%edx
    772b:	8b 0c 95 00 89 00 00 	mov    0x8900(,%edx,4),%ecx
    7732:	ba c0 cc 12 00       	mov    $0x12ccc0,%edx
    7737:	85 c9                	test   %ecx,%ecx
    7739:	74 0b                	je     7746 <_eval_cond+0x80>
    773b:	89 7c 24 04          	mov    %edi,0x4(%esp)
    773f:	89 04 24             	mov    %eax,(%esp)
    7742:	ff d1                	call   *%ecx
    7744:	89 c2                	mov    %eax,%edx
    7746:	81 fa 00 cd 12 00    	cmp    $0x12cd00,%edx
    774c:	0f 84 b1 00 00 00    	je     7803 <_eval_cond+0x13d>
    7752:	8b 5e 08             	mov    0x8(%esi),%ebx
    7755:	b9 d0 cc 12 00       	mov    $0x12ccd0,%ecx
    775a:	39 cb                	cmp    %ecx,%ebx
    775c:	0f 84 b5 00 00 00    	je     7817 <_eval_cond+0x151>
    7762:	81 7b 08 d0 cc 12 00 	cmpl   $0x12ccd0,0x8(%ebx)
    7769:	74 4a                	je     77b5 <_eval_cond+0xef>
    776b:	8b 43 04             	mov    0x4(%ebx),%eax
    776e:	3d d0 cc 12 00       	cmp    $0x12ccd0,%eax
    7773:	74 34                	je     77a9 <_eval_cond+0xe3>
    7775:	e8 b8 f1 ff ff       	call   6932 <_analyze>
    777a:	ba ec ff ff ff       	mov    $0xffffffec,%edx
    777f:	a8 01                	test   $0x1,%al
    7781:	75 12                	jne    7795 <_eval_cond+0xcf>
    7783:	0f bf 10             	movswl (%eax),%edx
    7786:	66 83 fa 1d          	cmp    $0x1d,%dx
    778a:	74 1d                	je     77a9 <_eval_cond+0xe3>
    778c:	66 83 fa 1e          	cmp    $0x1e,%dx
    7790:	74 17                	je     77a9 <_eval_cond+0xe3>
    7792:	83 ea 1c             	sub    $0x1c,%edx
    7795:	8b 14 95 00 89 00 00 	mov    0x8900(,%edx,4),%edx
    779c:	85 d2                	test   %edx,%edx
    779e:	74 09                	je     77a9 <_eval_cond+0xe3>
    77a0:	89 7c 24 04          	mov    %edi,0x4(%esp)
    77a4:	89 04 24             	mov    %eax,(%esp)
    77a7:	ff d2                	call   *%edx
    77a9:	8b 5b 08             	mov    0x8(%ebx),%ebx
    77ac:	81 7b 08 d0 cc 12 00 	cmpl   $0x12ccd0,0x8(%ebx)
    77b3:	75 b6                	jne    776b <_eval_cond+0xa5>
    77b5:	8b 43 04             	mov    0x4(%ebx),%eax
    77b8:	b9 d0 cc 12 00       	mov    $0x12ccd0,%ecx
    77bd:	39 c8                	cmp    %ecx,%eax
    77bf:	74 56                	je     7817 <_eval_cond+0x151>
    77c1:	e8 6c f1 ff ff       	call   6932 <_analyze>
    77c6:	ba ec ff ff ff       	mov    $0xffffffec,%edx
    77cb:	a8 01                	test   $0x1,%al
    77cd:	75 17                	jne    77e6 <_eval_cond+0x120>
    77cf:	0f bf 10             	movswl (%eax),%edx
    77d2:	66 83 fa 1d          	cmp    $0x1d,%dx
    77d6:	74 06                	je     77de <_eval_cond+0x118>
    77d8:	66 83 fa 1e          	cmp    $0x1e,%dx
    77dc:	75 05                	jne    77e3 <_eval_cond+0x11d>
    77de:	8b 48 04             	mov    0x4(%eax),%ecx
    77e1:	eb 34                	jmp    7817 <_eval_cond+0x151>
    77e3:	83 ea 1c             	sub    $0x1c,%edx
    77e6:	8b 14 95 00 89 00 00 	mov    0x8900(,%edx,4),%edx
    77ed:	b9 c0 cc 12 00       	mov    $0x12ccc0,%ecx
    77f2:	85 d2                	test   %edx,%edx
    77f4:	74 21                	je     7817 <_eval_cond+0x151>
    77f6:	89 7c 24 04          	mov    %edi,0x4(%esp)
    77fa:	89 04 24             	mov    %eax,(%esp)
    77fd:	ff d2                	call   *%edx
    77ff:	89 c1                	mov    %eax,%ecx
    7801:	eb 14                	jmp    7817 <_eval_cond+0x151>
    7803:	8b 5b 08             	mov    0x8(%ebx),%ebx
    7806:	81 fb d0 cc 12 00    	cmp    $0x12ccd0,%ebx
    780c:	0f 85 de fe ff ff    	jne    76f0 <_eval_cond+0x2a>
    7812:	b9 c0 cc 12 00       	mov    $0x12ccc0,%ecx
    7817:	89 c8                	mov    %ecx,%eax
    7819:	83 c4 0c             	add    $0xc,%esp
    781c:	5b                   	pop    %ebx
    781d:	5e                   	pop    %esi
    781e:	5f                   	pop    %edi
    781f:	5d                   	pop    %ebp
    7820:	c3                   	ret    
    7821:	90                   	nop
    7822:	90                   	nop
    7823:	90                   	nop

00007824 <scheme_driven_loop>:
    7824:	55                   	push   %ebp
    7825:	89 e5                	mov    %esp,%ebp
    7827:	5d                   	pop    %ebp
    7828:	c3                   	ret    

00007829 <scheme_init>:
    7829:	55                   	push   %ebp
    782a:	89 e5                	mov    %esp,%ebp
    782c:	83 ec 08             	sub    $0x8,%esp
    782f:	c7 04 24 00 00 00 00 	movl   $0x0,(%esp)
    7836:	e8 43 ec ff ff       	call   647e <scheme_init_env>
    783b:	c7 04 24 f0 cc 12 00 	movl   $0x12ccf0,(%esp)
    7842:	e8 61 d6 ff ff       	call   4ea8 <scheme_init_read>
    7847:	c7 04 24 f0 cc 12 00 	movl   $0x12ccf0,(%esp)
    784e:	e8 a7 d9 ff ff       	call   51fa <scheme_init_port>
    7853:	c7 04 24 f0 cc 12 00 	movl   $0x12ccf0,(%esp)
    785a:	e8 b6 be ff ff       	call   3715 <scheme_init_bool>
    785f:	c7 04 24 f0 cc 12 00 	movl   $0x12ccf0,(%esp)
    7866:	e8 b7 df ff ff       	call   5822 <scheme_init_number>
    786b:	c7 04 24 f0 cc 12 00 	movl   $0x12ccf0,(%esp)
    7872:	e8 b2 c3 ff ff       	call   3c29 <scheme_init_string>
    7877:	c7 04 24 f0 cc 12 00 	movl   $0x12ccf0,(%esp)
    787e:	e8 6c ca ff ff       	call   42ef <scheme_init_list>
    7883:	c9                   	leave  
    7884:	c3                   	ret    
    7885:	90                   	nop
    7886:	90                   	nop
    7887:	90                   	nop

00007888 <scheme_init_arch>:
    7888:	55                   	push   %ebp
    7889:	89 e5                	mov    %esp,%ebp
    788b:	5d                   	pop    %ebp
    788c:	c3                   	ret    
    788d:	90                   	nop
    788e:	90                   	nop
    788f:	90                   	nop

00007890 <_itoa>:
    7890:	55                   	push   %ebp
    7891:	89 e5                	mov    %esp,%ebp
    7893:	8b 45 0c             	mov    0xc(%ebp),%eax
    7896:	5d                   	pop    %ebp
    7897:	c3                   	ret    

00007898 <_itoaU>:
    7898:	55                   	push   %ebp
    7899:	89 e5                	mov    %esp,%ebp
    789b:	57                   	push   %edi
    789c:	56                   	push   %esi
    789d:	53                   	push   %ebx
    789e:	8b 5d 08             	mov    0x8(%ebp),%ebx
    78a1:	8b 45 10             	mov    0x10(%ebp),%eax
    78a4:	83 f8 08             	cmp    $0x8,%eax
    78a7:	0f 84 1b 01 00 00    	je     79c8 <_itoaU+0x130>
    78ad:	83 f8 10             	cmp    $0x10,%eax
    78b0:	75 6b                	jne    791d <_itoaU+0x85>
    78b2:	8b 45 0c             	mov    0xc(%ebp),%eax
    78b5:	c6 00 30             	movb   $0x30,(%eax)
    78b8:	c6 40 01 00          	movb   $0x0,0x1(%eax)
    78bc:	85 db                	test   %ebx,%ebx
    78be:	0f 84 04 01 00 00    	je     79c8 <_itoaU+0x130>
    78c4:	f7 c3 00 00 00 f0    	test   $0xf0000000,%ebx
    78ca:	0f 85 e9 00 00 00    	jne    79b9 <_itoaU+0x121>
    78d0:	be 08 00 00 00       	mov    $0x8,%esi
    78d5:	c1 e3 04             	shl    $0x4,%ebx
    78d8:	4e                   	dec    %esi
    78d9:	f7 c3 00 00 00 f0    	test   $0xf0000000,%ebx
    78df:	75 04                	jne    78e5 <_itoaU+0x4d>
    78e1:	85 f6                	test   %esi,%esi
    78e3:	7f f0                	jg     78d5 <_itoaU+0x3d>
    78e5:	8b 45 0c             	mov    0xc(%ebp),%eax
    78e8:	85 f6                	test   %esi,%esi
    78ea:	74 29                	je     7915 <_itoaU+0x7d>
    78ec:	8d 74 26 00          	lea    0x0(%esi,%eiz,1),%esi
    78f0:	e9 c9 00 00 00       	jmp    79be <_itoaU+0x126>
    78f5:	89 d8                	mov    %ebx,%eax
    78f7:	c1 e8 1c             	shr    $0x1c,%eax
    78fa:	83 f8 09             	cmp    $0x9,%eax
    78fd:	77 04                	ja     7903 <_itoaU+0x6b>
    78ff:	04 30                	add    $0x30,%al
    7901:	eb 02                	jmp    7905 <_itoaU+0x6d>
    7903:	04 37                	add    $0x37,%al
    7905:	88 02                	mov    %al,(%edx)
    7907:	42                   	inc    %edx
    7908:	49                   	dec    %ecx
    7909:	74 05                	je     7910 <_itoaU+0x78>
    790b:	c1 e3 04             	shl    $0x4,%ebx
    790e:	eb e5                	jmp    78f5 <_itoaU+0x5d>
    7910:	8b 45 0c             	mov    0xc(%ebp),%eax
    7913:	01 f0                	add    %esi,%eax
    7915:	c6 00 00             	movb   $0x0,(%eax)
    7918:	e9 ab 00 00 00       	jmp    79c8 <_itoaU+0x130>
    791d:	8b 55 0c             	mov    0xc(%ebp),%edx
    7920:	c6 02 30             	movb   $0x30,(%edx)
    7923:	89 d6                	mov    %edx,%esi
    7925:	46                   	inc    %esi
    7926:	c6 42 01 00          	movb   $0x0,0x1(%edx)
    792a:	85 db                	test   %ebx,%ebx
    792c:	0f 84 96 00 00 00    	je     79c8 <_itoaU+0x130>
    7932:	b9 00 ca 9a 3b       	mov    $0x3b9aca00,%ecx
    7937:	bf 00 00 00 00       	mov    $0x0,%edi
    793c:	eb 19                	jmp    7957 <_itoaU+0xbf>
    793e:	b8 67 66 66 66       	mov    $0x66666667,%eax
    7943:	f7 e9                	imul   %ecx
    7945:	c1 fa 02             	sar    $0x2,%edx
    7948:	89 c8                	mov    %ecx,%eax
    794a:	c1 f8 1f             	sar    $0x1f,%eax
    794d:	89 d1                	mov    %edx,%ecx
    794f:	29 c1                	sub    %eax,%ecx
    7951:	47                   	inc    %edi
    7952:	83 ff 0a             	cmp    $0xa,%edi
    7955:	74 0d                	je     7964 <_itoaU+0xcc>
    7957:	89 d8                	mov    %ebx,%eax
    7959:	ba 00 00 00 00       	mov    $0x0,%edx
    795e:	f7 f1                	div    %ecx
    7960:	85 c0                	test   %eax,%eax
    7962:	74 da                	je     793e <_itoaU+0xa6>
    7964:	89 d8                	mov    %ebx,%eax
    7966:	ba 00 00 00 00       	mov    $0x0,%edx
    796b:	f7 f1                	div    %ecx
    796d:	89 d3                	mov    %edx,%ebx
    796f:	04 30                	add    $0x30,%al
    7971:	8b 55 0c             	mov    0xc(%ebp),%edx
    7974:	88 02                	mov    %al,(%edx)
    7976:	ba 67 66 66 66       	mov    $0x66666667,%edx
    797b:	89 c8                	mov    %ecx,%eax
    797d:	f7 ea                	imul   %edx
    797f:	c1 fa 02             	sar    $0x2,%edx
    7982:	89 c8                	mov    %ecx,%eax
    7984:	c1 f8 1f             	sar    $0x1f,%eax
    7987:	89 d1                	mov    %edx,%ecx
    7989:	29 c1                	sub    %eax,%ecx
    798b:	74 27                	je     79b4 <_itoaU+0x11c>
    798d:	bf 67 66 66 66       	mov    $0x66666667,%edi
    7992:	89 d8                	mov    %ebx,%eax
    7994:	ba 00 00 00 00       	mov    $0x0,%edx
    7999:	f7 f1                	div    %ecx
    799b:	04 30                	add    $0x30,%al
    799d:	88 06                	mov    %al,(%esi)
    799f:	46                   	inc    %esi
    79a0:	89 d3                	mov    %edx,%ebx
    79a2:	89 c8                	mov    %ecx,%eax
    79a4:	f7 ef                	imul   %edi
    79a6:	c1 fa 02             	sar    $0x2,%edx
    79a9:	89 c8                	mov    %ecx,%eax
    79ab:	c1 f8 1f             	sar    $0x1f,%eax
    79ae:	89 d1                	mov    %edx,%ecx
    79b0:	29 c1                	sub    %eax,%ecx
    79b2:	75 de                	jne    7992 <_itoaU+0xfa>
    79b4:	c6 06 00             	movb   $0x0,(%esi)
    79b7:	eb 0f                	jmp    79c8 <_itoaU+0x130>
    79b9:	be 08 00 00 00       	mov    $0x8,%esi
    79be:	89 f1                	mov    %esi,%ecx
    79c0:	8b 55 0c             	mov    0xc(%ebp),%edx
    79c3:	e9 2d ff ff ff       	jmp    78f5 <_itoaU+0x5d>
    79c8:	8b 45 0c             	mov    0xc(%ebp),%eax
    79cb:	5b                   	pop    %ebx
    79cc:	5e                   	pop    %esi
    79cd:	5f                   	pop    %edi
    79ce:	5d                   	pop    %ebp
    79cf:	c3                   	ret    

000079d0 <atol>:
    79d0:	55                   	push   %ebp
    79d1:	89 e5                	mov    %esp,%ebp
    79d3:	83 ec 18             	sub    $0x18,%esp
    79d6:	c7 44 24 08 0a 00 00 	movl   $0xa,0x8(%esp)
    79dd:	00 
    79de:	c7 44 24 04 00 00 00 	movl   $0x0,0x4(%esp)
    79e5:	00 
    79e6:	8b 45 08             	mov    0x8(%ebp),%eax
    79e9:	89 04 24             	mov    %eax,(%esp)
    79ec:	e8 7f 01 00 00       	call   7b70 <strtol>
    79f1:	c9                   	leave  
    79f2:	c3                   	ret    

000079f3 <atoi>:
    79f3:	55                   	push   %ebp
    79f4:	89 e5                	mov    %esp,%ebp
    79f6:	83 ec 18             	sub    $0x18,%esp
    79f9:	c7 44 24 08 0a 00 00 	movl   $0xa,0x8(%esp)
    7a00:	00 
    7a01:	c7 44 24 04 00 00 00 	movl   $0x0,0x4(%esp)
    7a08:	00 
    7a09:	8b 45 08             	mov    0x8(%ebp),%eax
    7a0c:	89 04 24             	mov    %eax,(%esp)
    7a0f:	e8 5c 01 00 00       	call   7b70 <strtol>
    7a14:	c9                   	leave  
    7a15:	c3                   	ret    
    7a16:	90                   	nop
    7a17:	90                   	nop
    7a18:	90                   	nop
    7a19:	90                   	nop
    7a1a:	90                   	nop
    7a1b:	90                   	nop
    7a1c:	90                   	nop
    7a1d:	90                   	nop
    7a1e:	90                   	nop
    7a1f:	90                   	nop

00007a20 <kscm_init_heap>:
    7a20:	55                   	push   %ebp
    7a21:	89 e5                	mov    %esp,%ebp
    7a23:	c7 05 4c b9 11 00 fe 	movl   $0x1fe,0x11b94c
    7a2a:	01 00 00 
    7a2d:	c7 05 48 b9 11 00 00 	movl   $0x800000,0x11b948
    7a34:	00 80 00 
    7a37:	c7 05 00 00 80 00 00 	movl   $0x200,0x800000
    7a3e:	02 00 00 
    7a41:	c7 05 04 00 80 00 00 	movl   $0x800000,0x800004
    7a48:	00 80 00 
    7a4b:	5d                   	pop    %ebp
    7a4c:	c3                   	ret    

00007a4d <kfree>:
    7a4d:	55                   	push   %ebp
    7a4e:	89 e5                	mov    %esp,%ebp
    7a50:	53                   	push   %ebx
    7a51:	8b 4d 08             	mov    0x8(%ebp),%ecx
    7a54:	83 e9 08             	sub    $0x8,%ecx
    7a57:	8b 15 48 b9 11 00    	mov    0x11b948,%edx
    7a5d:	eb 11                	jmp    7a70 <kfree+0x23>
    7a5f:	8b 42 04             	mov    0x4(%edx),%eax
    7a62:	39 c2                	cmp    %eax,%edx
    7a64:	72 08                	jb     7a6e <kfree+0x21>
    7a66:	39 ca                	cmp    %ecx,%edx
    7a68:	72 0f                	jb     7a79 <kfree+0x2c>
    7a6a:	39 c1                	cmp    %eax,%ecx
    7a6c:	72 0b                	jb     7a79 <kfree+0x2c>
    7a6e:	89 c2                	mov    %eax,%edx
    7a70:	39 ca                	cmp    %ecx,%edx
    7a72:	73 eb                	jae    7a5f <kfree+0x12>
    7a74:	3b 4a 04             	cmp    0x4(%edx),%ecx
    7a77:	73 e6                	jae    7a5f <kfree+0x12>
    7a79:	8b 1a                	mov    (%edx),%ebx
    7a7b:	8d 04 da             	lea    (%edx,%ebx,8),%eax
    7a7e:	39 c1                	cmp    %eax,%ecx
    7a80:	75 0a                	jne    7a8c <kfree+0x3f>
    7a82:	89 d8                	mov    %ebx,%eax
    7a84:	03 01                	add    (%ecx),%eax
    7a86:	89 02                	mov    %eax,(%edx)
    7a88:	89 d1                	mov    %edx,%ecx
    7a8a:	eb 03                	jmp    7a8f <kfree+0x42>
    7a8c:	89 4a 04             	mov    %ecx,0x4(%edx)
    7a8f:	8b 19                	mov    (%ecx),%ebx
    7a91:	8d 04 d9             	lea    (%ecx,%ebx,8),%eax
    7a94:	8b 52 04             	mov    0x4(%edx),%edx
    7a97:	39 d0                	cmp    %edx,%eax
    7a99:	75 0e                	jne    7aa9 <kfree+0x5c>
    7a9b:	89 d8                	mov    %ebx,%eax
    7a9d:	03 02                	add    (%edx),%eax
    7a9f:	89 01                	mov    %eax,(%ecx)
    7aa1:	8b 42 04             	mov    0x4(%edx),%eax
    7aa4:	89 41 04             	mov    %eax,0x4(%ecx)
    7aa7:	eb 03                	jmp    7aac <kfree+0x5f>
    7aa9:	89 51 04             	mov    %edx,0x4(%ecx)
    7aac:	5b                   	pop    %ebx
    7aad:	5d                   	pop    %ebp
    7aae:	c3                   	ret    

00007aaf <alloc_memory>:
    7aaf:	55                   	push   %ebp
    7ab0:	89 e5                	mov    %esp,%ebp
    7ab2:	5d                   	pop    %ebp
    7ab3:	c3                   	ret    

00007ab4 <kmalloc>:
    7ab4:	55                   	push   %ebp
    7ab5:	89 e5                	mov    %esp,%ebp
    7ab7:	57                   	push   %edi
    7ab8:	56                   	push   %esi
    7ab9:	53                   	push   %ebx
    7aba:	83 ec 0c             	sub    $0xc,%esp
    7abd:	8b 45 08             	mov    0x8(%ebp),%eax
    7ac0:	83 c0 07             	add    $0x7,%eax
    7ac3:	c1 e8 03             	shr    $0x3,%eax
    7ac6:	8d 78 01             	lea    0x1(%eax),%edi
    7ac9:	83 3d 48 b9 11 00 00 	cmpl   $0x0,0x11b948
    7ad0:	75 1a                	jne    7aec <kmalloc+0x38>
    7ad2:	c7 04 24 01 00 00 00 	movl   $0x1,(%esp)
    7ad9:	e8 ce 09 00 00       	call   84ac <expand_region>
    7ade:	a3 48 b9 11 00       	mov    %eax,0x11b948
    7ae3:	c7 00 00 02 00 00    	movl   $0x200,(%eax)
    7ae9:	89 40 04             	mov    %eax,0x4(%eax)
    7aec:	8b 35 48 b9 11 00    	mov    0x11b948,%esi
    7af2:	8b 56 04             	mov    0x4(%esi),%edx
    7af5:	8b 02                	mov    (%edx),%eax
    7af7:	39 c7                	cmp    %eax,%edi
    7af9:	77 28                	ja     7b23 <kmalloc+0x6f>
    7afb:	39 c7                	cmp    %eax,%edi
    7afd:	75 16                	jne    7b15 <kmalloc+0x61>
    7aff:	8b 42 04             	mov    0x4(%edx),%eax
    7b02:	89 46 04             	mov    %eax,0x4(%esi)
    7b05:	39 f2                	cmp    %esi,%edx
    7b07:	75 15                	jne    7b1e <kmalloc+0x6a>
    7b09:	c7 05 48 b9 11 00 00 	movl   $0x0,0x11b948
    7b10:	00 00 00 
    7b13:	eb 09                	jmp    7b1e <kmalloc+0x6a>
    7b15:	29 f8                	sub    %edi,%eax
    7b17:	89 02                	mov    %eax,(%edx)
    7b19:	8d 14 c2             	lea    (%edx,%eax,8),%edx
    7b1c:	89 3a                	mov    %edi,(%edx)
    7b1e:	8d 42 08             	lea    0x8(%edx),%eax
    7b21:	eb 38                	jmp    7b5b <kmalloc+0xa7>
    7b23:	89 d3                	mov    %edx,%ebx
    7b25:	39 15 48 b9 11 00    	cmp    %edx,0x11b948
    7b2b:	75 1c                	jne    7b49 <kmalloc+0x95>
    7b2d:	c7 04 24 01 00 00 00 	movl   $0x1,(%esp)
    7b34:	e8 73 09 00 00       	call   84ac <expand_region>
    7b39:	85 c0                	test   %eax,%eax
    7b3b:	74 19                	je     7b56 <kmalloc+0xa2>
    7b3d:	89 46 04             	mov    %eax,0x4(%esi)
    7b40:	c7 00 00 02 00 00    	movl   $0x200,(%eax)
    7b46:	89 58 04             	mov    %ebx,0x4(%eax)
    7b49:	8b 53 04             	mov    0x4(%ebx),%edx
    7b4c:	8b 02                	mov    (%edx),%eax
    7b4e:	89 de                	mov    %ebx,%esi
    7b50:	39 c7                	cmp    %eax,%edi
    7b52:	77 cf                	ja     7b23 <kmalloc+0x6f>
    7b54:	eb a5                	jmp    7afb <kmalloc+0x47>
    7b56:	b8 00 00 00 00       	mov    $0x0,%eax
    7b5b:	83 c4 0c             	add    $0xc,%esp
    7b5e:	5b                   	pop    %ebx
    7b5f:	5e                   	pop    %esi
    7b60:	5f                   	pop    %edi
    7b61:	5d                   	pop    %ebp
    7b62:	c3                   	ret    
    7b63:	90                   	nop
    7b64:	90                   	nop
    7b65:	90                   	nop
    7b66:	90                   	nop
    7b67:	90                   	nop
    7b68:	90                   	nop
    7b69:	90                   	nop
    7b6a:	90                   	nop
    7b6b:	90                   	nop
    7b6c:	90                   	nop
    7b6d:	90                   	nop
    7b6e:	90                   	nop
    7b6f:	90                   	nop

00007b70 <strtol>:
    7b70:	55                   	push   %ebp
    7b71:	89 e5                	mov    %esp,%ebp
    7b73:	57                   	push   %edi
    7b74:	56                   	push   %esi
    7b75:	53                   	push   %ebx
    7b76:	83 ec 10             	sub    $0x10,%esp
    7b79:	83 7d 10 00          	cmpl   $0x0,0x10(%ebp)
    7b7d:	78 0c                	js     7b8b <strtol+0x1b>
    7b7f:	83 7d 10 01          	cmpl   $0x1,0x10(%ebp)
    7b83:	74 06                	je     7b8b <strtol+0x1b>
    7b85:	83 7d 10 24          	cmpl   $0x24,0x10(%ebp)
    7b89:	7e 07                	jle    7b92 <strtol+0x22>
    7b8b:	c7 45 10 0a 00 00 00 	movl   $0xa,0x10(%ebp)
    7b92:	8b 4d 08             	mov    0x8(%ebp),%ecx
    7b95:	eb 01                	jmp    7b98 <strtol+0x28>
    7b97:	41                   	inc    %ecx
    7b98:	0f b6 01             	movzbl (%ecx),%eax
    7b9b:	3c 0b                	cmp    $0xb,%al
    7b9d:	74 f8                	je     7b97 <strtol+0x27>
    7b9f:	3c 09                	cmp    $0x9,%al
    7ba1:	74 f4                	je     7b97 <strtol+0x27>
    7ba3:	3c 20                	cmp    $0x20,%al
    7ba5:	74 f0                	je     7b97 <strtol+0x27>
    7ba7:	3c 0a                	cmp    $0xa,%al
    7ba9:	74 ec                	je     7b97 <strtol+0x27>
    7bab:	3c 0d                	cmp    $0xd,%al
    7bad:	8d 76 00             	lea    0x0(%esi),%esi
    7bb0:	74 e5                	je     7b97 <strtol+0x27>
    7bb2:	3c 0c                	cmp    $0xc,%al
    7bb4:	74 e1                	je     7b97 <strtol+0x27>
    7bb6:	84 c0                	test   %al,%al
    7bb8:	0f 84 3f 01 00 00    	je     7cfd <strtol+0x18d>
    7bbe:	3c 2d                	cmp    $0x2d,%al
    7bc0:	75 0a                	jne    7bcc <strtol+0x5c>
    7bc2:	41                   	inc    %ecx
    7bc3:	c7 45 e8 01 00 00 00 	movl   $0x1,-0x18(%ebp)
    7bca:	eb 15                	jmp    7be1 <strtol+0x71>
    7bcc:	c7 45 e8 00 00 00 00 	movl   $0x0,-0x18(%ebp)
    7bd3:	3c 2b                	cmp    $0x2b,%al
    7bd5:	75 0a                	jne    7be1 <strtol+0x71>
    7bd7:	8d 49 01             	lea    0x1(%ecx),%ecx
    7bda:	c7 45 e8 00 00 00 00 	movl   $0x0,-0x18(%ebp)
    7be1:	83 7d 10 10          	cmpl   $0x10,0x10(%ebp)
    7be5:	75 10                	jne    7bf7 <strtol+0x87>
    7be7:	80 39 30             	cmpb   $0x30,(%ecx)
    7bea:	75 36                	jne    7c22 <strtol+0xb2>
    7bec:	80 79 01 58          	cmpb   $0x58,0x1(%ecx)
    7bf0:	75 30                	jne    7c22 <strtol+0xb2>
    7bf2:	83 c1 02             	add    $0x2,%ecx
    7bf5:	eb 2b                	jmp    7c22 <strtol+0xb2>
    7bf7:	83 7d 10 00          	cmpl   $0x0,0x10(%ebp)
    7bfb:	90                   	nop
    7bfc:	8d 74 26 00          	lea    0x0(%esi,%eiz,1),%esi
    7c00:	75 20                	jne    7c22 <strtol+0xb2>
    7c02:	c7 45 10 0a 00 00 00 	movl   $0xa,0x10(%ebp)
    7c09:	80 39 30             	cmpb   $0x30,(%ecx)
    7c0c:	75 14                	jne    7c22 <strtol+0xb2>
    7c0e:	80 79 01 58          	cmpb   $0x58,0x1(%ecx)
    7c12:	0f 85 ff 00 00 00    	jne    7d17 <strtol+0x1a7>
    7c18:	83 c1 02             	add    $0x2,%ecx
    7c1b:	c7 45 10 10 00 00 00 	movl   $0x10,0x10(%ebp)
    7c22:	0f b6 19             	movzbl (%ecx),%ebx
    7c25:	84 db                	test   %bl,%bl
    7c27:	0f 84 d0 00 00 00    	je     7cfd <strtol+0x18d>
    7c2d:	8b 45 10             	mov    0x10(%ebp),%eax
    7c30:	89 45 e4             	mov    %eax,-0x1c(%ebp)
    7c33:	b8 ff ff ff ff       	mov    $0xffffffff,%eax
    7c38:	ba 00 00 00 00       	mov    $0x0,%edx
    7c3d:	f7 75 e4             	divl   -0x1c(%ebp)
    7c40:	89 55 ec             	mov    %edx,-0x14(%ebp)
    7c43:	89 c7                	mov    %eax,%edi
    7c45:	80 eb 30             	sub    $0x30,%bl
    7c48:	80 fb 09             	cmp    $0x9,%bl
    7c4b:	0f 87 ac 00 00 00    	ja     7cfd <strtol+0x18d>
    7c51:	0f b6 c3             	movzbl %bl,%eax
    7c54:	39 45 10             	cmp    %eax,0x10(%ebp)
    7c57:	0f 8e a0 00 00 00    	jle    7cfd <strtol+0x18d>
    7c5d:	89 ce                	mov    %ecx,%esi
    7c5f:	ba 00 00 00 00       	mov    $0x0,%edx
    7c64:	c7 45 f0 00 00 00 00 	movl   $0x0,-0x10(%ebp)
    7c6b:	eb 12                	jmp    7c7f <strtol+0x10f>
    7c6d:	88 c3                	mov    %al,%bl
    7c6f:	80 eb 30             	sub    $0x30,%bl
    7c72:	80 fb 09             	cmp    $0x9,%bl
    7c75:	77 3f                	ja     7cb6 <strtol+0x146>
    7c77:	0f b6 c3             	movzbl %bl,%eax
    7c7a:	39 45 10             	cmp    %eax,0x10(%ebp)
    7c7d:	7e 37                	jle    7cb6 <strtol+0x146>
    7c7f:	39 d7                	cmp    %edx,%edi
    7c81:	73 09                	jae    7c8c <strtol+0x11c>
    7c83:	c7 45 f0 01 00 00 00 	movl   $0x1,-0x10(%ebp)
    7c8a:	eb 22                	jmp    7cae <strtol+0x13e>
    7c8c:	39 d7                	cmp    %edx,%edi
    7c8e:	89 f6                	mov    %esi,%esi
    7c90:	75 13                	jne    7ca5 <strtol+0x135>
    7c92:	0f b6 c3             	movzbl %bl,%eax
    7c95:	39 45 ec             	cmp    %eax,-0x14(%ebp)
    7c98:	73 0b                	jae    7ca5 <strtol+0x135>
    7c9a:	89 fa                	mov    %edi,%edx
    7c9c:	c7 45 f0 01 00 00 00 	movl   $0x1,-0x10(%ebp)
    7ca3:	eb 09                	jmp    7cae <strtol+0x13e>
    7ca5:	0f af 55 e4          	imul   -0x1c(%ebp),%edx
    7ca9:	0f b6 c3             	movzbl %bl,%eax
    7cac:	01 c2                	add    %eax,%edx
    7cae:	46                   	inc    %esi
    7caf:	0f b6 06             	movzbl (%esi),%eax
    7cb2:	84 c0                	test   %al,%al
    7cb4:	75 b7                	jne    7c6d <strtol+0xfd>
    7cb6:	39 ce                	cmp    %ecx,%esi
    7cb8:	74 43                	je     7cfd <strtol+0x18d>
    7cba:	83 7d 0c 00          	cmpl   $0x0,0xc(%ebp)
    7cbe:	74 05                	je     7cc5 <strtol+0x155>
    7cc0:	8b 45 0c             	mov    0xc(%ebp),%eax
    7cc3:	89 30                	mov    %esi,(%eax)
    7cc5:	83 7d e8 01          	cmpl   $0x1,-0x18(%ebp)
    7cc9:	19 c0                	sbb    %eax,%eax
    7ccb:	2d 00 00 00 80       	sub    $0x80000000,%eax
    7cd0:	39 d0                	cmp    %edx,%eax
    7cd2:	72 06                	jb     7cda <strtol+0x16a>
    7cd4:	83 7d f0 00          	cmpl   $0x0,-0x10(%ebp)
    7cd8:	74 17                	je     7cf1 <strtol+0x181>
    7cda:	c7 05 24 cd 12 00 00 	movl   $0x0,0x12cd24
    7ce1:	00 00 00 
    7ce4:	83 7d e8 01          	cmpl   $0x1,-0x18(%ebp)
    7ce8:	19 c0                	sbb    %eax,%eax
    7cea:	2d 00 00 00 80       	sub    $0x80000000,%eax
    7cef:	eb 47                	jmp    7d38 <strtol+0x1c8>
    7cf1:	89 d0                	mov    %edx,%eax
    7cf3:	83 7d e8 00          	cmpl   $0x0,-0x18(%ebp)
    7cf7:	74 3f                	je     7d38 <strtol+0x1c8>
    7cf9:	f7 d8                	neg    %eax
    7cfb:	eb 3b                	jmp    7d38 <strtol+0x1c8>
    7cfd:	b8 00 00 00 00       	mov    $0x0,%eax
    7d02:	83 7d 0c 00          	cmpl   $0x0,0xc(%ebp)
    7d06:	74 30                	je     7d38 <strtol+0x1c8>
    7d08:	8b 45 08             	mov    0x8(%ebp),%eax
    7d0b:	8b 55 0c             	mov    0xc(%ebp),%edx
    7d0e:	89 02                	mov    %eax,(%edx)
    7d10:	b8 00 00 00 00       	mov    $0x0,%eax
    7d15:	eb 21                	jmp    7d38 <strtol+0x1c8>
    7d17:	b3 00                	mov    $0x0,%bl
    7d19:	c7 45 10 08 00 00 00 	movl   $0x8,0x10(%ebp)
    7d20:	c7 45 e4 08 00 00 00 	movl   $0x8,-0x1c(%ebp)
    7d27:	bf ff ff ff 1f       	mov    $0x1fffffff,%edi
    7d2c:	c7 45 ec 07 00 00 00 	movl   $0x7,-0x14(%ebp)
    7d33:	e9 19 ff ff ff       	jmp    7c51 <strtol+0xe1>
    7d38:	83 c4 10             	add    $0x10,%esp
    7d3b:	5b                   	pop    %ebx
    7d3c:	5e                   	pop    %esi
    7d3d:	5f                   	pop    %edi
    7d3e:	5d                   	pop    %ebp
    7d3f:	c3                   	ret    

00007d40 <memset>:
    7d40:	55                   	push   %ebp
    7d41:	89 e5                	mov    %esp,%ebp
    7d43:	83 ec 08             	sub    $0x8,%esp
    7d46:	89 1c 24             	mov    %ebx,(%esp)
    7d49:	89 7c 24 04          	mov    %edi,0x4(%esp)
    7d4d:	8b 7d 08             	mov    0x8(%ebp),%edi
    7d50:	8b 5d 10             	mov    0x10(%ebp),%ebx
    7d53:	0f b6 45 0c          	movzbl 0xc(%ebp),%eax
    7d57:	89 c2                	mov    %eax,%edx
    7d59:	c1 e2 08             	shl    $0x8,%edx
    7d5c:	09 d0                	or     %edx,%eax
    7d5e:	89 c2                	mov    %eax,%edx
    7d60:	c1 e2 10             	shl    $0x10,%edx
    7d63:	09 d0                	or     %edx,%eax
    7d65:	89 d9                	mov    %ebx,%ecx
    7d67:	83 e1 fc             	and    $0xfffffffc,%ecx
    7d6a:	89 da                	mov    %ebx,%edx
    7d6c:	83 e2 03             	and    $0x3,%edx
    7d6f:	57                   	push   %edi
    7d70:	51                   	push   %ecx
    7d71:	fc                   	cld    
    7d72:	f3 ab                	rep stos %eax,%es:(%edi)
    7d74:	89 d1                	mov    %edx,%ecx
    7d76:	f3 aa                	rep stos %al,%es:(%edi)
    7d78:	59                   	pop    %ecx
    7d79:	5f                   	pop    %edi
    7d7a:	89 f8                	mov    %edi,%eax
    7d7c:	8b 1c 24             	mov    (%esp),%ebx
    7d7f:	8b 7c 24 04          	mov    0x4(%esp),%edi
    7d83:	89 ec                	mov    %ebp,%esp
    7d85:	5d                   	pop    %ebp
    7d86:	c3                   	ret    
    7d87:	90                   	nop
    7d88:	90                   	nop
    7d89:	90                   	nop
    7d8a:	90                   	nop
    7d8b:	90                   	nop
    7d8c:	90                   	nop
    7d8d:	90                   	nop
    7d8e:	90                   	nop
    7d8f:	90                   	nop

00007d90 <vsprintf>:
    7d90:	55                   	push   %ebp
    7d91:	89 e5                	mov    %esp,%ebp
    7d93:	57                   	push   %edi
    7d94:	56                   	push   %esi
    7d95:	53                   	push   %ebx
    7d96:	83 ec 0c             	sub    $0xc,%esp
    7d99:	8b 5d 08             	mov    0x8(%ebp),%ebx
    7d9c:	8b 75 0c             	mov    0xc(%ebp),%esi
    7d9f:	0f b6 06             	movzbl (%esi),%eax
    7da2:	bf 00 00 00 00       	mov    $0x0,%edi
    7da7:	84 c0                	test   %al,%al
    7da9:	0f 84 08 01 00 00    	je     7eb7 <vsprintf+0x127>
    7daf:	bf 00 00 00 00       	mov    $0x0,%edi
    7db4:	3c 25                	cmp    $0x25,%al
    7db6:	74 09                	je     7dc1 <vsprintf+0x31>
    7db8:	88 03                	mov    %al,(%ebx)
    7dba:	43                   	inc    %ebx
    7dbb:	47                   	inc    %edi
    7dbc:	e9 ea 00 00 00       	jmp    7eab <vsprintf+0x11b>
    7dc1:	46                   	inc    %esi
    7dc2:	0f b6 06             	movzbl (%esi),%eax
    7dc5:	3c 69                	cmp    $0x69,%al
    7dc7:	74 36                	je     7dff <vsprintf+0x6f>
    7dc9:	3c 69                	cmp    $0x69,%al
    7dcb:	7f 15                	jg     7de2 <vsprintf+0x52>
    7dcd:	3c 63                	cmp    $0x63,%al
    7dcf:	90                   	nop
    7dd0:	74 64                	je     7e36 <vsprintf+0xa6>
    7dd2:	3c 64                	cmp    $0x64,%al
    7dd4:	74 29                	je     7dff <vsprintf+0x6f>
    7dd6:	3c 25                	cmp    $0x25,%al
    7dd8:	0f 85 cd 00 00 00    	jne    7eab <vsprintf+0x11b>
    7dde:	89 f6                	mov    %esi,%esi
    7de0:	eb 13                	jmp    7df5 <vsprintf+0x65>
    7de2:	3c 73                	cmp    $0x73,%al
    7de4:	74 61                	je     7e47 <vsprintf+0xb7>
    7de6:	3c 78                	cmp    $0x78,%al
    7de8:	0f 85 bd 00 00 00    	jne    7eab <vsprintf+0x11b>
    7dee:	89 f6                	mov    %esi,%esi
    7df0:	e9 85 00 00 00       	jmp    7e7a <vsprintf+0xea>
    7df5:	c6 03 25             	movb   $0x25,(%ebx)
    7df8:	43                   	inc    %ebx
    7df9:	47                   	inc    %edi
    7dfa:	e9 ac 00 00 00       	jmp    7eab <vsprintf+0x11b>
    7dff:	83 45 10 04          	addl   $0x4,0x10(%ebp)
    7e03:	c7 44 24 08 0a 00 00 	movl   $0xa,0x8(%esp)
    7e0a:	00 
    7e0b:	89 5c 24 04          	mov    %ebx,0x4(%esp)
    7e0f:	8b 55 10             	mov    0x10(%ebp),%edx
    7e12:	8b 42 fc             	mov    -0x4(%edx),%eax
    7e15:	89 04 24             	mov    %eax,(%esp)
    7e18:	e8 7b fa ff ff       	call   7898 <_itoaU>
    7e1d:	80 3b 00             	cmpb   $0x0,(%ebx)
    7e20:	0f 84 85 00 00 00    	je     7eab <vsprintf+0x11b>
    7e26:	89 da                	mov    %ebx,%edx
    7e28:	47                   	inc    %edi
    7e29:	0f b6 42 01          	movzbl 0x1(%edx),%eax
    7e2d:	42                   	inc    %edx
    7e2e:	84 c0                	test   %al,%al
    7e30:	75 f6                	jne    7e28 <vsprintf+0x98>
    7e32:	89 d3                	mov    %edx,%ebx
    7e34:	eb 75                	jmp    7eab <vsprintf+0x11b>
    7e36:	83 45 10 04          	addl   $0x4,0x10(%ebp)
    7e3a:	8b 55 10             	mov    0x10(%ebp),%edx
    7e3d:	0f b6 42 fc          	movzbl -0x4(%edx),%eax
    7e41:	88 03                	mov    %al,(%ebx)
    7e43:	43                   	inc    %ebx
    7e44:	47                   	inc    %edi
    7e45:	eb 64                	jmp    7eab <vsprintf+0x11b>
    7e47:	83 45 10 04          	addl   $0x4,0x10(%ebp)
    7e4b:	8b 45 10             	mov    0x10(%ebp),%eax
    7e4e:	8b 48 fc             	mov    -0x4(%eax),%ecx
    7e51:	0f b6 01             	movzbl (%ecx),%eax
    7e54:	88 03                	mov    %al,(%ebx)
    7e56:	8d 53 01             	lea    0x1(%ebx),%edx
    7e59:	84 c0                	test   %al,%al
    7e5b:	74 18                	je     7e75 <vsprintf+0xe5>
    7e5d:	ba 00 00 00 00       	mov    $0x0,%edx
    7e62:	47                   	inc    %edi
    7e63:	0f b6 44 0a 01       	movzbl 0x1(%edx,%ecx,1),%eax
    7e68:	88 44 1a 01          	mov    %al,0x1(%edx,%ebx,1)
    7e6c:	42                   	inc    %edx
    7e6d:	84 c0                	test   %al,%al
    7e6f:	75 f1                	jne    7e62 <vsprintf+0xd2>
    7e71:	8d 54 1a 01          	lea    0x1(%edx,%ebx,1),%edx
    7e75:	8d 5a ff             	lea    -0x1(%edx),%ebx
    7e78:	eb 31                	jmp    7eab <vsprintf+0x11b>
    7e7a:	83 45 10 04          	addl   $0x4,0x10(%ebp)
    7e7e:	c7 44 24 08 10 00 00 	movl   $0x10,0x8(%esp)
    7e85:	00 
    7e86:	89 5c 24 04          	mov    %ebx,0x4(%esp)
    7e8a:	8b 55 10             	mov    0x10(%ebp),%edx
    7e8d:	8b 42 fc             	mov    -0x4(%edx),%eax
    7e90:	89 04 24             	mov    %eax,(%esp)
    7e93:	e8 00 fa ff ff       	call   7898 <_itoaU>
    7e98:	80 3b 00             	cmpb   $0x0,(%ebx)
    7e9b:	74 0e                	je     7eab <vsprintf+0x11b>
    7e9d:	89 da                	mov    %ebx,%edx
    7e9f:	47                   	inc    %edi
    7ea0:	0f b6 42 01          	movzbl 0x1(%edx),%eax
    7ea4:	42                   	inc    %edx
    7ea5:	84 c0                	test   %al,%al
    7ea7:	75 f6                	jne    7e9f <vsprintf+0x10f>
    7ea9:	89 d3                	mov    %edx,%ebx
    7eab:	46                   	inc    %esi
    7eac:	0f b6 06             	movzbl (%esi),%eax
    7eaf:	84 c0                	test   %al,%al
    7eb1:	0f 85 fd fe ff ff    	jne    7db4 <vsprintf+0x24>
    7eb7:	c6 03 00             	movb   $0x0,(%ebx)
    7eba:	89 f8                	mov    %edi,%eax
    7ebc:	83 c4 0c             	add    $0xc,%esp
    7ebf:	5b                   	pop    %ebx
    7ec0:	5e                   	pop    %esi
    7ec1:	5f                   	pop    %edi
    7ec2:	5d                   	pop    %ebp
    7ec3:	c3                   	ret    

00007ec4 <printf>:
    7ec4:	55                   	push   %ebp
    7ec5:	89 e5                	mov    %esp,%ebp
    7ec7:	57                   	push   %edi
    7ec8:	56                   	push   %esi
    7ec9:	53                   	push   %ebx
    7eca:	83 ec 1c             	sub    $0x1c,%esp
    7ecd:	8b 5d 08             	mov    0x8(%ebp),%ebx
    7ed0:	0f b6 03             	movzbl (%ebx),%eax
    7ed3:	84 c0                	test   %al,%al
    7ed5:	75 0f                	jne    7ee6 <printf+0x22>
    7ed7:	bf 00 00 00 00       	mov    $0x0,%edi
    7edc:	be 60 b9 11 00       	mov    $0x11b960,%esi
    7ee1:	e9 11 01 00 00       	jmp    7ff7 <printf+0x133>
    7ee6:	8d 55 0c             	lea    0xc(%ebp),%edx
    7ee9:	89 55 f0             	mov    %edx,-0x10(%ebp)
    7eec:	bf 00 00 00 00       	mov    $0x0,%edi
    7ef1:	be 60 b9 11 00       	mov    $0x11b960,%esi
    7ef6:	3c 25                	cmp    $0x25,%al
    7ef8:	74 09                	je     7f03 <printf+0x3f>
    7efa:	88 06                	mov    %al,(%esi)
    7efc:	46                   	inc    %esi
    7efd:	47                   	inc    %edi
    7efe:	e9 e8 00 00 00       	jmp    7feb <printf+0x127>
    7f03:	43                   	inc    %ebx
    7f04:	0f b6 03             	movzbl (%ebx),%eax
    7f07:	3c 69                	cmp    $0x69,%al
    7f09:	74 34                	je     7f3f <printf+0x7b>
    7f0b:	3c 69                	cmp    $0x69,%al
    7f0d:	7f 13                	jg     7f22 <printf+0x5e>
    7f0f:	3c 63                	cmp    $0x63,%al
    7f11:	74 63                	je     7f76 <printf+0xb2>
    7f13:	3c 64                	cmp    $0x64,%al
    7f15:	74 28                	je     7f3f <printf+0x7b>
    7f17:	3c 25                	cmp    $0x25,%al
    7f19:	0f 85 cc 00 00 00    	jne    7feb <printf+0x127>
    7f1f:	90                   	nop
    7f20:	eb 13                	jmp    7f35 <printf+0x71>
    7f22:	3c 73                	cmp    $0x73,%al
    7f24:	74 61                	je     7f87 <printf+0xc3>
    7f26:	3c 78                	cmp    $0x78,%al
    7f28:	0f 85 bd 00 00 00    	jne    7feb <printf+0x127>
    7f2e:	89 f6                	mov    %esi,%esi
    7f30:	e9 85 00 00 00       	jmp    7fba <printf+0xf6>
    7f35:	c6 06 25             	movb   $0x25,(%esi)
    7f38:	46                   	inc    %esi
    7f39:	47                   	inc    %edi
    7f3a:	e9 ac 00 00 00       	jmp    7feb <printf+0x127>
    7f3f:	83 45 f0 04          	addl   $0x4,-0x10(%ebp)
    7f43:	c7 44 24 08 0a 00 00 	movl   $0xa,0x8(%esp)
    7f4a:	00 
    7f4b:	89 74 24 04          	mov    %esi,0x4(%esp)
    7f4f:	8b 55 f0             	mov    -0x10(%ebp),%edx
    7f52:	8b 42 fc             	mov    -0x4(%edx),%eax
    7f55:	89 04 24             	mov    %eax,(%esp)
    7f58:	e8 3b f9 ff ff       	call   7898 <_itoaU>
    7f5d:	80 3e 00             	cmpb   $0x0,(%esi)
    7f60:	0f 84 85 00 00 00    	je     7feb <printf+0x127>
    7f66:	89 f2                	mov    %esi,%edx
    7f68:	47                   	inc    %edi
    7f69:	0f b6 42 01          	movzbl 0x1(%edx),%eax
    7f6d:	42                   	inc    %edx
    7f6e:	84 c0                	test   %al,%al
    7f70:	75 f6                	jne    7f68 <printf+0xa4>
    7f72:	89 d6                	mov    %edx,%esi
    7f74:	eb 75                	jmp    7feb <printf+0x127>
    7f76:	83 45 f0 04          	addl   $0x4,-0x10(%ebp)
    7f7a:	8b 55 f0             	mov    -0x10(%ebp),%edx
    7f7d:	0f b6 42 fc          	movzbl -0x4(%edx),%eax
    7f81:	88 06                	mov    %al,(%esi)
    7f83:	46                   	inc    %esi
    7f84:	47                   	inc    %edi
    7f85:	eb 64                	jmp    7feb <printf+0x127>
    7f87:	83 45 f0 04          	addl   $0x4,-0x10(%ebp)
    7f8b:	8b 45 f0             	mov    -0x10(%ebp),%eax
    7f8e:	8b 48 fc             	mov    -0x4(%eax),%ecx
    7f91:	0f b6 01             	movzbl (%ecx),%eax
    7f94:	88 06                	mov    %al,(%esi)
    7f96:	8d 56 01             	lea    0x1(%esi),%edx
    7f99:	84 c0                	test   %al,%al
    7f9b:	74 18                	je     7fb5 <printf+0xf1>
    7f9d:	ba 00 00 00 00       	mov    $0x0,%edx
    7fa2:	47                   	inc    %edi
    7fa3:	0f b6 44 0a 01       	movzbl 0x1(%edx,%ecx,1),%eax
    7fa8:	88 44 32 01          	mov    %al,0x1(%edx,%esi,1)
    7fac:	42                   	inc    %edx
    7fad:	84 c0                	test   %al,%al
    7faf:	75 f1                	jne    7fa2 <printf+0xde>
    7fb1:	8d 54 32 01          	lea    0x1(%edx,%esi,1),%edx
    7fb5:	8d 72 ff             	lea    -0x1(%edx),%esi
    7fb8:	eb 31                	jmp    7feb <printf+0x127>
    7fba:	83 45 f0 04          	addl   $0x4,-0x10(%ebp)
    7fbe:	c7 44 24 08 10 00 00 	movl   $0x10,0x8(%esp)
    7fc5:	00 
    7fc6:	89 74 24 04          	mov    %esi,0x4(%esp)
    7fca:	8b 55 f0             	mov    -0x10(%ebp),%edx
    7fcd:	8b 42 fc             	mov    -0x4(%edx),%eax
    7fd0:	89 04 24             	mov    %eax,(%esp)
    7fd3:	e8 c0 f8 ff ff       	call   7898 <_itoaU>
    7fd8:	80 3e 00             	cmpb   $0x0,(%esi)
    7fdb:	74 0e                	je     7feb <printf+0x127>
    7fdd:	89 f2                	mov    %esi,%edx
    7fdf:	47                   	inc    %edi
    7fe0:	0f b6 42 01          	movzbl 0x1(%edx),%eax
    7fe4:	42                   	inc    %edx
    7fe5:	84 c0                	test   %al,%al
    7fe7:	75 f6                	jne    7fdf <printf+0x11b>
    7fe9:	89 d6                	mov    %edx,%esi
    7feb:	43                   	inc    %ebx
    7fec:	0f b6 03             	movzbl (%ebx),%eax
    7fef:	84 c0                	test   %al,%al
    7ff1:	0f 85 ff fe ff ff    	jne    7ef6 <printf+0x32>
    7ff7:	c6 06 00             	movb   $0x0,(%esi)
    7ffa:	c7 04 24 60 b9 11 00 	movl   $0x11b960,(%esp)
    8001:	e8 63 b2 ff ff       	call   3269 <console_print>
    8006:	89 f8                	mov    %edi,%eax
    8008:	83 c4 1c             	add    $0x1c,%esp
    800b:	5b                   	pop    %ebx
    800c:	5e                   	pop    %esi
    800d:	5f                   	pop    %edi
    800e:	5d                   	pop    %ebp
    800f:	c3                   	ret    

00008010 <sprintf>:
    8010:	55                   	push   %ebp
    8011:	89 e5                	mov    %esp,%ebp
    8013:	57                   	push   %edi
    8014:	56                   	push   %esi
    8015:	53                   	push   %ebx
    8016:	83 ec 1c             	sub    $0x1c,%esp
    8019:	8b 5d 08             	mov    0x8(%ebp),%ebx
    801c:	8b 75 0c             	mov    0xc(%ebp),%esi
    801f:	0f b6 06             	movzbl (%esi),%eax
    8022:	bf 00 00 00 00       	mov    $0x0,%edi
    8027:	84 c0                	test   %al,%al
    8029:	0f 84 18 01 00 00    	je     8147 <sprintf+0x137>
    802f:	8d 55 10             	lea    0x10(%ebp),%edx
    8032:	89 55 f0             	mov    %edx,-0x10(%ebp)
    8035:	bf 00 00 00 00       	mov    $0x0,%edi
    803a:	3c 25                	cmp    $0x25,%al
    803c:	74 09                	je     8047 <sprintf+0x37>
    803e:	88 03                	mov    %al,(%ebx)
    8040:	43                   	inc    %ebx
    8041:	47                   	inc    %edi
    8042:	e9 f4 00 00 00       	jmp    813b <sprintf+0x12b>
    8047:	46                   	inc    %esi
    8048:	0f b6 06             	movzbl (%esi),%eax
    804b:	3c 69                	cmp    $0x69,%al
    804d:	74 40                	je     808f <sprintf+0x7f>
    804f:	3c 69                	cmp    $0x69,%al
    8051:	7f 15                	jg     8068 <sprintf+0x58>
    8053:	3c 63                	cmp    $0x63,%al
    8055:	74 6f                	je     80c6 <sprintf+0xb6>
    8057:	3c 64                	cmp    $0x64,%al
    8059:	74 34                	je     808f <sprintf+0x7f>
    805b:	3c 25                	cmp    $0x25,%al
    805d:	8d 76 00             	lea    0x0(%esi),%esi
    8060:	0f 85 d5 00 00 00    	jne    813b <sprintf+0x12b>
    8066:	eb 1d                	jmp    8085 <sprintf+0x75>
    8068:	3c 73                	cmp    $0x73,%al
    806a:	8d b6 00 00 00 00    	lea    0x0(%esi),%esi
    8070:	74 65                	je     80d7 <sprintf+0xc7>
    8072:	3c 78                	cmp    $0x78,%al
    8074:	0f 85 c1 00 00 00    	jne    813b <sprintf+0x12b>
    807a:	8d b6 00 00 00 00    	lea    0x0(%esi),%esi
    8080:	e9 85 00 00 00       	jmp    810a <sprintf+0xfa>
    8085:	c6 03 25             	movb   $0x25,(%ebx)
    8088:	43                   	inc    %ebx
    8089:	47                   	inc    %edi
    808a:	e9 ac 00 00 00       	jmp    813b <sprintf+0x12b>
    808f:	83 45 f0 04          	addl   $0x4,-0x10(%ebp)
    8093:	c7 44 24 08 0a 00 00 	movl   $0xa,0x8(%esp)
    809a:	00 
    809b:	89 5c 24 04          	mov    %ebx,0x4(%esp)
    809f:	8b 55 f0             	mov    -0x10(%ebp),%edx
    80a2:	8b 42 fc             	mov    -0x4(%edx),%eax
    80a5:	89 04 24             	mov    %eax,(%esp)
    80a8:	e8 eb f7 ff ff       	call   7898 <_itoaU>
    80ad:	80 3b 00             	cmpb   $0x0,(%ebx)
    80b0:	0f 84 85 00 00 00    	je     813b <sprintf+0x12b>
    80b6:	89 da                	mov    %ebx,%edx
    80b8:	47                   	inc    %edi
    80b9:	0f b6 42 01          	movzbl 0x1(%edx),%eax
    80bd:	42                   	inc    %edx
    80be:	84 c0                	test   %al,%al
    80c0:	75 f6                	jne    80b8 <sprintf+0xa8>
    80c2:	89 d3                	mov    %edx,%ebx
    80c4:	eb 75                	jmp    813b <sprintf+0x12b>
    80c6:	83 45 f0 04          	addl   $0x4,-0x10(%ebp)
    80ca:	8b 55 f0             	mov    -0x10(%ebp),%edx
    80cd:	0f b6 42 fc          	movzbl -0x4(%edx),%eax
    80d1:	88 03                	mov    %al,(%ebx)
    80d3:	43                   	inc    %ebx
    80d4:	47                   	inc    %edi
    80d5:	eb 64                	jmp    813b <sprintf+0x12b>
    80d7:	83 45 f0 04          	addl   $0x4,-0x10(%ebp)
    80db:	8b 45 f0             	mov    -0x10(%ebp),%eax
    80de:	8b 48 fc             	mov    -0x4(%eax),%ecx
    80e1:	0f b6 01             	movzbl (%ecx),%eax
    80e4:	88 03                	mov    %al,(%ebx)
    80e6:	8d 53 01             	lea    0x1(%ebx),%edx
    80e9:	84 c0                	test   %al,%al
    80eb:	74 18                	je     8105 <sprintf+0xf5>
    80ed:	ba 00 00 00 00       	mov    $0x0,%edx
    80f2:	47                   	inc    %edi
    80f3:	0f b6 44 0a 01       	movzbl 0x1(%edx,%ecx,1),%eax
    80f8:	88 44 1a 01          	mov    %al,0x1(%edx,%ebx,1)
    80fc:	42                   	inc    %edx
    80fd:	84 c0                	test   %al,%al
    80ff:	75 f1                	jne    80f2 <sprintf+0xe2>
    8101:	8d 54 1a 01          	lea    0x1(%edx,%ebx,1),%edx
    8105:	8d 5a ff             	lea    -0x1(%edx),%ebx
    8108:	eb 31                	jmp    813b <sprintf+0x12b>
    810a:	83 45 f0 04          	addl   $0x4,-0x10(%ebp)
    810e:	c7 44 24 08 10 00 00 	movl   $0x10,0x8(%esp)
    8115:	00 
    8116:	89 5c 24 04          	mov    %ebx,0x4(%esp)
    811a:	8b 55 f0             	mov    -0x10(%ebp),%edx
    811d:	8b 42 fc             	mov    -0x4(%edx),%eax
    8120:	89 04 24             	mov    %eax,(%esp)
    8123:	e8 70 f7 ff ff       	call   7898 <_itoaU>
    8128:	80 3b 00             	cmpb   $0x0,(%ebx)
    812b:	74 0e                	je     813b <sprintf+0x12b>
    812d:	89 da                	mov    %ebx,%edx
    812f:	47                   	inc    %edi
    8130:	0f b6 42 01          	movzbl 0x1(%edx),%eax
    8134:	42                   	inc    %edx
    8135:	84 c0                	test   %al,%al
    8137:	75 f6                	jne    812f <sprintf+0x11f>
    8139:	89 d3                	mov    %edx,%ebx
    813b:	46                   	inc    %esi
    813c:	0f b6 06             	movzbl (%esi),%eax
    813f:	84 c0                	test   %al,%al
    8141:	0f 85 f3 fe ff ff    	jne    803a <sprintf+0x2a>
    8147:	c6 03 00             	movb   $0x0,(%ebx)
    814a:	89 f8                	mov    %edi,%eax
    814c:	83 c4 1c             	add    $0x1c,%esp
    814f:	5b                   	pop    %ebx
    8150:	5e                   	pop    %esi
    8151:	5f                   	pop    %edi
    8152:	5d                   	pop    %ebp
    8153:	c3                   	ret    

00008154 <kscm_init_paging>:
    8154:	55                   	push   %ebp
    8155:	89 e5                	mov    %esp,%ebp
    8157:	57                   	push   %edi
    8158:	56                   	push   %esi
    8159:	83 ec 10             	sub    $0x10,%esp
    815c:	be 00 00 00 00       	mov    $0x0,%esi
    8161:	0f b7 05 02 00 09 00 	movzwl 0x90002,%eax
    8168:	c1 e0 0a             	shl    $0xa,%eax
    816b:	05 00 00 10 00       	add    $0x100000,%eax
    8170:	a3 60 bd 11 00       	mov    %eax,0x11bd60
    8175:	c7 05 80 94 00 00 00 	movl   $0x0,0x9480
    817c:	00 00 00 
    817f:	c7 05 84 94 00 00 00 	movl   $0x400000,0x9484
    8186:	00 40 00 
    8189:	66 c7 05 88 94 00 00 	movw   $0xffff,0x9488
    8190:	ff ff 
    8192:	c7 05 8c 94 00 00 00 	movl   $0x800000,0x948c
    8199:	00 80 00 
    819c:	c7 05 90 94 00 00 00 	movl   $0x1000,0x9490
    81a3:	10 00 00 
    81a6:	66 c7 05 94 94 00 00 	movw   $0x0,0x9494
    81ad:	00 00 
    81af:	c7 05 98 94 00 00 00 	movl   $0x3fbff000,0x9498
    81b6:	f0 bf 3f 
    81b9:	c7 05 9c 94 00 00 00 	movl   $0x1000,0x949c
    81c0:	10 00 00 
    81c3:	66 c7 05 a0 94 00 00 	movw   $0x1,0x94a0
    81ca:	01 00 
    81cc:	c7 05 a4 94 00 00 00 	movl   $0x40000000,0x94a4
    81d3:	00 00 40 
    81d6:	c7 05 a8 94 00 00 00 	movl   $0x1000,0x94a8
    81dd:	10 00 00 
    81e0:	66 c7 05 ac 94 00 00 	movw   $0x0,0x94ac
    81e7:	00 00 
    81e9:	a1 bc cc 12 00       	mov    0x12ccbc,%eax
    81ee:	c7 00 80 94 00 00    	movl   $0x9480,(%eax)
    81f4:	b8 00 00 00 00       	mov    $0x0,%eax
    81f9:	ba 80 bd 11 00       	mov    $0x11bd80,%edx
    81fe:	c7 04 82 ff ff ff ff 	movl   $0xffffffff,(%edx,%eax,4)
    8205:	40                   	inc    %eax
    8206:	3d bf 3f 00 00       	cmp    $0x3fbf,%eax
    820b:	76 f1                	jbe    81fe <kscm_init_paging+0xaa>
    820d:	b8 02 00 00 00       	mov    $0x2,%eax
    8212:	c7 04 86 00 00 00 00 	movl   $0x0,(%esi,%eax,4)
    8219:	40                   	inc    %eax
    821a:	3d ff 03 00 00       	cmp    $0x3ff,%eax
    821f:	76 f1                	jbe    8212 <kscm_init_paging+0xbe>
    8221:	8b 3d 98 94 00 00    	mov    0x9498,%edi
    8227:	e8 b1 00 00 00       	call   82dd <get_free_frame>
    822c:	89 c1                	mov    %eax,%ecx
    822e:	89 fa                	mov    %edi,%edx
    8230:	c1 ea 16             	shr    $0x16,%edx
    8233:	83 c8 07             	or     $0x7,%eax
    8236:	89 04 96             	mov    %eax,(%esi,%edx,4)
    8239:	89 c8                	mov    %ecx,%eax
    823b:	25 00 00 c0 ff       	and    $0xffc00000,%eax
    8240:	0d 87 00 00 00       	or     $0x87,%eax
    8245:	a3 fc 03 00 00       	mov    %eax,0x3fc
    824a:	89 c8                	mov    %ecx,%eax
    824c:	25 ff ff 3f 00       	and    $0x3fffff,%eax
    8251:	89 c6                	mov    %eax,%esi
    8253:	81 ce 00 00 c0 3f    	or     $0x3fc00000,%esi
    8259:	89 f0                	mov    %esi,%eax
    825b:	ba ff 03 00 00       	mov    $0x3ff,%edx
    8260:	c7 00 00 00 00 00    	movl   $0x0,(%eax)
    8266:	83 c0 04             	add    $0x4,%eax
    8269:	4a                   	dec    %edx
    826a:	79 f4                	jns    8260 <kscm_init_paging+0x10c>
    826c:	e8 6c 00 00 00       	call   82dd <get_free_frame>
    8271:	89 c1                	mov    %eax,%ecx
    8273:	89 f8                	mov    %edi,%eax
    8275:	c1 e8 0c             	shr    $0xc,%eax
    8278:	25 ff 03 00 00       	and    $0x3ff,%eax
    827d:	89 ca                	mov    %ecx,%edx
    827f:	83 ca 07             	or     $0x7,%edx
    8282:	89 14 86             	mov    %edx,(%esi,%eax,4)
    8285:	a1 80 94 00 00       	mov    0x9480,%eax
    828a:	03 05 84 94 00 00    	add    0x9484,%eax
    8290:	8d b0 00 f0 ff ff    	lea    -0x1000(%eax),%esi
    8296:	b9 00 04 00 00       	mov    $0x400,%ecx
    829b:	56                   	push   %esi
    829c:	57                   	push   %edi
    829d:	fc                   	cld    
    829e:	f3 a5                	rep movsl %ds:(%esi),%es:(%edi)
    82a0:	5f                   	pop    %edi
    82a1:	5e                   	pop    %esi
    82a2:	a1 98 94 00 00       	mov    0x9498,%eax
    82a7:	89 c7                	mov    %eax,%edi
    82a9:	03 3d 9c 94 00 00    	add    0x949c,%edi
    82af:	89 f8                	mov    %edi,%eax
    82b1:	2b 05 80 94 00 00    	sub    0x9480,%eax
    82b7:	2b 05 84 94 00 00    	sub    0x9484,%eax
    82bd:	01 c4                	add    %eax,%esp
    82bf:	01 c5                	add    %eax,%ebp
    82c1:	e8 17 00 00 00       	call   82dd <get_free_frame>
    82c6:	89 44 24 04          	mov    %eax,0x4(%esp)
    82ca:	c7 04 24 00 00 80 00 	movl   $0x800000,(%esp)
    82d1:	e8 9b 00 00 00       	call   8371 <put_page>
    82d6:	83 c4 10             	add    $0x10,%esp
    82d9:	5e                   	pop    %esi
    82da:	5f                   	pop    %edi
    82db:	5d                   	pop    %ebp
    82dc:	c3                   	ret    

000082dd <get_free_frame>:
    82dd:	55                   	push   %ebp
    82de:	89 e5                	mov    %esp,%ebp
    82e0:	56                   	push   %esi
    82e1:	53                   	push   %ebx
    82e2:	ba 00 00 00 00       	mov    $0x0,%edx
    82e7:	83 3d 80 bd 11 00 00 	cmpl   $0x0,0x11bd80
    82ee:	75 14                	jne    8304 <get_free_frame+0x27>
    82f0:	b8 80 bd 11 00       	mov    $0x11bd80,%eax
    82f5:	42                   	inc    %edx
    82f6:	81 fa bf 3f 00 00    	cmp    $0x3fbf,%edx
    82fc:	77 06                	ja     8304 <get_free_frame+0x27>
    82fe:	83 3c 90 00          	cmpl   $0x0,(%eax,%edx,4)
    8302:	74 f1                	je     82f5 <get_free_frame+0x18>
    8304:	b8 00 00 00 00       	mov    $0x0,%eax
    8309:	81 fa c0 3f 00 00    	cmp    $0x3fc0,%edx
    830f:	74 35                	je     8346 <get_free_frame+0x69>
    8311:	eb 09                	jmp    831c <get_free_frame+0x3f>
    8313:	f7 d0                	not    %eax
    8315:	21 c8                	and    %ecx,%eax
    8317:	89 04 96             	mov    %eax,(%esi,%edx,4)
    831a:	eb 1b                	jmp    8337 <get_free_frame+0x5a>
    831c:	bb 00 00 00 00       	mov    $0x0,%ebx
    8321:	b8 01 00 00 00       	mov    $0x1,%eax
    8326:	be 80 bd 11 00       	mov    $0x11bd80,%esi
    832b:	8b 0c 96             	mov    (%esi,%edx,4),%ecx
    832e:	85 c1                	test   %eax,%ecx
    8330:	75 e1                	jne    8313 <get_free_frame+0x36>
    8332:	43                   	inc    %ebx
    8333:	01 c0                	add    %eax,%eax
    8335:	75 f7                	jne    832e <get_free_frame+0x51>
    8337:	89 d0                	mov    %edx,%eax
    8339:	c1 e0 05             	shl    $0x5,%eax
    833c:	01 d8                	add    %ebx,%eax
    833e:	c1 e0 0c             	shl    $0xc,%eax
    8341:	05 00 00 80 00       	add    $0x800000,%eax
    8346:	5b                   	pop    %ebx
    8347:	5e                   	pop    %esi
    8348:	5d                   	pop    %ebp
    8349:	c3                   	ret    

0000834a <free_frame>:
    834a:	55                   	push   %ebp
    834b:	89 e5                	mov    %esp,%ebp
    834d:	8b 4d 08             	mov    0x8(%ebp),%ecx
    8350:	81 e9 00 00 80 00    	sub    $0x800000,%ecx
    8356:	c1 e9 0c             	shr    $0xc,%ecx
    8359:	89 ca                	mov    %ecx,%edx
    835b:	c1 ea 05             	shr    $0x5,%edx
    835e:	83 e1 1f             	and    $0x1f,%ecx
    8361:	b8 01 00 00 00       	mov    $0x1,%eax
    8366:	d3 e0                	shl    %cl,%eax
    8368:	09 04 95 80 bd 11 00 	or     %eax,0x11bd80(,%edx,4)
    836f:	5d                   	pop    %ebp
    8370:	c3                   	ret    

00008371 <put_page>:
    8371:	55                   	push   %ebp
    8372:	89 e5                	mov    %esp,%ebp
    8374:	57                   	push   %edi
    8375:	56                   	push   %esi
    8376:	53                   	push   %ebx
    8377:	8b 7d 08             	mov    0x8(%ebp),%edi
    837a:	8b 75 0c             	mov    0xc(%ebp),%esi
    837d:	81 fe ff ff 7f 00    	cmp    $0x7fffff,%esi
    8383:	76 08                	jbe    838d <put_page+0x1c>
    8385:	3b 35 60 bd 11 00    	cmp    0x11bd60,%esi
    838b:	72 0a                	jb     8397 <put_page+0x26>
    838d:	b8 00 00 00 00       	mov    $0x0,%eax
    8392:	e9 10 01 00 00       	jmp    84a7 <put_page+0x136>
    8397:	89 f8                	mov    %edi,%eax
    8399:	c1 e8 16             	shr    $0x16,%eax
    839c:	83 3c 85 00 00 00 00 	cmpl   $0x0,0x0(,%eax,4)
    83a3:	00 
    83a4:	0f 85 ac 00 00 00    	jne    8456 <put_page+0xe5>
    83aa:	b9 00 00 00 00       	mov    $0x0,%ecx
    83af:	83 3d 80 bd 11 00 00 	cmpl   $0x0,0x11bd80
    83b6:	75 14                	jne    83cc <put_page+0x5b>
    83b8:	b8 80 bd 11 00       	mov    $0x11bd80,%eax
    83bd:	41                   	inc    %ecx
    83be:	81 f9 bf 3f 00 00    	cmp    $0x3fbf,%ecx
    83c4:	77 06                	ja     83cc <put_page+0x5b>
    83c6:	83 3c 88 00          	cmpl   $0x0,(%eax,%ecx,4)
    83ca:	74 f1                	je     83bd <put_page+0x4c>
    83cc:	b8 00 00 00 00       	mov    $0x0,%eax
    83d1:	81 f9 c0 3f 00 00    	cmp    $0x3fc0,%ecx
    83d7:	74 38                	je     8411 <put_page+0xa0>
    83d9:	eb 0d                	jmp    83e8 <put_page+0x77>
    83db:	f7 d0                	not    %eax
    83dd:	21 d0                	and    %edx,%eax
    83df:	89 04 8d 80 bd 11 00 	mov    %eax,0x11bd80(,%ecx,4)
    83e6:	eb 1a                	jmp    8402 <put_page+0x91>
    83e8:	bb 00 00 00 00       	mov    $0x0,%ebx
    83ed:	b8 01 00 00 00       	mov    $0x1,%eax
    83f2:	8b 14 8d 80 bd 11 00 	mov    0x11bd80(,%ecx,4),%edx
    83f9:	85 c2                	test   %eax,%edx
    83fb:	75 de                	jne    83db <put_page+0x6a>
    83fd:	43                   	inc    %ebx
    83fe:	01 c0                	add    %eax,%eax
    8400:	75 f7                	jne    83f9 <put_page+0x88>
    8402:	89 c8                	mov    %ecx,%eax
    8404:	c1 e0 05             	shl    $0x5,%eax
    8407:	01 d8                	add    %ebx,%eax
    8409:	c1 e0 0c             	shl    $0xc,%eax
    840c:	05 00 00 80 00       	add    $0x800000,%eax
    8411:	89 c2                	mov    %eax,%edx
    8413:	89 f9                	mov    %edi,%ecx
    8415:	c1 e9 16             	shr    $0x16,%ecx
    8418:	83 c8 03             	or     $0x3,%eax
    841b:	89 04 8d 00 00 00 00 	mov    %eax,0x0(,%ecx,4)
    8422:	89 d0                	mov    %edx,%eax
    8424:	25 00 00 c0 ff       	and    $0xffc00000,%eax
    8429:	0d 87 00 00 00       	or     $0x87,%eax
    842e:	a3 fc 03 00 00       	mov    %eax,0x3fc
    8433:	81 e2 ff ff 3f 00    	and    $0x3fffff,%edx
    8439:	89 d1                	mov    %edx,%ecx
    843b:	81 c9 00 00 c0 3f    	or     $0x3fc00000,%ecx
    8441:	89 c8                	mov    %ecx,%eax
    8443:	ba ff 03 00 00       	mov    $0x3ff,%edx
    8448:	c7 00 00 00 00 00    	movl   $0x0,(%eax)
    844e:	83 c0 04             	add    $0x4,%eax
    8451:	4a                   	dec    %edx
    8452:	79 f4                	jns    8448 <put_page+0xd7>
    8454:	eb 35                	jmp    848b <put_page+0x11a>
    8456:	89 f8                	mov    %edi,%eax
    8458:	c1 e8 16             	shr    $0x16,%eax
    845b:	f6 04 85 00 00 00 00 	testb  $0x1,0x0(,%eax,4)
    8462:	01 
    8463:	74 26                	je     848b <put_page+0x11a>
    8465:	8b 14 85 00 00 00 00 	mov    0x0(,%eax,4),%edx
    846c:	89 d0                	mov    %edx,%eax
    846e:	25 00 00 c0 ff       	and    $0xffc00000,%eax
    8473:	0d 87 00 00 00       	or     $0x87,%eax
    8478:	a3 fc 03 00 00       	mov    %eax,0x3fc
    847d:	81 e2 00 f0 3f 00    	and    $0x3ff000,%edx
    8483:	89 d1                	mov    %edx,%ecx
    8485:	81 c9 00 00 c0 3f    	or     $0x3fc00000,%ecx
    848b:	89 f8                	mov    %edi,%eax
    848d:	c1 e8 0c             	shr    $0xc,%eax
    8490:	25 ff 03 00 00       	and    $0x3ff,%eax
    8495:	89 f2                	mov    %esi,%edx
    8497:	83 ca 03             	or     $0x3,%edx
    849a:	89 14 81             	mov    %edx,(%ecx,%eax,4)
    849d:	b8 00 00 40 00       	mov    $0x400000,%eax
    84a2:	0f 22 d8             	mov    %eax,%cr3
    84a5:	89 f8                	mov    %edi,%eax
    84a7:	5b                   	pop    %ebx
    84a8:	5e                   	pop    %esi
    84a9:	5f                   	pop    %edi
    84aa:	5d                   	pop    %ebp
    84ab:	c3                   	ret    

000084ac <expand_region>:
    84ac:	55                   	push   %ebp
    84ad:	89 e5                	mov    %esp,%ebp
    84af:	57                   	push   %edi
    84b0:	56                   	push   %esi
    84b1:	53                   	push   %ebx
    84b2:	83 ec 08             	sub    $0x8,%esp
    84b5:	8b 4d 08             	mov    0x8(%ebp),%ecx
    84b8:	bf 00 00 00 00       	mov    $0x0,%edi
    84bd:	ba 00 00 00 00       	mov    $0x0,%edx
    84c2:	83 f9 03             	cmp    $0x3,%ecx
    84c5:	0f 8f 24 01 00 00    	jg     85ef <expand_region+0x143>
    84cb:	8d 04 49             	lea    (%ecx,%ecx,2),%eax
    84ce:	8b 15 bc cc 12 00    	mov    0x12ccbc,%edx
    84d4:	8b 12                	mov    (%edx),%edx
    84d6:	8d 34 82             	lea    (%edx,%eax,4),%esi
    84d9:	66 83 7e 08 00       	cmpw   $0x0,0x8(%esi)
    84de:	75 21                	jne    8501 <expand_region+0x55>
    84e0:	8b 06                	mov    (%esi),%eax
    84e2:	03 46 04             	add    0x4(%esi),%eax
    84e5:	05 00 10 00 00       	add    $0x1000,%eax
    84ea:	ba 00 00 00 00       	mov    $0x0,%edx
    84ef:	3b 46 0c             	cmp    0xc(%esi),%eax
    84f2:	0f 87 f7 00 00 00    	ja     85ef <expand_region+0x143>
    84f8:	8b 06                	mov    (%esi),%eax
    84fa:	89 c7                	mov    %eax,%edi
    84fc:	03 7e 04             	add    0x4(%esi),%edi
    84ff:	eb 4b                	jmp    854c <expand_region+0xa0>
    8501:	66 83 7e 08 01       	cmpw   $0x1,0x8(%esi)
    8506:	75 34                	jne    853c <expand_region+0x90>
    8508:	8d 0c 49             	lea    (%ecx,%ecx,2),%ecx
    850b:	a1 bc cc 12 00       	mov    0x12ccbc,%eax
    8510:	8b 10                	mov    (%eax),%edx
    8512:	8b 1e                	mov    (%esi),%ebx
    8514:	81 eb 00 10 00 00    	sub    $0x1000,%ebx
    851a:	8b 44 8a f4          	mov    -0xc(%edx,%ecx,4),%eax
    851e:	03 44 8a f8          	add    -0x8(%edx,%ecx,4),%eax
    8522:	ba 00 00 00 00       	mov    $0x0,%edx
    8527:	39 c3                	cmp    %eax,%ebx
    8529:	0f 82 c0 00 00 00    	jb     85ef <expand_region+0x143>
    852f:	8b 06                	mov    (%esi),%eax
    8531:	2d 00 10 00 00       	sub    $0x1000,%eax
    8536:	89 06                	mov    %eax,(%esi)
    8538:	89 c7                	mov    %eax,%edi
    853a:	eb 10                	jmp    854c <expand_region+0xa0>
    853c:	ba 00 00 00 00       	mov    $0x0,%edx
    8541:	66 83 7e 08 00       	cmpw   $0x0,0x8(%esi)
    8546:	0f 88 a3 00 00 00    	js     85ef <expand_region+0x143>
    854c:	81 46 04 00 10 00 00 	addl   $0x1000,0x4(%esi)
    8553:	ba 00 00 00 00       	mov    $0x0,%edx
    8558:	83 3d 80 bd 11 00 00 	cmpl   $0x0,0x11bd80
    855f:	75 14                	jne    8575 <expand_region+0xc9>
    8561:	b8 80 bd 11 00       	mov    $0x11bd80,%eax
    8566:	42                   	inc    %edx
    8567:	81 fa bf 3f 00 00    	cmp    $0x3fbf,%edx
    856d:	77 06                	ja     8575 <expand_region+0xc9>
    856f:	83 3c 90 00          	cmpl   $0x0,(%eax,%edx,4)
    8573:	74 f1                	je     8566 <expand_region+0xba>
    8575:	bb 00 00 00 00       	mov    $0x0,%ebx
    857a:	81 fa c0 3f 00 00    	cmp    $0x3fc0,%edx
    8580:	74 37                	je     85b9 <expand_region+0x10d>
    8582:	eb 09                	jmp    858d <expand_region+0xe1>
    8584:	f7 d0                	not    %eax
    8586:	21 d8                	and    %ebx,%eax
    8588:	89 04 96             	mov    %eax,(%esi,%edx,4)
    858b:	eb 1b                	jmp    85a8 <expand_region+0xfc>
    858d:	b9 00 00 00 00       	mov    $0x0,%ecx
    8592:	b8 01 00 00 00       	mov    $0x1,%eax
    8597:	be 80 bd 11 00       	mov    $0x11bd80,%esi
    859c:	8b 1c 96             	mov    (%esi,%edx,4),%ebx
    859f:	85 c3                	test   %eax,%ebx
    85a1:	75 e1                	jne    8584 <expand_region+0xd8>
    85a3:	41                   	inc    %ecx
    85a4:	01 c0                	add    %eax,%eax
    85a6:	75 f7                	jne    859f <expand_region+0xf3>
    85a8:	89 d0                	mov    %edx,%eax
    85aa:	c1 e0 05             	shl    $0x5,%eax
    85ad:	8d 1c 08             	lea    (%eax,%ecx,1),%ebx
    85b0:	c1 e3 0c             	shl    $0xc,%ebx
    85b3:	81 c3 00 00 80 00    	add    $0x800000,%ebx
    85b9:	89 5c 24 04          	mov    %ebx,0x4(%esp)
    85bd:	89 3c 24             	mov    %edi,(%esp)
    85c0:	e8 ac fd ff ff       	call   8371 <put_page>
    85c5:	89 fa                	mov    %edi,%edx
    85c7:	85 c0                	test   %eax,%eax
    85c9:	75 24                	jne    85ef <expand_region+0x143>
    85cb:	8d 8b 00 00 80 ff    	lea    -0x800000(%ebx),%ecx
    85d1:	c1 e9 0c             	shr    $0xc,%ecx
    85d4:	89 ca                	mov    %ecx,%edx
    85d6:	c1 ea 05             	shr    $0x5,%edx
    85d9:	83 e1 1f             	and    $0x1f,%ecx
    85dc:	b8 01 00 00 00       	mov    $0x1,%eax
    85e1:	d3 e0                	shl    %cl,%eax
    85e3:	09 04 95 80 bd 11 00 	or     %eax,0x11bd80(,%edx,4)
    85ea:	ba 00 00 00 00       	mov    $0x0,%edx
    85ef:	89 d0                	mov    %edx,%eax
    85f1:	83 c4 08             	add    $0x8,%esp
    85f4:	5b                   	pop    %ebx
    85f5:	5e                   	pop    %esi
    85f6:	5f                   	pop    %edi
    85f7:	5d                   	pop    %ebp
    85f8:	c3                   	ret    
