
debug/system.elf：     文件格式 elf32-i386

反汇编 .text 节：

00000000 <G_page_dir>:
       0:	fc                   	cld    
       1:	66 b8 10 00          	mov    $0x10,%ax
       5:	8e d8                	mov    %eax,%ds
       7:	8e c0                	mov    %eax,%es
       9:	8e e0                	mov    %eax,%fs
       b:	8e e8                	mov    %eax,%gs
       d:	bc 00 00 40 00       	mov    $0x400000,%esp
      12:	e8 6d 00 00 00       	call   84 <setup_idt>
      17:	e8 98 00 00 00       	call   b4 <setup_gdt>
      1c:	b8 10 00 00 00       	mov    $0x10,%eax
      21:	8e d8                	mov    %eax,%ds
      23:	8e d0                	mov    %eax,%ss
      25:	8e c0                	mov    %eax,%es
      27:	8e e0                	mov    %eax,%fs
      29:	8e e8                	mov    %eax,%gs
      2b:	31 c0                	xor    %eax,%eax
      2d:	40                   	inc    %eax
      2e:	a3 00 00 00 00       	mov    %eax,0x0
      33:	39 05 00 00 10 00    	cmp    %eax,0x100000
      39:	74 f2                	je     2d <G_page_dir+0x2d>
      3b:	e9 c0 1f 00 00       	jmp    2000 <after_page_table>

00000040 <print_reg32>:
      40:	51                   	push   %ecx
      41:	53                   	push   %ebx
      42:	66 52                	push   %dx
      44:	06                   	push   %es
      45:	50                   	push   %eax
      46:	b8 10 00 00 00       	mov    $0x10,%eax
      4b:	8e c0                	mov    %eax,%es
      4d:	58                   	pop    %eax
      4e:	b9 08 00 00 00       	mov    $0x8,%ecx
      53:	bb 1e 80 0b 00       	mov    $0xb801e,%ebx
      58:	66 ba 0f 0f          	mov    $0xf0f,%dx

0000005c <l32_1>:
      5c:	20 c2                	and    %al,%dl
      5e:	80 fa 0a             	cmp    $0xa,%dl
      61:	7c 08                	jl     6b <l32_a>
      63:	80 ea 0a             	sub    $0xa,%dl
      66:	80 c2 41             	add    $0x41,%dl
      69:	eb 03                	jmp    6e <l32_pchar>

0000006b <l32_a>:
      6b:	80 c2 30             	add    $0x30,%dl

0000006e <l32_pchar>:
      6e:	66 26 89 13          	mov    %dx,%es:(%ebx)
      72:	c1 e8 04             	shr    $0x4,%eax
      75:	83 eb 02             	sub    $0x2,%ebx
      78:	66 ba 0f 0f          	mov    $0xf0f,%dx
      7c:	e2 de                	loop   5c <l32_1>
      7e:	07                   	pop    %es
      7f:	66 5a                	pop    %dx
      81:	5b                   	pop    %ebx
      82:	59                   	pop    %ecx
      83:	c3                   	ret    

00000084 <setup_idt>:
      84:	8d 15 3e 20 00 00    	lea    0x203e,%edx
      8a:	b8 00 00 08 00       	mov    $0x80000,%eax
      8f:	66 89 d0             	mov    %dx,%ax
      92:	66 ba 00 8e          	mov    $0x8e00,%dx
      96:	8d 3d fa 20 00 00    	lea    0x20fa,%edi
      9c:	b9 00 01 00 00       	mov    $0x100,%ecx

000000a1 <rp_sidt>:
      a1:	89 07                	mov    %eax,(%edi)
      a3:	89 57 04             	mov    %edx,0x4(%edi)
      a6:	83 c7 08             	add    $0x8,%edi
      a9:	49                   	dec    %ecx
      aa:	75 f5                	jne    a1 <rp_sidt>
      ac:	0f 01 1d ec 20 00 00 	lidtl  0x20ec
      b3:	c3                   	ret    

000000b4 <setup_gdt>:
      b4:	0f 01 15 f4 20 00 00 	lgdtl  0x20f4
      bb:	c3                   	ret    
	...

00001000 <pg0>:
	...

00002000 <after_page_table>:
    2000:	bc 00 00 40 00       	mov    $0x400000,%esp
    2005:	bd 00 00 40 00       	mov    $0x400000,%ebp
    200a:	e8 6f 00 00 00       	call   207e <setup_paging>
    200f:	e8 e4 13 00 00       	call   33f8 <main>
    2014:	f4                   	hlt    

00002015 <shut_down_msg>:
    2015:	0a 0d 68 61 6c 74    	or     0x746c6168,%cl
    201b:	20 73 79             	and    %dh,0x79(%ebx)
    201e:	73 74                	jae    2094 <setup_paging+0x16>
    2020:	65                   	gs
    2021:	6d                   	insl   (%dx),%es:(%edi)
    2022:	2e 2e 2e 0a 0d 00 00 	or     %cs:0x6e550000,%cl
    2029:	55 6e 

00002029 <int_msg>:
    2029:	55                   	push   %ebp
    202a:	6e                   	outsb  %ds:(%esi),(%dx)
    202b:	6b 6e 6f 77          	imul   $0x77,0x6f(%esi),%ebp
    202f:	6e                   	outsb  %ds:(%esi),(%dx)
    2030:	20 69 6e             	and    %ch,0x6e(%ecx)
    2033:	74 65                	je     209a <setup_paging+0x1c>
    2035:	72 72                	jb     20a9 <setup_paging+0x2b>
    2037:	75 70                	jne    20a9 <setup_paging+0x2b>
    2039:	74 0a                	je     2045 <ignore_int+0x7>
    203b:	0d 00 00 fc 50       	or     $0x50fc0000,%eax

0000203e <ignore_int>:
    203e:	fc                   	cld    
    203f:	50                   	push   %eax
    2040:	51                   	push   %ecx
    2041:	52                   	push   %edx
    2042:	1e                   	push   %ds
    2043:	06                   	push   %es
    2044:	0f a0                	push   %fs
    2046:	b8 10 00 00 00       	mov    $0x10,%eax
    204b:	8e d8                	mov    %eax,%ds
    204d:	8e c0                	mov    %eax,%es
    204f:	8e e0                	mov    %eax,%fs
    2051:	68 29 20 00 00       	push   $0x2029
    2056:	e8 f9 5f 00 00       	call   8054 <printf>
    205b:	58                   	pop    %eax
    205c:	0f a1                	pop    %fs
    205e:	07                   	pop    %es
    205f:	1f                   	pop    %ds
    2060:	5a                   	pop    %edx
    2061:	59                   	pop    %ecx
    2062:	58                   	pop    %eax
    2063:	cf                   	iret   

00002064 <setup_mtrr>:
    2064:	31 d2                	xor    %edx,%edx
    2066:	31 c0                	xor    %eax,%eax
    2068:	b9 50 02 00 00       	mov    $0x250,%ecx
    206d:	0f 30                	wrmsr  
    206f:	b9 58 02 00 00       	mov    $0x258,%ecx
    2074:	0f 30                	wrmsr  
    2076:	b9 59 02 00 00       	mov    $0x259,%ecx
    207b:	0f 30                	wrmsr  
    207d:	c3                   	ret    

0000207e <setup_paging>:
    207e:	c7 05 00 00 00 00 87 	movl   $0x87,0x0
    2085:	00 00 00 
    2088:	c7 05 04 00 00 00 87 	movl   $0x400087,0x4
    208f:	00 40 00 
    2092:	0f 20 e0             	mov    %cr4,%eax
    2095:	83 c8 10             	or     $0x10,%eax
    2098:	0f 22 e0             	mov    %eax,%cr4
    209b:	b8 00 00 00 00       	mov    $0x0,%eax
    20a0:	0f 22 d8             	mov    %eax,%cr3
    20a3:	0f 20 c0             	mov    %cr0,%eax
    20a6:	0d 00 00 00 80       	or     $0x80000000,%eax
    20ab:	0f 22 c0             	mov    %eax,%cr0
    20ae:	57                   	push   %edi
    20af:	56                   	push   %esi
    20b0:	b9 00 00 40 00       	mov    $0x400000,%ecx
    20b5:	be 00 00 00 00       	mov    $0x0,%esi
    20ba:	bf 00 00 40 00       	mov    $0x400000,%edi
    20bf:	fc                   	cld    
    20c0:	f3 a4                	repz movsb %ds:(%esi),%es:(%edi)
    20c2:	5e                   	pop    %esi
    20c3:	5f                   	pop    %edi
    20c4:	b8 00 00 40 00       	mov    $0x400000,%eax
    20c9:	0f 22 d8             	mov    %eax,%cr3
    20cc:	c7 05 00 00 40 00 87 	movl   $0x400087,0x400000
    20d3:	00 40 00 
    20d6:	c7 05 04 00 00 00 97 	movl   $0x97,0x4
    20dd:	00 00 00 
    20e0:	b8 00 00 40 00       	mov    $0x400000,%eax
    20e5:	0f 22 d8             	mov    %eax,%cr3
    20e8:	c3                   	ret    
    20e9:	90                   	nop    
	...

000020ec <idt_descr>:
    20ec:	ff 07                	incl   (%edi)
    20ee:	fa                   	cli    
    20ef:	20 00                	and    %al,(%eax)
    20f1:	00 00                	add    %al,(%eax)
	...

000020f4 <gdt_descr>:
    20f4:	ff 07                	incl   (%edi)
    20f6:	fa                   	cli    
    20f7:	28 00                	sub    %al,(%eax)
	...

000020fa <G_idt>:
	...

000028fa <G_gdt>:
	...
    2902:	ff                   	(bad)  
    2903:	ff 00                	incl   (%eax)
    2905:	00 00                	add    %al,(%eax)
    2907:	9a cf 00 ff ff 00 00 	lcall  $0x0,$0xffff00cf
    290e:	00 92 cf 00 00 00    	add    %dl,0xcf(%edx)
	...
    30f0:	00 00                	add    %al,(%eax)
    30f2:	90                   	nop    
    30f3:	90                   	nop    

000030f4 <console_init>:
    30f4:	55                   	push   %ebp
    30f5:	89 e5                	mov    %esp,%ebp
    30f7:	83 3d 14 95 00 00 01 	cmpl   $0x1,0x9514
    30fe:	0f 84 b1 00 00 00    	je     31b5 <console_init+0xc1>
    3104:	0f b7 05 0a 00 09 00 	movzwl 0x9000a,%eax
    310b:	f6 c4 ff             	test   $0xff,%ah
    310e:	74 15                	je     3125 <console_init+0x31>
    3110:	66 c7 05 18 95 00 00 	movw   $0x0,0x9518
    3117:	00 00 
    3119:	c7 05 1c 95 00 00 00 	movl   $0x4b0000,0x951c
    3120:	00 4b 00 
    3123:	eb 13                	jmp    3138 <console_init+0x44>
    3125:	66 c7 05 18 95 00 00 	movw   $0x1,0x9518
    312c:	01 00 
    312e:	c7 05 1c 95 00 00 00 	movl   $0x4b8000,0x951c
    3135:	80 4b 00 
    3138:	0f b6 05 00 00 09 00 	movzbl 0x90000,%eax
    313f:	a2 00 95 00 00       	mov    %al,0x9500
    3144:	0f b6 05 01 00 09 00 	movzbl 0x90001,%eax
    314b:	a2 01 95 00 00       	mov    %al,0x9501
    3150:	0f b6 c0             	movzbl %al,%eax
    3153:	0f b6 0d 07 00 09 00 	movzbl 0x90007,%ecx
    315a:	0f af c1             	imul   %ecx,%eax
    315d:	66 0f b6 15 00 00 09 	movzbw 0x90000,%dx
    3164:	00 
    3165:	01 d0                	add    %edx,%eax
    3167:	66 a3 02 95 00 00    	mov    %ax,0x9502
    316d:	66 89 0d 06 95 00 00 	mov    %cx,0x9506
    3174:	66 c7 05 08 95 00 00 	movw   $0x19,0x9508
    317b:	19 00 
    317d:	0f b6 05 06 00 09 00 	movzbl 0x90006,%eax
    3184:	66 a3 0a 95 00 00    	mov    %ax,0x950a
    318a:	a1 04 00 09 00       	mov    0x90004,%eax
    318f:	66 a3 0c 95 00 00    	mov    %ax,0x950c
    3195:	0f b7 c0             	movzwl %ax,%eax
    3198:	c1 e0 0c             	shl    $0xc,%eax
    319b:	03 05 1c 95 00 00    	add    0x951c,%eax
    31a1:	2d 00 70 00 00       	sub    $0x7000,%eax
    31a6:	a3 10 95 00 00       	mov    %eax,0x9510
    31ab:	c7 05 14 95 00 00 01 	movl   $0x1,0x9514
    31b2:	00 00 00 
    31b5:	5d                   	pop    %ebp
    31b6:	c3                   	ret    

000031b7 <scroll_down>:
    31b7:	55                   	push   %ebp
    31b8:	89 e5                	mov    %esp,%ebp
    31ba:	83 ec 14             	sub    $0x14,%esp
    31bd:	89 5d f4             	mov    %ebx,0xfffffff4(%ebp)
    31c0:	89 75 f8             	mov    %esi,0xfffffff8(%ebp)
    31c3:	89 7d fc             	mov    %edi,0xfffffffc(%ebp)
    31c6:	8b 5d 08             	mov    0x8(%ebp),%ebx
    31c9:	a1 10 95 00 00       	mov    0x9510,%eax
    31ce:	89 45 f0             	mov    %eax,0xfffffff0(%ebp)
    31d1:	0f b7 05 06 95 00 00 	movzwl 0x9506,%eax
    31d8:	0f af c3             	imul   %ebx,%eax
    31db:	8b 55 f0             	mov    0xfffffff0(%ebp),%edx
    31de:	8d 04 42             	lea    (%edx,%eax,2),%eax
    31e1:	89 45 ec             	mov    %eax,0xffffffec(%ebp)
    31e4:	b9 00 10 00 00       	mov    $0x1000,%ecx
    31e9:	39 c2                	cmp    %eax,%edx
    31eb:	76 1f                	jbe    320c <scroll_down+0x55>
    31ed:	89 d0                	mov    %edx,%eax
    31ef:	2b 45 ec             	sub    0xffffffec(%ebp),%eax
    31f2:	3d 00 10 00 00       	cmp    $0x1000,%eax
    31f7:	73 13                	jae    320c <scroll_down+0x55>
    31f9:	29 c1                	sub    %eax,%ecx
    31fb:	8d 14 10             	lea    (%eax,%edx,1),%edx
    31fe:	89 d7                	mov    %edx,%edi
    3200:	8b 75 f0             	mov    0xfffffff0(%ebp),%esi
    3203:	56                   	push   %esi
    3204:	57                   	push   %edi
    3205:	fc                   	cld    
    3206:	f3 a4                	repz movsb %ds:(%esi),%es:(%edi)
    3208:	5f                   	pop    %edi
    3209:	5e                   	pop    %esi
    320a:	89 c1                	mov    %eax,%ecx
    320c:	8b 7d f0             	mov    0xfffffff0(%ebp),%edi
    320f:	8b 75 ec             	mov    0xffffffec(%ebp),%esi
    3212:	56                   	push   %esi
    3213:	57                   	push   %edi
    3214:	fc                   	cld    
    3215:	f3 a4                	repz movsb %ds:(%esi),%es:(%edi)
    3217:	5f                   	pop    %edi
    3218:	5e                   	pop    %esi
    3219:	28 1d 01 95 00 00    	sub    %bl,0x9501
    321f:	0f b7 15 06 95 00 00 	movzwl 0x9506,%edx
    3226:	0f af d3             	imul   %ebx,%edx
    3229:	0f b7 05 02 95 00 00 	movzwl 0x9502,%eax
    3230:	29 d0                	sub    %edx,%eax
    3232:	66 a3 02 95 00 00    	mov    %ax,0x9502
    3238:	8b 5d f4             	mov    0xfffffff4(%ebp),%ebx
    323b:	8b 75 f8             	mov    0xfffffff8(%ebp),%esi
    323e:	8b 7d fc             	mov    0xfffffffc(%ebp),%edi
    3241:	89 ec                	mov    %ebp,%esp
    3243:	5d                   	pop    %ebp
    3244:	c3                   	ret    

00003245 <console_print>:
    3245:	55                   	push   %ebp
    3246:	89 e5                	mov    %esp,%ebp
    3248:	57                   	push   %edi
    3249:	56                   	push   %esi
    324a:	53                   	push   %ebx
    324b:	83 ec 3c             	sub    $0x3c,%esp
    324e:	c7 45 e4 00 00 00 00 	movl   $0x0,0xffffffe4(%ebp)
    3255:	0f b6 1d 01 95 00 00 	movzbl 0x9501,%ebx
    325c:	0f b7 05 06 95 00 00 	movzwl 0x9506,%eax
    3263:	0f af d8             	imul   %eax,%ebx
    3266:	0f b6 05 00 95 00 00 	movzbl 0x9500,%eax
    326d:	01 c3                	add    %eax,%ebx
    326f:	a1 10 95 00 00       	mov    0x9510,%eax
    3274:	8d 1c 58             	lea    (%eax,%ebx,2),%ebx
    3277:	8b 55 08             	mov    0x8(%ebp),%edx
    327a:	66 0f b6 02          	movzbw (%edx),%ax
    327e:	89 c6                	mov    %eax,%esi
    3280:	81 ce 00 0f 00 00    	or     $0xf00,%esi
    3286:	66 89 75 c8          	mov    %si,0xffffffc8(%ebp)
    328a:	0f b6 02             	movzbl (%edx),%eax
    328d:	42                   	inc    %edx
    328e:	89 55 08             	mov    %edx,0x8(%ebp)
    3291:	84 c0                	test   %al,%al
    3293:	0f 84 31 01 00 00    	je     33ca <console_print+0x185>
    3299:	0f be 45 c8          	movsbl 0xffffffc8(%ebp),%eax
    329d:	83 f8 0a             	cmp    $0xa,%eax
    32a0:	74 19                	je     32bb <console_print+0x76>
    32a2:	83 f8 0a             	cmp    $0xa,%eax
    32a5:	7f 06                	jg     32ad <console_print+0x68>
    32a7:	85 c0                	test   %eax,%eax
    32a9:	74 09                	je     32b4 <console_print+0x6f>
    32ab:	eb 44                	jmp    32f1 <console_print+0xac>
    32ad:	83 f8 0d             	cmp    $0xd,%eax
    32b0:	74 2b                	je     32dd <console_print+0x98>
    32b2:	eb 3d                	jmp    32f1 <console_print+0xac>
    32b4:	e8 87 cd ff ff       	call   40 <print_reg32>
    32b9:	eb 63                	jmp    331e <console_print+0xd9>
    32bb:	fe 05 01 95 00 00    	incb   0x9501
    32c1:	0f b7 05 06 95 00 00 	movzwl 0x9506,%eax
    32c8:	0f b6 15 00 95 00 00 	movzbl 0x9500,%edx
    32cf:	29 d0                	sub    %edx,%eax
    32d1:	8d 1c 43             	lea    (%ebx,%eax,2),%ebx
    32d4:	c6 05 00 95 00 00 00 	movb   $0x0,0x9500
    32db:	eb 41                	jmp    331e <console_print+0xd9>
    32dd:	0f b6 05 00 95 00 00 	movzbl 0x9500,%eax
    32e4:	01 c0                	add    %eax,%eax
    32e6:	29 c3                	sub    %eax,%ebx
    32e8:	c6 05 00 95 00 00 00 	movb   $0x0,0x9500
    32ef:	eb 2d                	jmp    331e <console_print+0xd9>
    32f1:	fe 05 00 95 00 00    	incb   0x9500
    32f7:	66 0f b6 05 00 95 00 	movzbw 0x9500,%ax
    32fe:	00 
    32ff:	66 3b 05 06 95 00 00 	cmp    0x9506,%ax
    3306:	72 0d                	jb     3315 <console_print+0xd0>
    3308:	c6 05 00 95 00 00 00 	movb   $0x0,0x9500
    330f:	fe 05 01 95 00 00    	incb   0x9501
    3315:	8b 45 c8             	mov    0xffffffc8(%ebp),%eax
    3318:	66 89 03             	mov    %ax,(%ebx)
    331b:	83 c3 02             	add    $0x2,%ebx
    331e:	66 0f b6 05 01 95 00 	movzbw 0x9501,%ax
    3325:	00 
    3326:	66 3b 05 08 95 00 00 	cmp    0x9508,%ax
    332d:	72 70                	jb     339f <console_print+0x15a>
    332f:	8b 15 10 95 00 00    	mov    0x9510,%edx
    3335:	89 55 c4             	mov    %edx,0xffffffc4(%ebp)
    3338:	0f b7 05 06 95 00 00 	movzwl 0x9506,%eax
    333f:	8d 04 42             	lea    (%edx,%eax,2),%eax
    3342:	89 45 c0             	mov    %eax,0xffffffc0(%ebp)
    3345:	b9 00 10 00 00       	mov    $0x1000,%ecx
    334a:	39 c2                	cmp    %eax,%edx
    334c:	76 1f                	jbe    336d <console_print+0x128>
    334e:	89 d0                	mov    %edx,%eax
    3350:	2b 45 c0             	sub    0xffffffc0(%ebp),%eax
    3353:	3d 00 10 00 00       	cmp    $0x1000,%eax
    3358:	73 13                	jae    336d <console_print+0x128>
    335a:	29 c1                	sub    %eax,%ecx
    335c:	8d 14 10             	lea    (%eax,%edx,1),%edx
    335f:	89 d7                	mov    %edx,%edi
    3361:	8b 75 c4             	mov    0xffffffc4(%ebp),%esi
    3364:	56                   	push   %esi
    3365:	57                   	push   %edi
    3366:	fc                   	cld    
    3367:	f3 a4                	repz movsb %ds:(%esi),%es:(%edi)
    3369:	5f                   	pop    %edi
    336a:	5e                   	pop    %esi
    336b:	89 c1                	mov    %eax,%ecx
    336d:	8b 7d c4             	mov    0xffffffc4(%ebp),%edi
    3370:	8b 75 c0             	mov    0xffffffc0(%ebp),%esi
    3373:	56                   	push   %esi
    3374:	57                   	push   %edi
    3375:	fc                   	cld    
    3376:	f3 a4                	repz movsb %ds:(%esi),%es:(%edi)
    3378:	5f                   	pop    %edi
    3379:	5e                   	pop    %esi
    337a:	80 2d 01 95 00 00 01 	subb   $0x1,0x9501
    3381:	0f b7 05 06 95 00 00 	movzwl 0x9506,%eax
    3388:	6b c8 01             	imul   $0x1,%eax,%ecx
    338b:	0f b7 15 02 95 00 00 	movzwl 0x9502,%edx
    3392:	29 ca                	sub    %ecx,%edx
    3394:	66 89 15 02 95 00 00 	mov    %dx,0x9502
    339b:	01 c0                	add    %eax,%eax
    339d:	29 c3                	sub    %eax,%ebx
    339f:	ff 45 e4             	incl   0xffffffe4(%ebp)
    33a2:	8b 55 08             	mov    0x8(%ebp),%edx
    33a5:	66 0f b6 02          	movzbw (%edx),%ax
    33a9:	8b 55 c8             	mov    0xffffffc8(%ebp),%edx
    33ac:	81 e2 00 ff ff ff    	and    $0xffffff00,%edx
    33b2:	09 c2                	or     %eax,%edx
    33b4:	66 89 55 c8          	mov    %dx,0xffffffc8(%ebp)
    33b8:	8b 75 08             	mov    0x8(%ebp),%esi
    33bb:	0f b6 06             	movzbl (%esi),%eax
    33be:	46                   	inc    %esi
    33bf:	89 75 08             	mov    %esi,0x8(%ebp)
    33c2:	84 c0                	test   %al,%al
    33c4:	0f 85 cf fe ff ff    	jne    3299 <console_print+0x54>
    33ca:	66 0f b6 05 01 95 00 	movzbw 0x9501,%ax
    33d1:	00 
    33d2:	0f b7 15 06 95 00 00 	movzwl 0x9506,%edx
    33d9:	0f af c2             	imul   %edx,%eax
    33dc:	66 0f b6 15 00 95 00 	movzbw 0x9500,%dx
    33e3:	00 
    33e4:	01 d0                	add    %edx,%eax
    33e6:	66 a3 02 95 00 00    	mov    %ax,0x9502
    33ec:	8b 45 e4             	mov    0xffffffe4(%ebp),%eax
    33ef:	83 c4 3c             	add    $0x3c,%esp
    33f2:	5b                   	pop    %ebx
    33f3:	5e                   	pop    %esi
    33f4:	5f                   	pop    %edi
    33f5:	5d                   	pop    %ebp
    33f6:	c3                   	ret    
    33f7:	90                   	nop    

000033f8 <main>:
    33f8:	55                   	push   %ebp
    33f9:	89 e5                	mov    %esp,%ebp
    33fb:	57                   	push   %edi
    33fc:	56                   	push   %esi
    33fd:	53                   	push   %ebx
    33fe:	81 ec 2c 04 00 00    	sub    $0x42c,%esp
    3404:	83 e4 f0             	and    $0xfffffff0,%esp
    3407:	83 ec 10             	sub    $0x10,%esp
    340a:	e8 e5 fc ff ff       	call   30f4 <console_init>
    340f:	c7 04 24 9c 89 00 00 	movl   $0x899c,(%esp)
    3416:	e8 39 4c 00 00       	call   8054 <printf>
    341b:	e8 64 01 00 00       	call   3584 <kscm_init_proc>
    3420:	c7 04 24 b6 89 00 00 	movl   $0x89b6,(%esp)
    3427:	e8 28 4c 00 00       	call   8054 <printf>
    342c:	e8 93 4d 00 00       	call   81c4 <kscm_init_paging>
    3431:	c7 04 24 cc 89 00 00 	movl   $0x89cc,(%esp)
    3438:	e8 17 4c 00 00       	call   8054 <printf>
    343d:	e8 e6 48 00 00       	call   7d28 <kscm_init_heap>
    3442:	c7 04 24 d0 89 00 00 	movl   $0x89d0,(%esp)
    3449:	e8 06 4c 00 00       	call   8054 <printf>
    344e:	e8 f5 46 00 00       	call   7b48 <scheme_init>
    3453:	c7 04 24 ea 89 00 00 	movl   $0x89ea,(%esp)
    345a:	e8 16 1e 00 00       	call   5275 <scheme_make_char_input_stream>
    345f:	89 04 24             	mov    %eax,(%esp)
    3462:	e8 13 12 00 00       	call   467a <scheme_read>
    3467:	89 c6                	mov    %eax,%esi
    3469:	89 44 24 04          	mov    %eax,0x4(%esp)
    346d:	8d 9d e8 fb ff ff    	lea    0xfffffbe8(%ebp),%ebx
    3473:	89 1c 24             	mov    %ebx,(%esp)
    3476:	e8 75 2b 00 00       	call   5ff0 <scheme_obj_to_string>
    347b:	89 5c 24 04          	mov    %ebx,0x4(%esp)
    347f:	c7 04 24 f2 89 00 00 	movl   $0x89f2,(%esp)
    3486:	e8 c9 4b 00 00       	call   8054 <printf>
    348b:	c7 44 24 04 30 cd 12 	movl   $0x12cd30,0x4(%esp)
    3492:	00 
    3493:	89 34 24             	mov    %esi,(%esp)
    3496:	e8 95 34 00 00       	call   6930 <scheme_eval>
    349b:	89 c6                	mov    %eax,%esi
    349d:	89 44 24 04          	mov    %eax,0x4(%esp)
    34a1:	89 1c 24             	mov    %ebx,(%esp)
    34a4:	e8 47 2b 00 00       	call   5ff0 <scheme_obj_to_string>
    34a9:	89 5c 24 04          	mov    %ebx,0x4(%esp)
    34ad:	c7 04 24 fe 89 00 00 	movl   $0x89fe,(%esp)
    34b4:	e8 9b 4b 00 00       	call   8054 <printf>
    34b9:	c7 04 24 cc 89 00 00 	movl   $0x89cc,(%esp)
    34c0:	e8 8f 4b 00 00       	call   8054 <printf>
    34c5:	89 7c 24 14          	mov    %edi,0x14(%esp)
    34c9:	c7 44 24 10 09 8a 00 	movl   $0x8a09,0x10(%esp)
    34d0:	00 
    34d1:	c7 44 24 0c 6c 86 00 	movl   $0x866c,0xc(%esp)
    34d8:	00 
    34d9:	c7 44 24 08 6e 00 00 	movl   $0x6e,0x8(%esp)
    34e0:	00 
    34e1:	c7 44 24 04 0b 8a 00 	movl   $0x8a0b,0x4(%esp)
    34e8:	00 
    34e9:	c7 04 24 18 8e 00 00 	movl   $0x8e18,(%esp)
    34f0:	e8 5f 4b 00 00       	call   8054 <printf>
    34f5:	89 74 24 14          	mov    %esi,0x14(%esp)
    34f9:	c7 44 24 10 13 8a 00 	movl   $0x8a13,0x10(%esp)
    3500:	00 
    3501:	c7 44 24 0c 6c 86 00 	movl   $0x866c,0xc(%esp)
    3508:	00 
    3509:	c7 44 24 08 6f 00 00 	movl   $0x6f,0x8(%esp)
    3510:	00 
    3511:	c7 44 24 04 0b 8a 00 	movl   $0x8a0b,0x4(%esp)
    3518:	00 
    3519:	c7 04 24 44 8e 00 00 	movl   $0x8e44,(%esp)
    3520:	e8 2f 4b 00 00       	call   8054 <printf>
    3525:	c7 04 24 17 8a 00 00 	movl   $0x8a17,(%esp)
    352c:	e8 23 4b 00 00       	call   8054 <printf>
    3531:	a1 c8 bc 12 00       	mov    0x12bcc8,%eax
    3536:	89 04 24             	mov    %eax,(%esp)
    3539:	e8 3c 11 00 00       	call   467a <scheme_read>
    353e:	3d 00 cd 12 00       	cmp    $0x12cd00,%eax
    3543:	75 0e                	jne    3553 <main+0x15b>
    3545:	c7 04 24 1f 8a 00 00 	movl   $0x8a1f,(%esp)
    354c:	e8 03 4b 00 00       	call   8054 <printf>
    3551:	eb d2                	jmp    3525 <main+0x12d>
    3553:	c7 44 24 04 30 cd 12 	movl   $0x12cd30,0x4(%esp)
    355a:	00 
    355b:	89 04 24             	mov    %eax,(%esp)
    355e:	e8 cd 33 00 00       	call   6930 <scheme_eval>
    3563:	89 44 24 04          	mov    %eax,0x4(%esp)
    3567:	89 1c 24             	mov    %ebx,(%esp)
    356a:	e8 81 2a 00 00       	call   5ff0 <scheme_obj_to_string>
    356f:	89 5c 24 04          	mov    %ebx,0x4(%esp)
    3573:	c7 04 24 3c 8a 00 00 	movl   $0x8a3c,(%esp)
    357a:	e8 d5 4a 00 00       	call   8054 <printf>
    357f:	eb a4                	jmp    3525 <main+0x12d>
    3581:	90                   	nop    
    3582:	90                   	nop    
    3583:	90                   	nop    

00003584 <kscm_init_proc>:
    3584:	55                   	push   %ebp
    3585:	89 e5                	mov    %esp,%ebp
    3587:	c7 05 fc cc 12 00 c0 	movl   $0x12bcc0,0x12ccfc
    358e:	bc 12 00 
    3591:	5d                   	pop    %ebp
    3592:	c3                   	ret    
    3593:	90                   	nop    

00003594 <key_map>:
    3594:	00 1b                	add    %bl,(%ebx)
    3596:	31 32                	xor    %esi,(%edx)
    3598:	33 34 35 36 37 38 39 	xor    0x39383736(,%esi,1),%esi
    359f:	30 2d 3d 7f 09 71    	xor    %ch,0x71097f3d
    35a5:	77 65                	ja     360c <shift_map+0x17>
    35a7:	72 74                	jb     361d <shift_map+0x28>
    35a9:	79 75                	jns    3620 <shift_map+0x2b>
    35ab:	69 6f 70 5b 5d 0d 00 	imul   $0xd5d5b,0x70(%edi),%ebp
    35b2:	61                   	popa   
    35b3:	73 64                	jae    3619 <shift_map+0x24>
    35b5:	66 67 68 6a 6b       	addr16 pushw $0x6b6a
    35ba:	6c                   	insb   (%dx),%es:(%edi)
    35bb:	3b 27                	cmp    (%edi),%esp
    35bd:	60                   	pusha  
    35be:	00 5c 7a 78          	add    %bl,0x78(%edx,%edi,2)
    35c2:	63 76 62             	arpl   %si,0x62(%esi)
    35c5:	6e                   	outsb  %ds:(%esi),(%dx)
    35c6:	6d                   	insl   (%dx),%es:(%edi)
    35c7:	2c 2e                	sub    $0x2e,%al
    35c9:	2f                   	das    
    35ca:	00 2a                	add    %ch,(%edx)
    35cc:	00 20                	add    %ah,(%eax)
	...
    35de:	2d 00 00 00 2b       	sub    $0x2b000000,%eax
    35e3:	00 00                	add    %al,(%eax)
    35e5:	00 00                	add    %al,(%eax)
    35e7:	00 00                	add    %al,(%eax)
    35e9:	00 3c 00             	add    %bh,(%eax,%eax,1)
	...

000035f5 <shift_map>:
    35f5:	00 1b                	add    %bl,(%ebx)
    35f7:	21 40 23             	and    %eax,0x23(%eax)
    35fa:	24 25                	and    $0x25,%al
    35fc:	5e                   	pop    %esi
    35fd:	26 2a 28             	sub    %es:(%eax),%ch
    3600:	29 5f 2b             	sub    %ebx,0x2b(%edi)
    3603:	7f 09                	jg     360e <shift_map+0x19>
    3605:	51                   	push   %ecx
    3606:	57                   	push   %edi
    3607:	45                   	inc    %ebp
    3608:	52                   	push   %edx
    3609:	54                   	push   %esp
    360a:	59                   	pop    %ecx
    360b:	55                   	push   %ebp
    360c:	49                   	dec    %ecx
    360d:	4f                   	dec    %edi
    360e:	50                   	push   %eax
    360f:	7b 7d                	jnp    368e <alt_map+0x38>
    3611:	0d 00 41 53 44       	or     $0x44534100,%eax
    3616:	46                   	inc    %esi
    3617:	47                   	inc    %edi
    3618:	48                   	dec    %eax
    3619:	4a                   	dec    %edx
    361a:	4b                   	dec    %ebx
    361b:	4c                   	dec    %esp
    361c:	3a 22                	cmp    (%edx),%ah
    361e:	7e 00                	jle    3620 <shift_map+0x2b>
    3620:	7c 5a                	jl     367c <alt_map+0x26>
    3622:	58                   	pop    %eax
    3623:	43                   	inc    %ebx
    3624:	56                   	push   %esi
    3625:	42                   	inc    %edx
    3626:	4e                   	dec    %esi
    3627:	4d                   	dec    %ebp
    3628:	3c 3e                	cmp    $0x3e,%al
    362a:	3f                   	aas    
    362b:	00 2a                	add    %ch,(%edx)
    362d:	00 20                	add    %ah,(%eax)
	...
    363f:	2d 00 00 00 2b       	sub    $0x2b000000,%eax
    3644:	00 00                	add    %al,(%eax)
    3646:	00 00                	add    %al,(%eax)
    3648:	00 00                	add    %al,(%eax)
    364a:	00 3e                	add    %bh,(%esi)
	...

00003656 <alt_map>:
    3656:	00 00                	add    %al,(%eax)
    3658:	00 40 00             	add    %al,0x0(%eax)
    365b:	24 00                	and    $0x0,%al
    365d:	00 7b 5b             	add    %bh,0x5b(%ebx)
    3660:	5d                   	pop    %ebp
    3661:	7d 5c                	jge    36bf <scheme_init_bool+0x7>
	...
    366f:	00 00                	add    %al,(%eax)
    3671:	7e 0d                	jle    3680 <alt_map+0x2a>
	...
    36ab:	00 7c 00 00          	add    %bh,0x0(%eax,%eax,1)
	...
    36b7:	90                   	nop    

000036b8 <scheme_init_bool>:
    36b8:	55                   	push   %ebp
    36b9:	89 e5                	mov    %esp,%ebp
    36bb:	53                   	push   %ebx
    36bc:	83 ec 14             	sub    $0x14,%esp
    36bf:	8b 5d 08             	mov    0x8(%ebp),%ebx
    36c2:	66 c7 05 54 cd 12 00 	movw   $0x19,0x12cd54
    36c9:	19 00 
    36cb:	c7 05 58 cd 12 00 00 	movl   $0x0,0x12cd58
    36d2:	00 00 00 
    36d5:	66 c7 05 40 cd 12 00 	movw   $0x19,0x12cd40
    36dc:	19 00 
    36de:	c7 05 44 cd 12 00 01 	movl   $0x1,0x12cd44
    36e5:	00 00 00 
    36e8:	89 5c 24 10          	mov    %ebx,0x10(%esp)
    36ec:	c7 44 24 0c 01 00 00 	movl   $0x1,0xc(%esp)
    36f3:	00 
    36f4:	c7 44 24 08 01 00 00 	movl   $0x1,0x8(%esp)
    36fb:	00 
    36fc:	c7 44 24 04 66 37 00 	movl   $0x3766,0x4(%esp)
    3703:	00 
    3704:	c7 04 24 4a 8a 00 00 	movl   $0x8a4a,(%esp)
    370b:	e8 5e 2f 00 00       	call   666e <scheme_register_primitive>
    3710:	89 5c 24 10          	mov    %ebx,0x10(%esp)
    3714:	c7 44 24 0c 01 00 00 	movl   $0x1,0xc(%esp)
    371b:	00 
    371c:	c7 44 24 08 01 00 00 	movl   $0x1,0x8(%esp)
    3723:	00 
    3724:	c7 44 24 04 84 37 00 	movl   $0x3784,0x4(%esp)
    372b:	00 
    372c:	c7 04 24 53 8a 00 00 	movl   $0x8a53,(%esp)
    3733:	e8 36 2f 00 00       	call   666e <scheme_register_primitive>
    3738:	89 5c 24 10          	mov    %ebx,0x10(%esp)
    373c:	c7 44 24 0c 01 00 00 	movl   $0x1,0xc(%esp)
    3743:	00 
    3744:	c7 44 24 08 01 00 00 	movl   $0x1,0x8(%esp)
    374b:	00 
    374c:	c7 44 24 04 9c 37 00 	movl   $0x379c,0x4(%esp)
    3753:	00 
    3754:	c7 04 24 59 8a 00 00 	movl   $0x8a59,(%esp)
    375b:	e8 0e 2f 00 00       	call   666e <scheme_register_primitive>
    3760:	83 c4 14             	add    $0x14,%esp
    3763:	5b                   	pop    %ebx
    3764:	5d                   	pop    %ebp
    3765:	c3                   	ret    

00003766 <boolean_p>:
    3766:	55                   	push   %ebp
    3767:	89 e5                	mov    %esp,%ebp
    3769:	8b 55 0c             	mov    0xc(%ebp),%edx
    376c:	81 3a 54 cd 12 00    	cmpl   $0x12cd54,(%edx)
    3772:	74 09                	je     377d <boolean_p+0x17>
    3774:	b8 40 cd 12 00       	mov    $0x12cd40,%eax
    3779:	39 02                	cmp    %eax,(%edx)
    377b:	75 05                	jne    3782 <boolean_p+0x1c>
    377d:	b8 54 cd 12 00       	mov    $0x12cd54,%eax
    3782:	5d                   	pop    %ebp
    3783:	c3                   	ret    

00003784 <true_p>:
    3784:	55                   	push   %ebp
    3785:	89 e5                	mov    %esp,%ebp
    3787:	ba 40 cd 12 00       	mov    $0x12cd40,%edx
    378c:	8b 45 0c             	mov    0xc(%ebp),%eax
    378f:	39 10                	cmp    %edx,(%eax)
    3791:	74 05                	je     3798 <true_p+0x14>
    3793:	ba 54 cd 12 00       	mov    $0x12cd54,%edx
    3798:	89 d0                	mov    %edx,%eax
    379a:	5d                   	pop    %ebp
    379b:	c3                   	ret    

0000379c <not>:
    379c:	55                   	push   %ebp
    379d:	89 e5                	mov    %esp,%ebp
    379f:	ba 54 cd 12 00       	mov    $0x12cd54,%edx
    37a4:	8b 45 0c             	mov    0xc(%ebp),%eax
    37a7:	81 38 40 cd 12 00    	cmpl   $0x12cd40,(%eax)
    37ad:	74 05                	je     37b4 <not+0x18>
    37af:	ba 40 cd 12 00       	mov    $0x12cd40,%edx
    37b4:	89 d0                	mov    %edx,%eax
    37b6:	5d                   	pop    %ebp
    37b7:	c3                   	ret    

000037b8 <scheme_init_string>:
    37b8:	55                   	push   %ebp
    37b9:	89 e5                	mov    %esp,%ebp
    37bb:	53                   	push   %ebx
    37bc:	83 ec 14             	sub    $0x14,%esp
    37bf:	8b 5d 08             	mov    0x8(%ebp),%ebx
    37c2:	89 5c 24 10          	mov    %ebx,0x10(%esp)
    37c6:	c7 44 24 0c 02 00 00 	movl   $0x2,0xc(%esp)
    37cd:	00 
    37ce:	c7 44 24 08 01 00 00 	movl   $0x1,0x8(%esp)
    37d5:	00 
    37d6:	c7 44 24 04 df 3b 00 	movl   $0x3bdf,0x4(%esp)
    37dd:	00 
    37de:	c7 04 24 5d 8a 00 00 	movl   $0x8a5d,(%esp)
    37e5:	e8 84 2e 00 00       	call   666e <scheme_register_primitive>
    37ea:	89 5c 24 10          	mov    %ebx,0x10(%esp)
    37ee:	c7 44 24 0c ff ff ff 	movl   $0xffffffff,0xc(%esp)
    37f5:	ff 
    37f6:	c7 44 24 08 01 00 00 	movl   $0x1,0x8(%esp)
    37fd:	00 
    37fe:	c7 44 24 04 9c 3c 00 	movl   $0x3c9c,0x4(%esp)
    3805:	00 
    3806:	c7 04 24 62 8a 00 00 	movl   $0x8a62,(%esp)
    380d:	e8 5c 2e 00 00       	call   666e <scheme_register_primitive>
    3812:	89 5c 24 10          	mov    %ebx,0x10(%esp)
    3816:	c7 44 24 0c 01 00 00 	movl   $0x1,0xc(%esp)
    381d:	00 
    381e:	c7 44 24 08 01 00 00 	movl   $0x1,0x8(%esp)
    3825:	00 
    3826:	c7 44 24 04 41 3d 00 	movl   $0x3d41,0x4(%esp)
    382d:	00 
    382e:	c7 04 24 69 8a 00 00 	movl   $0x8a69,(%esp)
    3835:	e8 34 2e 00 00       	call   666e <scheme_register_primitive>
    383a:	89 5c 24 10          	mov    %ebx,0x10(%esp)
    383e:	c7 44 24 0c 01 00 00 	movl   $0x1,0xc(%esp)
    3845:	00 
    3846:	c7 44 24 08 01 00 00 	movl   $0x1,0x8(%esp)
    384d:	00 
    384e:	c7 44 24 04 61 3d 00 	movl   $0x3d61,0x4(%esp)
    3855:	00 
    3856:	c7 04 24 71 8a 00 00 	movl   $0x8a71,(%esp)
    385d:	e8 0c 2e 00 00       	call   666e <scheme_register_primitive>
    3862:	89 5c 24 10          	mov    %ebx,0x10(%esp)
    3866:	c7 44 24 0c 02 00 00 	movl   $0x2,0xc(%esp)
    386d:	00 
    386e:	c7 44 24 08 02 00 00 	movl   $0x2,0x8(%esp)
    3875:	00 
    3876:	c7 44 24 04 8d 3d 00 	movl   $0x3d8d,0x4(%esp)
    387d:	00 
    387e:	c7 04 24 7f 8a 00 00 	movl   $0x8a7f,(%esp)
    3885:	e8 e4 2d 00 00       	call   666e <scheme_register_primitive>
    388a:	89 5c 24 10          	mov    %ebx,0x10(%esp)
    388e:	c7 44 24 0c 03 00 00 	movl   $0x3,0xc(%esp)
    3895:	00 
    3896:	c7 44 24 08 03 00 00 	movl   $0x3,0x8(%esp)
    389d:	00 
    389e:	c7 44 24 04 bb 3d 00 	movl   $0x3dbb,0x4(%esp)
    38a5:	00 
    38a6:	c7 04 24 8a 8a 00 00 	movl   $0x8a8a,(%esp)
    38ad:	e8 bc 2d 00 00       	call   666e <scheme_register_primitive>
    38b2:	89 5c 24 10          	mov    %ebx,0x10(%esp)
    38b6:	c7 44 24 0c 02 00 00 	movl   $0x2,0xc(%esp)
    38bd:	00 
    38be:	c7 44 24 08 02 00 00 	movl   $0x2,0x8(%esp)
    38c5:	00 
    38c6:	c7 44 24 04 eb 3d 00 	movl   $0x3deb,0x4(%esp)
    38cd:	00 
    38ce:	c7 04 24 96 8a 00 00 	movl   $0x8a96,(%esp)
    38d5:	e8 94 2d 00 00       	call   666e <scheme_register_primitive>
    38da:	89 5c 24 10          	mov    %ebx,0x10(%esp)
    38de:	c7 44 24 0c 02 00 00 	movl   $0x2,0xc(%esp)
    38e5:	00 
    38e6:	c7 44 24 08 02 00 00 	movl   $0x2,0x8(%esp)
    38ed:	00 
    38ee:	c7 44 24 04 2b 3e 00 	movl   $0x3e2b,0x4(%esp)
    38f5:	00 
    38f6:	c7 04 24 9f 8a 00 00 	movl   $0x8a9f,(%esp)
    38fd:	e8 6c 2d 00 00       	call   666e <scheme_register_primitive>
    3902:	89 5c 24 10          	mov    %ebx,0x10(%esp)
    3906:	c7 44 24 0c 02 00 00 	movl   $0x2,0xc(%esp)
    390d:	00 
    390e:	c7 44 24 08 02 00 00 	movl   $0x2,0x8(%esp)
    3915:	00 
    3916:	c7 44 24 04 7f 3e 00 	movl   $0x3e7f,0x4(%esp)
    391d:	00 
    391e:	c7 04 24 ab 8a 00 00 	movl   $0x8aab,(%esp)
    3925:	e8 44 2d 00 00       	call   666e <scheme_register_primitive>
    392a:	89 5c 24 10          	mov    %ebx,0x10(%esp)
    392e:	c7 44 24 0c 02 00 00 	movl   $0x2,0xc(%esp)
    3935:	00 
    3936:	c7 44 24 08 02 00 00 	movl   $0x2,0x8(%esp)
    393d:	00 
    393e:	c7 44 24 04 89 3e 00 	movl   $0x3e89,0x4(%esp)
    3945:	00 
    3946:	c7 04 24 b4 8a 00 00 	movl   $0x8ab4,(%esp)
    394d:	e8 1c 2d 00 00       	call   666e <scheme_register_primitive>
    3952:	89 5c 24 10          	mov    %ebx,0x10(%esp)
    3956:	c7 44 24 0c 02 00 00 	movl   $0x2,0xc(%esp)
    395d:	00 
    395e:	c7 44 24 08 02 00 00 	movl   $0x2,0x8(%esp)
    3965:	00 
    3966:	c7 44 24 04 93 3e 00 	movl   $0x3e93,0x4(%esp)
    396d:	00 
    396e:	c7 04 24 bd 8a 00 00 	movl   $0x8abd,(%esp)
    3975:	e8 f4 2c 00 00       	call   666e <scheme_register_primitive>
    397a:	89 5c 24 10          	mov    %ebx,0x10(%esp)
    397e:	c7 44 24 0c 02 00 00 	movl   $0x2,0xc(%esp)
    3985:	00 
    3986:	c7 44 24 08 02 00 00 	movl   $0x2,0x8(%esp)
    398d:	00 
    398e:	c7 44 24 04 9d 3e 00 	movl   $0x3e9d,0x4(%esp)
    3995:	00 
    3996:	c7 04 24 c7 8a 00 00 	movl   $0x8ac7,(%esp)
    399d:	e8 cc 2c 00 00       	call   666e <scheme_register_primitive>
    39a2:	89 5c 24 10          	mov    %ebx,0x10(%esp)
    39a6:	c7 44 24 0c 02 00 00 	movl   $0x2,0xc(%esp)
    39ad:	00 
    39ae:	c7 44 24 08 02 00 00 	movl   $0x2,0x8(%esp)
    39b5:	00 
    39b6:	c7 44 24 04 a7 3e 00 	movl   $0x3ea7,0x4(%esp)
    39bd:	00 
    39be:	c7 04 24 d1 8a 00 00 	movl   $0x8ad1,(%esp)
    39c5:	e8 a4 2c 00 00       	call   666e <scheme_register_primitive>
    39ca:	89 5c 24 10          	mov    %ebx,0x10(%esp)
    39ce:	c7 44 24 0c 02 00 00 	movl   $0x2,0xc(%esp)
    39d5:	00 
    39d6:	c7 44 24 08 02 00 00 	movl   $0x2,0x8(%esp)
    39dd:	00 
    39de:	c7 44 24 04 b1 3e 00 	movl   $0x3eb1,0x4(%esp)
    39e5:	00 
    39e6:	c7 04 24 dd 8a 00 00 	movl   $0x8add,(%esp)
    39ed:	e8 7c 2c 00 00       	call   666e <scheme_register_primitive>
    39f2:	89 5c 24 10          	mov    %ebx,0x10(%esp)
    39f6:	c7 44 24 0c 02 00 00 	movl   $0x2,0xc(%esp)
    39fd:	00 
    39fe:	c7 44 24 08 02 00 00 	movl   $0x2,0x8(%esp)
    3a05:	00 
    3a06:	c7 44 24 04 bb 3e 00 	movl   $0x3ebb,0x4(%esp)
    3a0d:	00 
    3a0e:	c7 04 24 e9 8a 00 00 	movl   $0x8ae9,(%esp)
    3a15:	e8 54 2c 00 00       	call   666e <scheme_register_primitive>
    3a1a:	89 5c 24 10          	mov    %ebx,0x10(%esp)
    3a1e:	c7 44 24 0c 02 00 00 	movl   $0x2,0xc(%esp)
    3a25:	00 
    3a26:	c7 44 24 08 02 00 00 	movl   $0x2,0x8(%esp)
    3a2d:	00 
    3a2e:	c7 44 24 04 c5 3e 00 	movl   $0x3ec5,0x4(%esp)
    3a35:	00 
    3a36:	c7 04 24 f6 8a 00 00 	movl   $0x8af6,(%esp)
    3a3d:	e8 2c 2c 00 00       	call   666e <scheme_register_primitive>
    3a42:	89 5c 24 10          	mov    %ebx,0x10(%esp)
    3a46:	c7 44 24 0c 03 00 00 	movl   $0x3,0xc(%esp)
    3a4d:	00 
    3a4e:	c7 44 24 08 03 00 00 	movl   $0x3,0x8(%esp)
    3a55:	00 
    3a56:	c7 44 24 04 cf 3e 00 	movl   $0x3ecf,0x4(%esp)
    3a5d:	00 
    3a5e:	c7 04 24 03 8b 00 00 	movl   $0x8b03,(%esp)
    3a65:	e8 04 2c 00 00       	call   666e <scheme_register_primitive>
    3a6a:	89 5c 24 10          	mov    %ebx,0x10(%esp)
    3a6e:	c7 44 24 0c ff ff ff 	movl   $0xffffffff,0xc(%esp)
    3a75:	ff 
    3a76:	c7 44 24 08 01 00 00 	movl   $0x1,0x8(%esp)
    3a7d:	00 
    3a7e:	c7 44 24 04 d9 3e 00 	movl   $0x3ed9,0x4(%esp)
    3a85:	00 
    3a86:	c7 04 24 0d 8b 00 00 	movl   $0x8b0d,(%esp)
    3a8d:	e8 dc 2b 00 00       	call   666e <scheme_register_primitive>
    3a92:	89 5c 24 10          	mov    %ebx,0x10(%esp)
    3a96:	c7 44 24 0c 01 00 00 	movl   $0x1,0xc(%esp)
    3a9d:	00 
    3a9e:	c7 44 24 08 01 00 00 	movl   $0x1,0x8(%esp)
    3aa5:	00 
    3aa6:	c7 44 24 04 e3 3e 00 	movl   $0x3ee3,0x4(%esp)
    3aad:	00 
    3aae:	c7 04 24 1b 8b 00 00 	movl   $0x8b1b,(%esp)
    3ab5:	e8 b4 2b 00 00       	call   666e <scheme_register_primitive>
    3aba:	89 5c 24 10          	mov    %ebx,0x10(%esp)
    3abe:	c7 44 24 0c 01 00 00 	movl   $0x1,0xc(%esp)
    3ac5:	00 
    3ac6:	c7 44 24 08 01 00 00 	movl   $0x1,0x8(%esp)
    3acd:	00 
    3ace:	c7 44 24 04 ed 3e 00 	movl   $0x3eed,0x4(%esp)
    3ad5:	00 
    3ad6:	c7 04 24 28 8b 00 00 	movl   $0x8b28,(%esp)
    3add:	e8 8c 2b 00 00       	call   666e <scheme_register_primitive>
    3ae2:	89 5c 24 10          	mov    %ebx,0x10(%esp)
    3ae6:	c7 44 24 0c 01 00 00 	movl   $0x1,0xc(%esp)
    3aed:	00 
    3aee:	c7 44 24 08 01 00 00 	movl   $0x1,0x8(%esp)
    3af5:	00 
    3af6:	c7 44 24 04 f7 3e 00 	movl   $0x3ef7,0x4(%esp)
    3afd:	00 
    3afe:	c7 04 24 52 8b 00 00 	movl   $0x8b52,(%esp)
    3b05:	e8 64 2b 00 00       	call   666e <scheme_register_primitive>
    3b0a:	89 5c 24 10          	mov    %ebx,0x10(%esp)
    3b0e:	c7 44 24 0c 02 00 00 	movl   $0x2,0xc(%esp)
    3b15:	00 
    3b16:	c7 44 24 08 02 00 00 	movl   $0x2,0x8(%esp)
    3b1d:	00 
    3b1e:	c7 44 24 04 8f 3f 00 	movl   $0x3f8f,0x4(%esp)
    3b25:	00 
    3b26:	c7 04 24 41 8b 00 00 	movl   $0x8b41,(%esp)
    3b2d:	e8 3c 2b 00 00       	call   666e <scheme_register_primitive>
    3b32:	83 c4 14             	add    $0x14,%esp
    3b35:	5b                   	pop    %ebx
    3b36:	5d                   	pop    %ebp
    3b37:	c3                   	ret    

00003b38 <scheme_make_string>:
    3b38:	55                   	push   %ebp
    3b39:	89 e5                	mov    %esp,%ebp
    3b3b:	57                   	push   %edi
    3b3c:	56                   	push   %esi
    3b3d:	53                   	push   %ebx
    3b3e:	83 ec 0c             	sub    $0xc,%esp
    3b41:	8b 7d 08             	mov    0x8(%ebp),%edi
    3b44:	b9 00 00 00 00       	mov    $0x0,%ecx
    3b49:	8d 57 01             	lea    0x1(%edi),%edx
    3b4c:	80 3f 00             	cmpb   $0x0,(%edi)
    3b4f:	74 09                	je     3b5a <scheme_make_string+0x22>
    3b51:	41                   	inc    %ecx
    3b52:	0f b6 02             	movzbl (%edx),%eax
    3b55:	42                   	inc    %edx
    3b56:	84 c0                	test   %al,%al
    3b58:	75 f7                	jne    3b51 <scheme_make_string+0x19>
    3b5a:	89 4d f0             	mov    %ecx,0xfffffff0(%ebp)
    3b5d:	c7 04 24 10 00 00 00 	movl   $0x10,(%esp)
    3b64:	e8 ec 41 00 00       	call   7d55 <kmalloc>
    3b69:	89 c3                	mov    %eax,%ebx
    3b6b:	8b 45 f0             	mov    0xfffffff0(%ebp),%eax
    3b6e:	40                   	inc    %eax
    3b6f:	89 04 24             	mov    %eax,(%esp)
    3b72:	e8 de 41 00 00       	call   7d55 <kmalloc>
    3b77:	89 c6                	mov    %eax,%esi
    3b79:	89 f9                	mov    %edi,%ecx
    3b7b:	89 c2                	mov    %eax,%edx
    3b7d:	0f b6 01             	movzbl (%ecx),%eax
    3b80:	41                   	inc    %ecx
    3b81:	88 02                	mov    %al,(%edx)
    3b83:	42                   	inc    %edx
    3b84:	84 c0                	test   %al,%al
    3b86:	75 f5                	jne    3b7d <scheme_make_string+0x45>
    3b88:	66 c7 03 11 00       	movw   $0x11,(%ebx)
    3b8d:	89 73 04             	mov    %esi,0x4(%ebx)
    3b90:	8b 45 f0             	mov    0xfffffff0(%ebp),%eax
    3b93:	89 43 08             	mov    %eax,0x8(%ebx)
    3b96:	89 d8                	mov    %ebx,%eax
    3b98:	83 c4 0c             	add    $0xc,%esp
    3b9b:	5b                   	pop    %ebx
    3b9c:	5e                   	pop    %esi
    3b9d:	5f                   	pop    %edi
    3b9e:	5d                   	pop    %ebp
    3b9f:	c3                   	ret    

00003ba0 <scheme_alloc_string>:
    3ba0:	55                   	push   %ebp
    3ba1:	89 e5                	mov    %esp,%ebp
    3ba3:	83 ec 18             	sub    $0x18,%esp
    3ba6:	89 5d f8             	mov    %ebx,0xfffffff8(%ebp)
    3ba9:	89 75 fc             	mov    %esi,0xfffffffc(%ebp)
    3bac:	8b 75 08             	mov    0x8(%ebp),%esi
    3baf:	c7 04 24 10 00 00 00 	movl   $0x10,(%esp)
    3bb6:	e8 9a 41 00 00       	call   7d55 <kmalloc>
    3bbb:	89 c3                	mov    %eax,%ebx
    3bbd:	8d 46 01             	lea    0x1(%esi),%eax
    3bc0:	89 04 24             	mov    %eax,(%esp)
    3bc3:	e8 8d 41 00 00       	call   7d55 <kmalloc>
    3bc8:	66 c7 03 11 00       	movw   $0x11,(%ebx)
    3bcd:	89 43 04             	mov    %eax,0x4(%ebx)
    3bd0:	89 73 08             	mov    %esi,0x8(%ebx)
    3bd3:	89 d8                	mov    %ebx,%eax
    3bd5:	8b 5d f8             	mov    0xfffffff8(%ebp),%ebx
    3bd8:	8b 75 fc             	mov    0xfffffffc(%ebp),%esi
    3bdb:	89 ec                	mov    %ebp,%esp
    3bdd:	5d                   	pop    %ebp
    3bde:	c3                   	ret    

00003bdf <make_string>:
    3bdf:	55                   	push   %ebp
    3be0:	89 e5                	mov    %esp,%ebp
    3be2:	83 ec 38             	sub    $0x38,%esp
    3be5:	89 5d f4             	mov    %ebx,0xfffffff4(%ebp)
    3be8:	89 75 f8             	mov    %esi,0xfffffff8(%ebp)
    3beb:	89 7d fc             	mov    %edi,0xfffffffc(%ebp)
    3bee:	8b 5d 0c             	mov    0xc(%ebp),%ebx
    3bf1:	8b 03                	mov    (%ebx),%eax
    3bf3:	a8 01                	test   $0x1,%al
    3bf5:	75 06                	jne    3bfd <make_string+0x1e>
    3bf7:	66 83 38 0a          	cmpw   $0xa,(%eax)
    3bfb:	74 0a                	je     3c07 <make_string+0x28>
    3bfd:	b8 00 cd 12 00       	mov    $0x12cd00,%eax
    3c02:	e9 88 00 00 00       	jmp    3c8f <make_string+0xb0>
    3c07:	c6 45 d8 61          	movb   $0x61,0xffffffd8(%ebp)
    3c0b:	83 7d 08 01          	cmpl   $0x1,0x8(%ebp)
    3c0f:	74 12                	je     3c23 <make_string+0x44>
    3c11:	8b 53 04             	mov    0x4(%ebx),%edx
    3c14:	b8 00 cd 12 00       	mov    $0x12cd00,%eax
    3c19:	f6 c2 01             	test   $0x1,%dl
    3c1c:	74 71                	je     3c8f <make_string+0xb0>
    3c1e:	d1 ea                	shr    %edx
    3c20:	88 55 d8             	mov    %dl,0xffffffd8(%ebp)
    3c23:	c7 04 24 10 00 00 00 	movl   $0x10,(%esp)
    3c2a:	e8 26 41 00 00       	call   7d55 <kmalloc>
    3c2f:	89 c6                	mov    %eax,%esi
    3c31:	8b 03                	mov    (%ebx),%eax
    3c33:	8b 78 04             	mov    0x4(%eax),%edi
    3c36:	8d 47 01             	lea    0x1(%edi),%eax
    3c39:	89 04 24             	mov    %eax,(%esp)
    3c3c:	e8 14 41 00 00       	call   7d55 <kmalloc>
    3c41:	89 c3                	mov    %eax,%ebx
    3c43:	85 f6                	test   %esi,%esi
    3c45:	0f 94 c2             	sete   %dl
    3c48:	85 c0                	test   %eax,%eax
    3c4a:	0f 94 c0             	sete   %al
    3c4d:	09 d0                	or     %edx,%eax
    3c4f:	a8 01                	test   $0x1,%al
    3c51:	74 17                	je     3c6a <make_string+0x8b>
    3c53:	89 34 24             	mov    %esi,(%esp)
    3c56:	e8 a8 41 00 00       	call   7e03 <kfree>
    3c5b:	89 1c 24             	mov    %ebx,(%esp)
    3c5e:	e8 a0 41 00 00       	call   7e03 <kfree>
    3c63:	b8 00 cd 12 00       	mov    $0x12cd00,%eax
    3c68:	eb 25                	jmp    3c8f <make_string+0xb0>
    3c6a:	89 7c 24 08          	mov    %edi,0x8(%esp)
    3c6e:	0f be 45 d8          	movsbl 0xffffffd8(%ebp),%eax
    3c72:	89 44 24 04          	mov    %eax,0x4(%esp)
    3c76:	89 1c 24             	mov    %ebx,(%esp)
    3c79:	e8 8e 43 00 00       	call   800c <memset>
    3c7e:	c6 04 3b 00          	movb   $0x0,(%ebx,%edi,1)
    3c82:	66 c7 06 11 00       	movw   $0x11,(%esi)
    3c87:	89 5e 04             	mov    %ebx,0x4(%esi)
    3c8a:	89 7e 08             	mov    %edi,0x8(%esi)
    3c8d:	89 f0                	mov    %esi,%eax
    3c8f:	8b 5d f4             	mov    0xfffffff4(%ebp),%ebx
    3c92:	8b 75 f8             	mov    0xfffffff8(%ebp),%esi
    3c95:	8b 7d fc             	mov    0xfffffffc(%ebp),%edi
    3c98:	89 ec                	mov    %ebp,%esp
    3c9a:	5d                   	pop    %ebp
    3c9b:	c3                   	ret    

00003c9c <string>:
    3c9c:	55                   	push   %ebp
    3c9d:	89 e5                	mov    %esp,%ebp
    3c9f:	57                   	push   %edi
    3ca0:	56                   	push   %esi
    3ca1:	53                   	push   %ebx
    3ca2:	83 ec 0c             	sub    $0xc,%esp
    3ca5:	8b 7d 08             	mov    0x8(%ebp),%edi
    3ca8:	8b 75 0c             	mov    0xc(%ebp),%esi
    3cab:	c7 04 24 10 00 00 00 	movl   $0x10,(%esp)
    3cb2:	e8 9e 40 00 00       	call   7d55 <kmalloc>
    3cb7:	89 45 f0             	mov    %eax,0xfffffff0(%ebp)
    3cba:	8d 47 01             	lea    0x1(%edi),%eax
    3cbd:	89 04 24             	mov    %eax,(%esp)
    3cc0:	e8 90 40 00 00       	call   7d55 <kmalloc>
    3cc5:	89 c3                	mov    %eax,%ebx
    3cc7:	83 7d f0 00          	cmpl   $0x0,0xfffffff0(%ebp)
    3ccb:	0f 94 c2             	sete   %dl
    3cce:	85 c0                	test   %eax,%eax
    3cd0:	0f 94 c0             	sete   %al
    3cd3:	09 d0                	or     %edx,%eax
    3cd5:	a8 01                	test   $0x1,%al
    3cd7:	74 34                	je     3d0d <string+0x71>
    3cd9:	8b 45 f0             	mov    0xfffffff0(%ebp),%eax
    3cdc:	89 04 24             	mov    %eax,(%esp)
    3cdf:	e8 1f 41 00 00       	call   7e03 <kfree>
    3ce4:	89 1c 24             	mov    %ebx,(%esp)
    3ce7:	e8 17 41 00 00       	call   7e03 <kfree>
    3cec:	b8 00 cd 12 00       	mov    $0x12cd00,%eax
    3cf1:	eb 46                	jmp    3d39 <string+0x9d>
    3cf3:	8b 45 f0             	mov    0xfffffff0(%ebp),%eax
    3cf6:	89 04 24             	mov    %eax,(%esp)
    3cf9:	e8 05 41 00 00       	call   7e03 <kfree>
    3cfe:	89 1c 24             	mov    %ebx,(%esp)
    3d01:	e8 fd 40 00 00       	call   7e03 <kfree>
    3d06:	b8 00 cd 12 00       	mov    $0x12cd00,%eax
    3d0b:	eb 2c                	jmp    3d39 <string+0x9d>
    3d0d:	8b 45 f0             	mov    0xfffffff0(%ebp),%eax
    3d10:	66 c7 00 11 00       	movw   $0x11,(%eax)
    3d15:	89 58 04             	mov    %ebx,0x4(%eax)
    3d18:	89 78 08             	mov    %edi,0x8(%eax)
    3d1b:	85 ff                	test   %edi,%edi
    3d1d:	7e 14                	jle    3d33 <string+0x97>
    3d1f:	f6 06 01             	testb  $0x1,(%esi)
    3d22:	74 cf                	je     3cf3 <string+0x57>
    3d24:	8b 06                	mov    (%esi),%eax
    3d26:	d1 f8                	sar    %eax
    3d28:	83 c6 04             	add    $0x4,%esi
    3d2b:	88 03                	mov    %al,(%ebx)
    3d2d:	43                   	inc    %ebx
    3d2e:	4f                   	dec    %edi
    3d2f:	85 ff                	test   %edi,%edi
    3d31:	7f ec                	jg     3d1f <string+0x83>
    3d33:	c6 03 00             	movb   $0x0,(%ebx)
    3d36:	8b 45 f0             	mov    0xfffffff0(%ebp),%eax
    3d39:	83 c4 0c             	add    $0xc,%esp
    3d3c:	5b                   	pop    %ebx
    3d3d:	5e                   	pop    %esi
    3d3e:	5f                   	pop    %edi
    3d3f:	5d                   	pop    %ebp
    3d40:	c3                   	ret    

00003d41 <string_p>:
    3d41:	55                   	push   %ebp
    3d42:	89 e5                	mov    %esp,%ebp
    3d44:	8b 45 0c             	mov    0xc(%ebp),%eax
    3d47:	8b 00                	mov    (%eax),%eax
    3d49:	a8 01                	test   $0x1,%al
    3d4b:	75 0b                	jne    3d58 <string_p+0x17>
    3d4d:	ba 54 cd 12 00       	mov    $0x12cd54,%edx
    3d52:	66 83 38 11          	cmpw   $0x11,(%eax)
    3d56:	74 05                	je     3d5d <string_p+0x1c>
    3d58:	ba 40 cd 12 00       	mov    $0x12cd40,%edx
    3d5d:	89 d0                	mov    %edx,%eax
    3d5f:	5d                   	pop    %ebp
    3d60:	c3                   	ret    

00003d61 <string_length>:
    3d61:	55                   	push   %ebp
    3d62:	89 e5                	mov    %esp,%ebp
    3d64:	83 ec 08             	sub    $0x8,%esp
    3d67:	c7 04 24 10 00 00 00 	movl   $0x10,(%esp)
    3d6e:	e8 e2 3f 00 00       	call   7d55 <kmalloc>
    3d73:	89 c2                	mov    %eax,%edx
    3d75:	b8 00 cd 12 00       	mov    $0x12cd00,%eax
    3d7a:	85 d2                	test   %edx,%edx
    3d7c:	74 0d                	je     3d8b <string_length+0x2a>
    3d7e:	8b 45 0c             	mov    0xc(%ebp),%eax
    3d81:	8b 00                	mov    (%eax),%eax
    3d83:	8b 40 08             	mov    0x8(%eax),%eax
    3d86:	89 42 04             	mov    %eax,0x4(%edx)
    3d89:	89 d0                	mov    %edx,%eax
    3d8b:	c9                   	leave  
    3d8c:	c3                   	ret    

00003d8d <string_ref>:
    3d8d:	55                   	push   %ebp
    3d8e:	89 e5                	mov    %esp,%ebp
    3d90:	53                   	push   %ebx
    3d91:	8b 55 0c             	mov    0xc(%ebp),%edx
    3d94:	8b 42 04             	mov    0x4(%edx),%eax
    3d97:	8b 48 04             	mov    0x4(%eax),%ecx
    3d9a:	8b 02                	mov    (%edx),%eax
    3d9c:	bb 00 cd 12 00       	mov    $0x12cd00,%ebx
    3da1:	3b 48 08             	cmp    0x8(%eax),%ecx
    3da4:	7d 10                	jge    3db6 <string_ref+0x29>
    3da6:	8b 02                	mov    (%edx),%eax
    3da8:	8b 40 04             	mov    0x4(%eax),%eax
    3dab:	0f be 04 08          	movsbl (%eax,%ecx,1),%eax
    3daf:	01 c0                	add    %eax,%eax
    3db1:	89 c3                	mov    %eax,%ebx
    3db3:	83 cb 01             	or     $0x1,%ebx
    3db6:	89 d8                	mov    %ebx,%eax
    3db8:	5b                   	pop    %ebx
    3db9:	5d                   	pop    %ebp
    3dba:	c3                   	ret    

00003dbb <string_set>:
    3dbb:	55                   	push   %ebp
    3dbc:	89 e5                	mov    %esp,%ebp
    3dbe:	53                   	push   %ebx
    3dbf:	8b 4d 0c             	mov    0xc(%ebp),%ecx
    3dc2:	8b 41 04             	mov    0x4(%ecx),%eax
    3dc5:	8b 58 04             	mov    0x4(%eax),%ebx
    3dc8:	8b 01                	mov    (%ecx),%eax
    3dca:	ba 00 cd 12 00       	mov    $0x12cd00,%edx
    3dcf:	3b 58 08             	cmp    0x8(%eax),%ebx
    3dd2:	7d 12                	jge    3de6 <string_set+0x2b>
    3dd4:	8b 01                	mov    (%ecx),%eax
    3dd6:	8b 50 04             	mov    0x4(%eax),%edx
    3dd9:	8b 41 08             	mov    0x8(%ecx),%eax
    3ddc:	d1 f8                	sar    %eax
    3dde:	88 04 1a             	mov    %al,(%edx,%ebx,1)
    3de1:	ba 00 cd 12 00       	mov    $0x12cd00,%edx
    3de6:	89 d0                	mov    %edx,%eax
    3de8:	5b                   	pop    %ebx
    3de9:	5d                   	pop    %ebp
    3dea:	c3                   	ret    

00003deb <string_eq>:
    3deb:	55                   	push   %ebp
    3dec:	89 e5                	mov    %esp,%ebp
    3dee:	53                   	push   %ebx
    3def:	8b 45 0c             	mov    0xc(%ebp),%eax
    3df2:	8b 10                	mov    (%eax),%edx
    3df4:	8b 5a 04             	mov    0x4(%edx),%ebx
    3df7:	8b 40 04             	mov    0x4(%eax),%eax
    3dfa:	8b 48 04             	mov    0x4(%eax),%ecx
    3dfd:	ba 00 00 00 00       	mov    $0x0,%edx
    3e02:	80 3b 00             	cmpb   $0x0,(%ebx)
    3e05:	74 13                	je     3e1a <string_eq+0x2f>
    3e07:	80 39 00             	cmpb   $0x0,(%ecx)
    3e0a:	74 0e                	je     3e1a <string_eq+0x2f>
    3e0c:	0f be 13             	movsbl (%ebx),%edx
    3e0f:	0f be 01             	movsbl (%ecx),%eax
    3e12:	41                   	inc    %ecx
    3e13:	43                   	inc    %ebx
    3e14:	29 c2                	sub    %eax,%edx
    3e16:	74 ea                	je     3e02 <string_eq+0x17>
    3e18:	eb 09                	jmp    3e23 <string_eq+0x38>
    3e1a:	b8 54 cd 12 00       	mov    $0x12cd54,%eax
    3e1f:	85 d2                	test   %edx,%edx
    3e21:	74 05                	je     3e28 <string_eq+0x3d>
    3e23:	b8 40 cd 12 00       	mov    $0x12cd40,%eax
    3e28:	5b                   	pop    %ebx
    3e29:	5d                   	pop    %ebp
    3e2a:	c3                   	ret    

00003e2b <string_ci_eq>:
    3e2b:	55                   	push   %ebp
    3e2c:	89 e5                	mov    %esp,%ebp
    3e2e:	53                   	push   %ebx
    3e2f:	8b 45 0c             	mov    0xc(%ebp),%eax
    3e32:	8b 10                	mov    (%eax),%edx
    3e34:	8b 5a 04             	mov    0x4(%edx),%ebx
    3e37:	8b 40 04             	mov    0x4(%eax),%eax
    3e3a:	8b 48 04             	mov    0x4(%eax),%ecx
    3e3d:	ba 00 00 00 00       	mov    $0x0,%edx
    3e42:	80 3b 00             	cmpb   $0x0,(%ebx)
    3e45:	74 27                	je     3e6e <string_ci_eq+0x43>
    3e47:	80 39 00             	cmpb   $0x0,(%ecx)
    3e4a:	74 22                	je     3e6e <string_ci_eq+0x43>
    3e4c:	0f be 13             	movsbl (%ebx),%edx
    3e4f:	0f be 01             	movsbl (%ecx),%eax
    3e52:	29 c2                	sub    %eax,%edx
    3e54:	75 21                	jne    3e77 <string_ci_eq+0x4c>
    3e56:	43                   	inc    %ebx
    3e57:	41                   	inc    %ecx
    3e58:	80 3b 00             	cmpb   $0x0,(%ebx)
    3e5b:	74 11                	je     3e6e <string_ci_eq+0x43>
    3e5d:	80 39 00             	cmpb   $0x0,(%ecx)
    3e60:	74 0c                	je     3e6e <string_ci_eq+0x43>
    3e62:	0f be 13             	movsbl (%ebx),%edx
    3e65:	0f be 01             	movsbl (%ecx),%eax
    3e68:	29 c2                	sub    %eax,%edx
    3e6a:	74 ea                	je     3e56 <string_ci_eq+0x2b>
    3e6c:	eb 09                	jmp    3e77 <string_ci_eq+0x4c>
    3e6e:	b8 54 cd 12 00       	mov    $0x12cd54,%eax
    3e73:	85 d2                	test   %edx,%edx
    3e75:	74 05                	je     3e7c <string_ci_eq+0x51>
    3e77:	b8 40 cd 12 00       	mov    $0x12cd40,%eax
    3e7c:	5b                   	pop    %ebx
    3e7d:	5d                   	pop    %ebp
    3e7e:	c3                   	ret    

00003e7f <string_lt>:
    3e7f:	55                   	push   %ebp
    3e80:	89 e5                	mov    %esp,%ebp
    3e82:	b8 00 cd 12 00       	mov    $0x12cd00,%eax
    3e87:	5d                   	pop    %ebp
    3e88:	c3                   	ret    

00003e89 <string_gt>:
    3e89:	55                   	push   %ebp
    3e8a:	89 e5                	mov    %esp,%ebp
    3e8c:	b8 00 cd 12 00       	mov    $0x12cd00,%eax
    3e91:	5d                   	pop    %ebp
    3e92:	c3                   	ret    

00003e93 <string_lt_eq>:
    3e93:	55                   	push   %ebp
    3e94:	89 e5                	mov    %esp,%ebp
    3e96:	b8 00 cd 12 00       	mov    $0x12cd00,%eax
    3e9b:	5d                   	pop    %ebp
    3e9c:	c3                   	ret    

00003e9d <string_gt_eq>:
    3e9d:	55                   	push   %ebp
    3e9e:	89 e5                	mov    %esp,%ebp
    3ea0:	b8 00 cd 12 00       	mov    $0x12cd00,%eax
    3ea5:	5d                   	pop    %ebp
    3ea6:	c3                   	ret    

00003ea7 <string_ci_lt>:
    3ea7:	55                   	push   %ebp
    3ea8:	89 e5                	mov    %esp,%ebp
    3eaa:	b8 00 cd 12 00       	mov    $0x12cd00,%eax
    3eaf:	5d                   	pop    %ebp
    3eb0:	c3                   	ret    

00003eb1 <string_ci_gt>:
    3eb1:	55                   	push   %ebp
    3eb2:	89 e5                	mov    %esp,%ebp
    3eb4:	b8 00 cd 12 00       	mov    $0x12cd00,%eax
    3eb9:	5d                   	pop    %ebp
    3eba:	c3                   	ret    

00003ebb <string_ci_lt_eq>:
    3ebb:	55                   	push   %ebp
    3ebc:	89 e5                	mov    %esp,%ebp
    3ebe:	b8 00 cd 12 00       	mov    $0x12cd00,%eax
    3ec3:	5d                   	pop    %ebp
    3ec4:	c3                   	ret    

00003ec5 <string_ci_gt_eq>:
    3ec5:	55                   	push   %ebp
    3ec6:	89 e5                	mov    %esp,%ebp
    3ec8:	b8 00 cd 12 00       	mov    $0x12cd00,%eax
    3ecd:	5d                   	pop    %ebp
    3ece:	c3                   	ret    

00003ecf <substring>:
    3ecf:	55                   	push   %ebp
    3ed0:	89 e5                	mov    %esp,%ebp
    3ed2:	b8 00 cd 12 00       	mov    $0x12cd00,%eax
    3ed7:	5d                   	pop    %ebp
    3ed8:	c3                   	ret    

00003ed9 <string_append>:
    3ed9:	55                   	push   %ebp
    3eda:	89 e5                	mov    %esp,%ebp
    3edc:	b8 00 cd 12 00       	mov    $0x12cd00,%eax
    3ee1:	5d                   	pop    %ebp
    3ee2:	c3                   	ret    

00003ee3 <string_to_list>:
    3ee3:	55                   	push   %ebp
    3ee4:	89 e5                	mov    %esp,%ebp
    3ee6:	b8 00 cd 12 00       	mov    $0x12cd00,%eax
    3eeb:	5d                   	pop    %ebp
    3eec:	c3                   	ret    

00003eed <list_to_string>:
    3eed:	55                   	push   %ebp
    3eee:	89 e5                	mov    %esp,%ebp
    3ef0:	b8 00 cd 12 00       	mov    $0x12cd00,%eax
    3ef5:	5d                   	pop    %ebp
    3ef6:	c3                   	ret    

00003ef7 <string_copy>:
    3ef7:	55                   	push   %ebp
    3ef8:	89 e5                	mov    %esp,%ebp
    3efa:	83 ec 18             	sub    $0x18,%esp
    3efd:	89 5d f4             	mov    %ebx,0xfffffff4(%ebp)
    3f00:	89 75 f8             	mov    %esi,0xfffffff8(%ebp)
    3f03:	89 7d fc             	mov    %edi,0xfffffffc(%ebp)
    3f06:	8b 5d 0c             	mov    0xc(%ebp),%ebx
    3f09:	8b 03                	mov    (%ebx),%eax
    3f0b:	a8 01                	test   $0x1,%al
    3f0d:	75 06                	jne    3f15 <string_copy+0x1e>
    3f0f:	66 83 38 11          	cmpw   $0x11,(%eax)
    3f13:	74 07                	je     3f1c <string_copy+0x25>
    3f15:	b8 00 cd 12 00       	mov    $0x12cd00,%eax
    3f1a:	eb 66                	jmp    3f82 <string_copy+0x8b>
    3f1c:	c7 04 24 10 00 00 00 	movl   $0x10,(%esp)
    3f23:	e8 2d 3e 00 00       	call   7d55 <kmalloc>
    3f28:	89 45 f0             	mov    %eax,0xfffffff0(%ebp)
    3f2b:	8b 03                	mov    (%ebx),%eax
    3f2d:	8b 40 08             	mov    0x8(%eax),%eax
    3f30:	89 04 24             	mov    %eax,(%esp)
    3f33:	e8 1d 3e 00 00       	call   7d55 <kmalloc>
    3f38:	89 c7                	mov    %eax,%edi
    3f3a:	83 7d f0 00          	cmpl   $0x0,0xfffffff0(%ebp)
    3f3e:	0f 94 c2             	sete   %dl
    3f41:	85 c0                	test   %eax,%eax
    3f43:	0f 94 c0             	sete   %al
    3f46:	09 d0                	or     %edx,%eax
    3f48:	a8 01                	test   $0x1,%al
    3f4a:	74 1a                	je     3f66 <string_copy+0x6f>
    3f4c:	8b 45 f0             	mov    0xfffffff0(%ebp),%eax
    3f4f:	89 04 24             	mov    %eax,(%esp)
    3f52:	e8 ac 3e 00 00       	call   7e03 <kfree>
    3f57:	89 3c 24             	mov    %edi,(%esp)
    3f5a:	e8 a4 3e 00 00       	call   7e03 <kfree>
    3f5f:	b8 00 cd 12 00       	mov    $0x12cd00,%eax
    3f64:	eb 1c                	jmp    3f82 <string_copy+0x8b>
    3f66:	8b 03                	mov    (%ebx),%eax
    3f68:	8b 70 04             	mov    0x4(%eax),%esi
    3f6b:	8b 48 08             	mov    0x8(%eax),%ecx
    3f6e:	56                   	push   %esi
    3f6f:	57                   	push   %edi
    3f70:	fc                   	cld    
    3f71:	f3 a4                	repz movsb %ds:(%esi),%es:(%edi)
    3f73:	5f                   	pop    %edi
    3f74:	5e                   	pop    %esi
    3f75:	8b 03                	mov    (%ebx),%eax
    3f77:	8b 40 08             	mov    0x8(%eax),%eax
    3f7a:	8b 55 f0             	mov    0xfffffff0(%ebp),%edx
    3f7d:	89 42 08             	mov    %eax,0x8(%edx)
    3f80:	89 d0                	mov    %edx,%eax
    3f82:	8b 5d f4             	mov    0xfffffff4(%ebp),%ebx
    3f85:	8b 75 f8             	mov    0xfffffff8(%ebp),%esi
    3f88:	8b 7d fc             	mov    0xfffffffc(%ebp),%edi
    3f8b:	89 ec                	mov    %ebp,%esp
    3f8d:	5d                   	pop    %ebp
    3f8e:	c3                   	ret    

00003f8f <string_fill>:
    3f8f:	55                   	push   %ebp
    3f90:	89 e5                	mov    %esp,%ebp
    3f92:	b8 00 cd 12 00       	mov    $0x12cd00,%eax
    3f97:	5d                   	pop    %ebp
    3f98:	c3                   	ret    
    3f99:	90                   	nop    
    3f9a:	90                   	nop    
    3f9b:	90                   	nop    

00003f9c <scheme_init_list>:
    3f9c:	55                   	push   %ebp
    3f9d:	89 e5                	mov    %esp,%ebp
    3f9f:	53                   	push   %ebx
    3fa0:	83 ec 14             	sub    $0x14,%esp
    3fa3:	8b 5d 08             	mov    0x8(%ebp),%ebx
    3fa6:	66 c7 05 10 cd 12 00 	movw   $0x13,0x12cd10
    3fad:	13 00 
    3faf:	89 5c 24 10          	mov    %ebx,0x10(%esp)
    3fb3:	c7 44 24 0c 02 00 00 	movl   $0x2,0xc(%esp)
    3fba:	00 
    3fbb:	c7 44 24 08 02 00 00 	movl   $0x2,0x8(%esp)
    3fc2:	00 
    3fc3:	c7 44 24 04 2a 42 00 	movl   $0x422a,0x4(%esp)
    3fca:	00 
    3fcb:	c7 04 24 5f 8b 00 00 	movl   $0x8b5f,(%esp)
    3fd2:	e8 97 26 00 00       	call   666e <scheme_register_primitive>
    3fd7:	89 5c 24 10          	mov    %ebx,0x10(%esp)
    3fdb:	c7 44 24 0c 01 00 00 	movl   $0x1,0xc(%esp)
    3fe2:	00 
    3fe3:	c7 44 24 08 01 00 00 	movl   $0x1,0x8(%esp)
    3fea:	00 
    3feb:	c7 44 24 04 63 42 00 	movl   $0x4263,0x4(%esp)
    3ff2:	00 
    3ff3:	c7 04 24 64 8b 00 00 	movl   $0x8b64,(%esp)
    3ffa:	e8 6f 26 00 00       	call   666e <scheme_register_primitive>
    3fff:	89 5c 24 10          	mov    %ebx,0x10(%esp)
    4003:	c7 44 24 0c 01 00 00 	movl   $0x1,0xc(%esp)
    400a:	00 
    400b:	c7 44 24 08 01 00 00 	movl   $0x1,0x8(%esp)
    4012:	00 
    4013:	c7 44 24 04 70 42 00 	movl   $0x4270,0x4(%esp)
    401a:	00 
    401b:	c7 04 24 68 8b 00 00 	movl   $0x8b68,(%esp)
    4022:	e8 47 26 00 00       	call   666e <scheme_register_primitive>
    4027:	89 5c 24 10          	mov    %ebx,0x10(%esp)
    402b:	c7 44 24 0c 02 00 00 	movl   $0x2,0xc(%esp)
    4032:	00 
    4033:	c7 44 24 08 02 00 00 	movl   $0x2,0x8(%esp)
    403a:	00 
    403b:	c7 44 24 04 7d 42 00 	movl   $0x427d,0x4(%esp)
    4042:	00 
    4043:	c7 04 24 6c 8b 00 00 	movl   $0x8b6c,(%esp)
    404a:	e8 1f 26 00 00       	call   666e <scheme_register_primitive>
    404f:	89 5c 24 10          	mov    %ebx,0x10(%esp)
    4053:	c7 44 24 0c 02 00 00 	movl   $0x2,0xc(%esp)
    405a:	00 
    405b:	c7 44 24 08 02 00 00 	movl   $0x2,0x8(%esp)
    4062:	00 
    4063:	c7 44 24 04 92 42 00 	movl   $0x4292,0x4(%esp)
    406a:	00 
    406b:	c7 04 24 75 8b 00 00 	movl   $0x8b75,(%esp)
    4072:	e8 f7 25 00 00       	call   666e <scheme_register_primitive>
    4077:	89 5c 24 10          	mov    %ebx,0x10(%esp)
    407b:	c7 44 24 0c 01 00 00 	movl   $0x1,0xc(%esp)
    4082:	00 
    4083:	c7 44 24 08 01 00 00 	movl   $0x1,0x8(%esp)
    408a:	00 
    408b:	c7 44 24 04 a7 42 00 	movl   $0x42a7,0x4(%esp)
    4092:	00 
    4093:	c7 04 24 7e 8b 00 00 	movl   $0x8b7e,(%esp)
    409a:	e8 cf 25 00 00       	call   666e <scheme_register_primitive>
    409f:	89 5c 24 10          	mov    %ebx,0x10(%esp)
    40a3:	c7 44 24 0c 01 00 00 	movl   $0x1,0xc(%esp)
    40aa:	00 
    40ab:	c7 44 24 08 01 00 00 	movl   $0x1,0x8(%esp)
    40b2:	00 
    40b3:	c7 44 24 04 c3 42 00 	movl   $0x42c3,0x4(%esp)
    40ba:	00 
    40bb:	c7 04 24 84 8b 00 00 	movl   $0x8b84,(%esp)
    40c2:	e8 a7 25 00 00       	call   666e <scheme_register_primitive>
    40c7:	89 5c 24 10          	mov    %ebx,0x10(%esp)
    40cb:	c7 44 24 0c ff ff ff 	movl   $0xffffffff,0xc(%esp)
    40d2:	ff 
    40d3:	c7 44 24 08 00 00 00 	movl   $0x0,0x8(%esp)
    40da:	00 
    40db:	c7 44 24 04 f7 42 00 	movl   $0x42f7,0x4(%esp)
    40e2:	00 
    40e3:	c7 04 24 23 8b 00 00 	movl   $0x8b23,(%esp)
    40ea:	e8 7f 25 00 00       	call   666e <scheme_register_primitive>
    40ef:	89 5c 24 10          	mov    %ebx,0x10(%esp)
    40f3:	c7 44 24 0c 01 00 00 	movl   $0x1,0xc(%esp)
    40fa:	00 
    40fb:	c7 44 24 08 01 00 00 	movl   $0x1,0x8(%esp)
    4102:	00 
    4103:	c7 44 24 04 86 43 00 	movl   $0x4386,0x4(%esp)
    410a:	00 
    410b:	c7 04 24 78 8a 00 00 	movl   $0x8a78,(%esp)
    4112:	e8 57 25 00 00       	call   666e <scheme_register_primitive>
    4117:	89 5c 24 10          	mov    %ebx,0x10(%esp)
    411b:	c7 44 24 0c ff ff ff 	movl   $0xffffffff,0xc(%esp)
    4122:	ff 
    4123:	c7 44 24 08 00 00 00 	movl   $0x0,0x8(%esp)
    412a:	00 
    412b:	c7 44 24 04 e2 43 00 	movl   $0x43e2,0x4(%esp)
    4132:	00 
    4133:	c7 04 24 14 8b 00 00 	movl   $0x8b14,(%esp)
    413a:	e8 2f 25 00 00       	call   666e <scheme_register_primitive>
    413f:	89 5c 24 10          	mov    %ebx,0x10(%esp)
    4143:	c7 44 24 0c 01 00 00 	movl   $0x1,0xc(%esp)
    414a:	00 
    414b:	c7 44 24 08 01 00 00 	movl   $0x1,0x8(%esp)
    4152:	00 
    4153:	c7 44 24 04 c6 44 00 	movl   $0x44c6,0x4(%esp)
    415a:	00 
    415b:	c7 04 24 8a 8b 00 00 	movl   $0x8b8a,(%esp)
    4162:	e8 07 25 00 00       	call   666e <scheme_register_primitive>
    4167:	83 c4 14             	add    $0x14,%esp
    416a:	5b                   	pop    %ebx
    416b:	5d                   	pop    %ebp
    416c:	c3                   	ret    

0000416d <scheme_make_pair>:
    416d:	55                   	push   %ebp
    416e:	89 e5                	mov    %esp,%ebp
    4170:	83 ec 08             	sub    $0x8,%esp
    4173:	c7 04 24 10 00 00 00 	movl   $0x10,(%esp)
    417a:	e8 d6 3b 00 00       	call   7d55 <kmalloc>
    417f:	66 c7 00 14 00       	movw   $0x14,(%eax)
    4184:	8b 55 08             	mov    0x8(%ebp),%edx
    4187:	89 50 04             	mov    %edx,0x4(%eax)
    418a:	8b 55 0c             	mov    0xc(%ebp),%edx
    418d:	89 50 08             	mov    %edx,0x8(%eax)
    4190:	c9                   	leave  
    4191:	c3                   	ret    

00004192 <scheme_list_to_string>:
    4192:	55                   	push   %ebp
    4193:	89 e5                	mov    %esp,%ebp
    4195:	57                   	push   %edi
    4196:	56                   	push   %esi
    4197:	53                   	push   %ebx
    4198:	83 ec 0c             	sub    $0xc,%esp
    419b:	8b 7d 08             	mov    0x8(%ebp),%edi
    419e:	c6 07 28             	movb   $0x28,(%edi)
    41a1:	8d 5f 01             	lea    0x1(%edi),%ebx
    41a4:	8b 75 0c             	mov    0xc(%ebp),%esi
    41a7:	f7 c6 01 00 00 00    	test   $0x1,%esi
    41ad:	75 46                	jne    41f5 <scheme_list_to_string+0x63>
    41af:	66 83 3e 14          	cmpw   $0x14,(%esi)
    41b3:	75 40                	jne    41f5 <scheme_list_to_string+0x63>
    41b5:	8b 46 04             	mov    0x4(%esi),%eax
    41b8:	a8 01                	test   $0x1,%al
    41ba:	75 16                	jne    41d2 <scheme_list_to_string+0x40>
    41bc:	66 83 38 14          	cmpw   $0x14,(%eax)
    41c0:	75 10                	jne    41d2 <scheme_list_to_string+0x40>
    41c2:	89 44 24 04          	mov    %eax,0x4(%esp)
    41c6:	89 1c 24             	mov    %ebx,(%esp)
    41c9:	e8 c4 ff ff ff       	call   4192 <scheme_list_to_string>
    41ce:	01 c3                	add    %eax,%ebx
    41d0:	eb 0e                	jmp    41e0 <scheme_list_to_string+0x4e>
    41d2:	89 44 24 04          	mov    %eax,0x4(%esp)
    41d6:	89 1c 24             	mov    %ebx,(%esp)
    41d9:	e8 12 1e 00 00       	call   5ff0 <scheme_obj_to_string>
    41de:	01 c3                	add    %eax,%ebx
    41e0:	c6 03 20             	movb   $0x20,(%ebx)
    41e3:	43                   	inc    %ebx
    41e4:	8b 76 08             	mov    0x8(%esi),%esi
    41e7:	f7 c6 01 00 00 00    	test   $0x1,%esi
    41ed:	75 06                	jne    41f5 <scheme_list_to_string+0x63>
    41ef:	66 83 3e 14          	cmpw   $0x14,(%esi)
    41f3:	74 c0                	je     41b5 <scheme_list_to_string+0x23>
    41f5:	81 fe 10 cd 12 00    	cmp    $0x12cd10,%esi
    41fb:	74 1a                	je     4217 <scheme_list_to_string+0x85>
    41fd:	c6 03 2e             	movb   $0x2e,(%ebx)
    4200:	43                   	inc    %ebx
    4201:	c6 03 20             	movb   $0x20,(%ebx)
    4204:	43                   	inc    %ebx
    4205:	89 74 24 04          	mov    %esi,0x4(%esp)
    4209:	89 1c 24             	mov    %ebx,(%esp)
    420c:	e8 df 1d 00 00       	call   5ff0 <scheme_obj_to_string>
    4211:	01 c3                	add    %eax,%ebx
    4213:	c6 03 20             	movb   $0x20,(%ebx)
    4216:	43                   	inc    %ebx
    4217:	c6 43 ff 29          	movb   $0x29,0xffffffff(%ebx)
    421b:	c6 03 00             	movb   $0x0,(%ebx)
    421e:	89 d8                	mov    %ebx,%eax
    4220:	29 f8                	sub    %edi,%eax
    4222:	83 c4 0c             	add    $0xc,%esp
    4225:	5b                   	pop    %ebx
    4226:	5e                   	pop    %esi
    4227:	5f                   	pop    %edi
    4228:	5d                   	pop    %ebp
    4229:	c3                   	ret    

0000422a <cons>:
    422a:	55                   	push   %ebp
    422b:	89 e5                	mov    %esp,%ebp
    422d:	53                   	push   %ebx
    422e:	83 ec 04             	sub    $0x4,%esp
    4231:	8b 5d 0c             	mov    0xc(%ebp),%ebx
    4234:	c7 04 24 10 00 00 00 	movl   $0x10,(%esp)
    423b:	e8 15 3b 00 00       	call   7d55 <kmalloc>
    4240:	89 c2                	mov    %eax,%edx
    4242:	b8 00 cd 12 00       	mov    $0x12cd00,%eax
    4247:	39 c2                	cmp    %eax,%edx
    4249:	74 12                	je     425d <cons+0x33>
    424b:	66 c7 02 14 00       	movw   $0x14,(%edx)
    4250:	8b 03                	mov    (%ebx),%eax
    4252:	89 42 04             	mov    %eax,0x4(%edx)
    4255:	8b 43 04             	mov    0x4(%ebx),%eax
    4258:	89 42 08             	mov    %eax,0x8(%edx)
    425b:	89 d0                	mov    %edx,%eax
    425d:	83 c4 04             	add    $0x4,%esp
    4260:	5b                   	pop    %ebx
    4261:	5d                   	pop    %ebp
    4262:	c3                   	ret    

00004263 <car>:
    4263:	55                   	push   %ebp
    4264:	89 e5                	mov    %esp,%ebp
    4266:	8b 45 0c             	mov    0xc(%ebp),%eax
    4269:	8b 00                	mov    (%eax),%eax
    426b:	8b 40 04             	mov    0x4(%eax),%eax
    426e:	5d                   	pop    %ebp
    426f:	c3                   	ret    

00004270 <cdr>:
    4270:	55                   	push   %ebp
    4271:	89 e5                	mov    %esp,%ebp
    4273:	8b 45 0c             	mov    0xc(%ebp),%eax
    4276:	8b 00                	mov    (%eax),%eax
    4278:	8b 40 08             	mov    0x8(%eax),%eax
    427b:	5d                   	pop    %ebp
    427c:	c3                   	ret    

0000427d <set_car>:
    427d:	55                   	push   %ebp
    427e:	89 e5                	mov    %esp,%ebp
    4280:	8b 45 0c             	mov    0xc(%ebp),%eax
    4283:	8b 10                	mov    (%eax),%edx
    4285:	8b 40 04             	mov    0x4(%eax),%eax
    4288:	89 42 04             	mov    %eax,0x4(%edx)
    428b:	b8 00 cd 12 00       	mov    $0x12cd00,%eax
    4290:	5d                   	pop    %ebp
    4291:	c3                   	ret    

00004292 <set_cdr>:
    4292:	55                   	push   %ebp
    4293:	89 e5                	mov    %esp,%ebp
    4295:	8b 45 0c             	mov    0xc(%ebp),%eax
    4298:	8b 10                	mov    (%eax),%edx
    429a:	8b 40 04             	mov    0x4(%eax),%eax
    429d:	89 42 08             	mov    %eax,0x8(%edx)
    42a0:	b8 00 cd 12 00       	mov    $0x12cd00,%eax
    42a5:	5d                   	pop    %ebp
    42a6:	c3                   	ret    

000042a7 <null_p>:
    42a7:	55                   	push   %ebp
    42a8:	89 e5                	mov    %esp,%ebp
    42aa:	ba 54 cd 12 00       	mov    $0x12cd54,%edx
    42af:	8b 45 0c             	mov    0xc(%ebp),%eax
    42b2:	81 38 10 cd 12 00    	cmpl   $0x12cd10,(%eax)
    42b8:	74 05                	je     42bf <null_p+0x18>
    42ba:	ba 40 cd 12 00       	mov    $0x12cd40,%edx
    42bf:	89 d0                	mov    %edx,%eax
    42c1:	5d                   	pop    %ebp
    42c2:	c3                   	ret    

000042c3 <list_p>:
    42c3:	55                   	push   %ebp
    42c4:	89 e5                	mov    %esp,%ebp
    42c6:	8b 45 0c             	mov    0xc(%ebp),%eax
    42c9:	8b 00                	mov    (%eax),%eax
    42cb:	a8 01                	test   $0x1,%al
    42cd:	75 13                	jne    42e2 <list_p+0x1f>
    42cf:	66 83 38 14          	cmpw   $0x14,(%eax)
    42d3:	75 0d                	jne    42e2 <list_p+0x1f>
    42d5:	8b 40 08             	mov    0x8(%eax),%eax
    42d8:	a8 01                	test   $0x1,%al
    42da:	75 06                	jne    42e2 <list_p+0x1f>
    42dc:	66 83 38 14          	cmpw   $0x14,(%eax)
    42e0:	74 f3                	je     42d5 <list_p+0x12>
    42e2:	ba 54 cd 12 00       	mov    $0x12cd54,%edx
    42e7:	3d 10 cd 12 00       	cmp    $0x12cd10,%eax
    42ec:	74 05                	je     42f3 <list_p+0x30>
    42ee:	ba 40 cd 12 00       	mov    $0x12cd40,%edx
    42f3:	89 d0                	mov    %edx,%eax
    42f5:	5d                   	pop    %ebp
    42f6:	c3                   	ret    

000042f7 <list>:
    42f7:	55                   	push   %ebp
    42f8:	89 e5                	mov    %esp,%ebp
    42fa:	57                   	push   %edi
    42fb:	56                   	push   %esi
    42fc:	53                   	push   %ebx
    42fd:	83 ec 0c             	sub    $0xc,%esp
    4300:	8b 5d 08             	mov    0x8(%ebp),%ebx
    4303:	8b 75 0c             	mov    0xc(%ebp),%esi
    4306:	bf 10 cd 12 00       	mov    $0x12cd10,%edi
    430b:	89 7d f0             	mov    %edi,0xfffffff0(%ebp)
    430e:	85 db                	test   %ebx,%ebx
    4310:	7e 6a                	jle    437c <list+0x85>
    4312:	c7 04 24 10 00 00 00 	movl   $0x10,(%esp)
    4319:	e8 37 3a 00 00       	call   7d55 <kmalloc>
    431e:	89 c2                	mov    %eax,%edx
    4320:	3d 00 cd 12 00       	cmp    $0x12cd00,%eax
    4325:	75 2e                	jne    4355 <list+0x5e>
    4327:	8b 45 f0             	mov    0xfffffff0(%ebp),%eax
    432a:	c7 40 08 10 cd 12 00 	movl   $0x12cd10,0x8(%eax)
    4331:	81 ff 10 cd 12 00    	cmp    $0x12cd10,%edi
    4337:	74 15                	je     434e <list+0x57>
    4339:	89 fa                	mov    %edi,%edx
    433b:	8b 7f 08             	mov    0x8(%edi),%edi
    433e:	89 14 24             	mov    %edx,(%esp)
    4341:	e8 bd 3a 00 00       	call   7e03 <kfree>
    4346:	81 ff 10 cd 12 00    	cmp    $0x12cd10,%edi
    434c:	75 eb                	jne    4339 <list+0x42>
    434e:	b8 00 cd 12 00       	mov    $0x12cd00,%eax
    4353:	eb 29                	jmp    437e <list+0x87>
    4355:	81 ff 10 cd 12 00    	cmp    $0x12cd10,%edi
    435b:	75 04                	jne    4361 <list+0x6a>
    435d:	89 c7                	mov    %eax,%edi
    435f:	eb 06                	jmp    4367 <list+0x70>
    4361:	8b 45 f0             	mov    0xfffffff0(%ebp),%eax
    4364:	89 50 08             	mov    %edx,0x8(%eax)
    4367:	66 c7 02 14 00       	movw   $0x14,(%edx)
    436c:	8b 06                	mov    (%esi),%eax
    436e:	83 c6 04             	add    $0x4,%esi
    4371:	89 42 04             	mov    %eax,0x4(%edx)
    4374:	89 55 f0             	mov    %edx,0xfffffff0(%ebp)
    4377:	4b                   	dec    %ebx
    4378:	85 db                	test   %ebx,%ebx
    437a:	7f 96                	jg     4312 <list+0x1b>
    437c:	89 f8                	mov    %edi,%eax
    437e:	83 c4 0c             	add    $0xc,%esp
    4381:	5b                   	pop    %ebx
    4382:	5e                   	pop    %esi
    4383:	5f                   	pop    %edi
    4384:	5d                   	pop    %ebp
    4385:	c3                   	ret    

00004386 <length>:
    4386:	55                   	push   %ebp
    4387:	89 e5                	mov    %esp,%ebp
    4389:	53                   	push   %ebx
    438a:	83 ec 04             	sub    $0x4,%esp
    438d:	8b 45 0c             	mov    0xc(%ebp),%eax
    4390:	8b 00                	mov    (%eax),%eax
    4392:	bb 00 00 00 00       	mov    $0x0,%ebx
    4397:	a8 01                	test   $0x1,%al
    4399:	75 14                	jne    43af <length+0x29>
    439b:	66 83 38 14          	cmpw   $0x14,(%eax)
    439f:	75 0e                	jne    43af <length+0x29>
    43a1:	43                   	inc    %ebx
    43a2:	8b 40 08             	mov    0x8(%eax),%eax
    43a5:	a8 01                	test   $0x1,%al
    43a7:	75 06                	jne    43af <length+0x29>
    43a9:	66 83 38 14          	cmpw   $0x14,(%eax)
    43ad:	74 f2                	je     43a1 <length+0x1b>
    43af:	ba 00 cd 12 00       	mov    $0x12cd00,%edx
    43b4:	3d 10 cd 12 00       	cmp    $0x12cd10,%eax
    43b9:	75 1f                	jne    43da <length+0x54>
    43bb:	c7 04 24 10 00 00 00 	movl   $0x10,(%esp)
    43c2:	e8 8e 39 00 00       	call   7d55 <kmalloc>
    43c7:	ba 00 cd 12 00       	mov    $0x12cd00,%edx
    43cc:	39 d0                	cmp    %edx,%eax
    43ce:	74 0a                	je     43da <length+0x54>
    43d0:	66 c7 00 0a 00       	movw   $0xa,(%eax)
    43d5:	89 58 04             	mov    %ebx,0x4(%eax)
    43d8:	89 c2                	mov    %eax,%edx
    43da:	89 d0                	mov    %edx,%eax
    43dc:	83 c4 04             	add    $0x4,%esp
    43df:	5b                   	pop    %ebx
    43e0:	5d                   	pop    %ebp
    43e1:	c3                   	ret    

000043e2 <append>:
    43e2:	55                   	push   %ebp
    43e3:	89 e5                	mov    %esp,%ebp
    43e5:	57                   	push   %edi
    43e6:	56                   	push   %esi
    43e7:	53                   	push   %ebx
    43e8:	83 ec 0c             	sub    $0xc,%esp
    43eb:	8b 75 08             	mov    0x8(%ebp),%esi
    43ee:	8b 7d 0c             	mov    0xc(%ebp),%edi
    43f1:	c7 45 f0 10 cd 12 00 	movl   $0x12cd10,0xfffffff0(%ebp)
    43f8:	b8 10 cd 12 00       	mov    $0x12cd10,%eax
    43fd:	89 45 ec             	mov    %eax,0xffffffec(%ebp)
    4400:	8b 1f                	mov    (%edi),%ebx
    4402:	83 fe 01             	cmp    $0x1,%esi
    4405:	0f 8e b0 00 00 00    	jle    44bb <append+0xd9>
    440b:	f6 c3 01             	test   $0x1,%bl
    440e:	75 06                	jne    4416 <append+0x34>
    4410:	66 83 3b 14          	cmpw   $0x14,(%ebx)
    4414:	74 23                	je     4439 <append+0x57>
    4416:	81 fb 10 cd 12 00    	cmp    $0x12cd10,%ebx
    441c:	75 11                	jne    442f <append+0x4d>
    441e:	4e                   	dec    %esi
    441f:	8b 07                	mov    (%edi),%eax
    4421:	83 c7 04             	add    $0x4,%edi
    4424:	89 c3                	mov    %eax,%ebx
    4426:	89 c2                	mov    %eax,%edx
    4428:	83 fe 01             	cmp    $0x1,%esi
    442b:	7e 6e                	jle    449b <append+0xb9>
    442d:	eb 0a                	jmp    4439 <append+0x57>
    442f:	b8 00 cd 12 00       	mov    $0x12cd00,%eax
    4434:	e9 85 00 00 00       	jmp    44be <append+0xdc>
    4439:	c7 04 24 10 00 00 00 	movl   $0x10,(%esp)
    4440:	e8 10 39 00 00       	call   7d55 <kmalloc>
    4445:	89 c2                	mov    %eax,%edx
    4447:	3d 00 cd 12 00       	cmp    $0x12cd00,%eax
    444c:	75 34                	jne    4482 <append+0xa0>
    444e:	8b 45 ec             	mov    0xffffffec(%ebp),%eax
    4451:	c7 40 08 10 cd 12 00 	movl   $0x12cd10,0x8(%eax)
    4458:	81 7d f0 10 cd 12 00 	cmpl   $0x12cd10,0xfffffff0(%ebp)
    445f:	74 1a                	je     447b <append+0x99>
    4461:	8b 55 f0             	mov    0xfffffff0(%ebp),%edx
    4464:	8b 42 08             	mov    0x8(%edx),%eax
    4467:	89 45 f0             	mov    %eax,0xfffffff0(%ebp)
    446a:	89 14 24             	mov    %edx,(%esp)
    446d:	e8 91 39 00 00       	call   7e03 <kfree>
    4472:	81 7d f0 10 cd 12 00 	cmpl   $0x12cd10,0xfffffff0(%ebp)
    4479:	75 e6                	jne    4461 <append+0x7f>
    447b:	b8 00 cd 12 00       	mov    $0x12cd00,%eax
    4480:	eb 3c                	jmp    44be <append+0xdc>
    4482:	8b 03                	mov    (%ebx),%eax
    4484:	89 02                	mov    %eax,(%edx)
    4486:	8b 43 04             	mov    0x4(%ebx),%eax
    4489:	89 42 04             	mov    %eax,0x4(%edx)
    448c:	8b 43 08             	mov    0x8(%ebx),%eax
    448f:	89 42 08             	mov    %eax,0x8(%edx)
    4492:	8b 43 0c             	mov    0xc(%ebx),%eax
    4495:	89 42 0c             	mov    %eax,0xc(%edx)
    4498:	8b 5b 08             	mov    0x8(%ebx),%ebx
    449b:	81 7d f0 10 cd 12 00 	cmpl   $0x12cd10,0xfffffff0(%ebp)
    44a2:	75 05                	jne    44a9 <append+0xc7>
    44a4:	89 55 f0             	mov    %edx,0xfffffff0(%ebp)
    44a7:	eb 06                	jmp    44af <append+0xcd>
    44a9:	8b 45 ec             	mov    0xffffffec(%ebp),%eax
    44ac:	89 50 08             	mov    %edx,0x8(%eax)
    44af:	89 55 ec             	mov    %edx,0xffffffec(%ebp)
    44b2:	83 fe 01             	cmp    $0x1,%esi
    44b5:	0f 8f 50 ff ff ff    	jg     440b <append+0x29>
    44bb:	8b 45 f0             	mov    0xfffffff0(%ebp),%eax
    44be:	83 c4 0c             	add    $0xc,%esp
    44c1:	5b                   	pop    %ebx
    44c2:	5e                   	pop    %esi
    44c3:	5f                   	pop    %edi
    44c4:	5d                   	pop    %ebp
    44c5:	c3                   	ret    

000044c6 <reverse>:
    44c6:	55                   	push   %ebp
    44c7:	89 e5                	mov    %esp,%ebp
    44c9:	5d                   	pop    %ebp
    44ca:	c3                   	ret    
    44cb:	90                   	nop    

000044cc <scheme_init_vector>:
    44cc:	55                   	push   %ebp
    44cd:	89 e5                	mov    %esp,%ebp
    44cf:	5d                   	pop    %ebp
    44d0:	c3                   	ret    

000044d1 <scheme_make_vector>:
    44d1:	55                   	push   %ebp
    44d2:	89 e5                	mov    %esp,%ebp
    44d4:	57                   	push   %edi
    44d5:	56                   	push   %esi
    44d6:	53                   	push   %ebx
    44d7:	83 ec 0c             	sub    $0xc,%esp
    44da:	8b 5d 08             	mov    0x8(%ebp),%ebx
    44dd:	8b 75 0c             	mov    0xc(%ebp),%esi
    44e0:	c7 04 24 10 00 00 00 	movl   $0x10,(%esp)
    44e7:	e8 69 38 00 00       	call   7d55 <kmalloc>
    44ec:	89 c7                	mov    %eax,%edi
    44ee:	8d 04 9d 00 00 00 00 	lea    0x0(,%ebx,4),%eax
    44f5:	89 04 24             	mov    %eax,(%esp)
    44f8:	e8 58 38 00 00       	call   7d55 <kmalloc>
    44fd:	89 c2                	mov    %eax,%edx
    44ff:	66 c7 07 15 00       	movw   $0x15,(%edi)
    4504:	89 47 04             	mov    %eax,0x4(%edi)
    4507:	89 5f 08             	mov    %ebx,0x8(%edi)
    450a:	85 db                	test   %ebx,%ebx
    450c:	7e 0f                	jle    451d <scheme_make_vector+0x4c>
    450e:	89 f0                	mov    %esi,%eax
    4510:	83 c6 10             	add    $0x10,%esi
    4513:	89 02                	mov    %eax,(%edx)
    4515:	83 c2 04             	add    $0x4,%edx
    4518:	4b                   	dec    %ebx
    4519:	85 db                	test   %ebx,%ebx
    451b:	7f f1                	jg     450e <scheme_make_vector+0x3d>
    451d:	89 f8                	mov    %edi,%eax
    451f:	83 c4 0c             	add    $0xc,%esp
    4522:	5b                   	pop    %ebx
    4523:	5e                   	pop    %esi
    4524:	5f                   	pop    %edi
    4525:	5d                   	pop    %ebp
    4526:	c3                   	ret    

00004527 <scheme_vector_to_string>:
    4527:	55                   	push   %ebp
    4528:	89 e5                	mov    %esp,%ebp
    452a:	57                   	push   %edi
    452b:	56                   	push   %esi
    452c:	53                   	push   %ebx
    452d:	83 ec 0c             	sub    $0xc,%esp
    4530:	8b 45 0c             	mov    0xc(%ebp),%eax
    4533:	8b 55 08             	mov    0x8(%ebp),%edx
    4536:	c6 02 23             	movb   $0x23,(%edx)
    4539:	c6 42 01 28          	movb   $0x28,0x1(%edx)
    453d:	89 d3                	mov    %edx,%ebx
    453f:	83 c3 02             	add    $0x2,%ebx
    4542:	8b 70 04             	mov    0x4(%eax),%esi
    4545:	8b 78 08             	mov    0x8(%eax),%edi
    4548:	85 ff                	test   %edi,%edi
    454a:	7e 38                	jle    4584 <scheme_vector_to_string+0x5d>
    454c:	8b 06                	mov    (%esi),%eax
    454e:	a8 01                	test   $0x1,%al
    4550:	75 16                	jne    4568 <scheme_vector_to_string+0x41>
    4552:	66 83 38 15          	cmpw   $0x15,(%eax)
    4556:	75 10                	jne    4568 <scheme_vector_to_string+0x41>
    4558:	89 44 24 04          	mov    %eax,0x4(%esp)
    455c:	89 1c 24             	mov    %ebx,(%esp)
    455f:	e8 c3 ff ff ff       	call   4527 <scheme_vector_to_string>
    4564:	01 c3                	add    %eax,%ebx
    4566:	eb 10                	jmp    4578 <scheme_vector_to_string+0x51>
    4568:	8b 06                	mov    (%esi),%eax
    456a:	89 44 24 04          	mov    %eax,0x4(%esp)
    456e:	89 1c 24             	mov    %ebx,(%esp)
    4571:	e8 7a 1a 00 00       	call   5ff0 <scheme_obj_to_string>
    4576:	01 c3                	add    %eax,%ebx
    4578:	c6 03 20             	movb   $0x20,(%ebx)
    457b:	43                   	inc    %ebx
    457c:	4f                   	dec    %edi
    457d:	83 c6 04             	add    $0x4,%esi
    4580:	85 ff                	test   %edi,%edi
    4582:	7f c8                	jg     454c <scheme_vector_to_string+0x25>
    4584:	c6 43 ff 29          	movb   $0x29,0xffffffff(%ebx)
    4588:	c6 03 00             	movb   $0x0,(%ebx)
    458b:	89 d8                	mov    %ebx,%eax
    458d:	2b 45 08             	sub    0x8(%ebp),%eax
    4590:	83 c4 0c             	add    $0xc,%esp
    4593:	5b                   	pop    %ebx
    4594:	5e                   	pop    %esi
    4595:	5f                   	pop    %edi
    4596:	5d                   	pop    %ebp
    4597:	c3                   	ret    

00004598 <scheme_init_read>:
    4598:	55                   	push   %ebp
    4599:	89 e5                	mov    %esp,%ebp
    459b:	53                   	push   %ebx
    459c:	83 ec 14             	sub    $0x14,%esp
    459f:	8b 5d 08             	mov    0x8(%ebp),%ebx
    45a2:	c7 05 20 b5 01 00 00 	movl   $0x0,0x1b520
    45a9:	00 00 00 
    45ac:	89 5c 24 10          	mov    %ebx,0x10(%esp)
    45b0:	c7 44 24 0c 01 00 00 	movl   $0x1,0xc(%esp)
    45b7:	00 
    45b8:	c7 44 24 08 00 00 00 	movl   $0x0,0x8(%esp)
    45bf:	00 
    45c0:	c7 44 24 04 b3 46 00 	movl   $0x46b3,0x4(%esp)
    45c7:	00 
    45c8:	c7 04 24 92 8b 00 00 	movl   $0x8b92,(%esp)
    45cf:	e8 9a 20 00 00       	call   666e <scheme_register_primitive>
    45d4:	89 5c 24 10          	mov    %ebx,0x10(%esp)
    45d8:	c7 44 24 0c 01 00 00 	movl   $0x1,0xc(%esp)
    45df:	00 
    45e0:	c7 44 24 08 00 00 00 	movl   $0x0,0x8(%esp)
    45e7:	00 
    45e8:	c7 44 24 04 56 47 00 	movl   $0x4756,0x4(%esp)
    45ef:	00 
    45f0:	c7 04 24 97 8b 00 00 	movl   $0x8b97,(%esp)
    45f7:	e8 72 20 00 00       	call   666e <scheme_register_primitive>
    45fc:	89 5c 24 10          	mov    %ebx,0x10(%esp)
    4600:	c7 44 24 0c 01 00 00 	movl   $0x1,0xc(%esp)
    4607:	00 
    4608:	c7 44 24 08 00 00 00 	movl   $0x0,0x8(%esp)
    460f:	00 
    4610:	c7 44 24 04 73 47 00 	movl   $0x4773,0x4(%esp)
    4617:	00 
    4618:	c7 04 24 a1 8b 00 00 	movl   $0x8ba1,(%esp)
    461f:	e8 4a 20 00 00       	call   666e <scheme_register_primitive>
    4624:	89 5c 24 10          	mov    %ebx,0x10(%esp)
    4628:	c7 44 24 0c 01 00 00 	movl   $0x1,0xc(%esp)
    462f:	00 
    4630:	c7 44 24 08 01 00 00 	movl   $0x1,0x8(%esp)
    4637:	00 
    4638:	c7 44 24 04 90 47 00 	movl   $0x4790,0x4(%esp)
    463f:	00 
    4640:	c7 04 24 ab 8b 00 00 	movl   $0x8bab,(%esp)
    4647:	e8 22 20 00 00       	call   666e <scheme_register_primitive>
    464c:	89 5c 24 10          	mov    %ebx,0x10(%esp)
    4650:	c7 44 24 0c 01 00 00 	movl   $0x1,0xc(%esp)
    4657:	00 
    4658:	c7 44 24 08 00 00 00 	movl   $0x0,0x8(%esp)
    465f:	00 
    4660:	c7 44 24 04 b5 47 00 	movl   $0x47b5,0x4(%esp)
    4667:	00 
    4668:	c7 04 24 b7 8b 00 00 	movl   $0x8bb7,(%esp)
    466f:	e8 fa 1f 00 00       	call   666e <scheme_register_primitive>
    4674:	83 c4 14             	add    $0x14,%esp
    4677:	5b                   	pop    %ebx
    4678:	5d                   	pop    %ebp
    4679:	c3                   	ret    

0000467a <scheme_read>:
    467a:	55                   	push   %ebp
    467b:	89 e5                	mov    %esp,%ebp
    467d:	83 ec 08             	sub    $0x8,%esp
    4680:	81 7d 08 10 cd 12 00 	cmpl   $0x12cd10,0x8(%ebp)
    4687:	75 15                	jne    469e <scheme_read+0x24>
    4689:	8d 45 08             	lea    0x8(%ebp),%eax
    468c:	89 44 24 04          	mov    %eax,0x4(%esp)
    4690:	c7 04 24 00 00 00 00 	movl   $0x0,(%esp)
    4697:	e8 17 00 00 00       	call   46b3 <read>
    469c:	eb 13                	jmp    46b1 <scheme_read+0x37>
    469e:	8d 45 08             	lea    0x8(%ebp),%eax
    46a1:	89 44 24 04          	mov    %eax,0x4(%esp)
    46a5:	c7 04 24 01 00 00 00 	movl   $0x1,(%esp)
    46ac:	e8 02 00 00 00       	call   46b3 <read>
    46b1:	c9                   	leave  
    46b2:	c3                   	ret    

000046b3 <read>:
    46b3:	55                   	push   %ebp
    46b4:	89 e5                	mov    %esp,%ebp
    46b6:	53                   	push   %ebx
    46b7:	83 ec 14             	sub    $0x14,%esp
    46ba:	83 7d 08 00          	cmpl   $0x0,0x8(%ebp)
    46be:	75 07                	jne    46c7 <read+0x14>
    46c0:	a1 c8 bc 12 00       	mov    0x12bcc8,%eax
    46c5:	eb 05                	jmp    46cc <read+0x19>
    46c7:	8b 45 0c             	mov    0xc(%ebp),%eax
    46ca:	8b 00                	mov    (%eax),%eax
    46cc:	89 04 24             	mov    %eax,(%esp)
    46cf:	e8 4d 05 00 00       	call   4c21 <_make_token_seq>
    46d4:	89 45 f8             	mov    %eax,0xfffffff8(%ebp)
    46d7:	8b 00                	mov    (%eax),%eax
    46d9:	ba 00 cd 12 00       	mov    $0x12cd00,%edx
    46de:	83 f8 04             	cmp    $0x4,%eax
    46e1:	74 6b                	je     474e <read+0x9b>
    46e3:	83 f8 04             	cmp    $0x4,%eax
    46e6:	77 07                	ja     46ef <read+0x3c>
    46e8:	83 f8 03             	cmp    $0x3,%eax
    46eb:	74 0e                	je     46fb <read+0x48>
    46ed:	eb 45                	jmp    4734 <read+0x81>
    46ef:	83 f8 05             	cmp    $0x5,%eax
    46f2:	74 1a                	je     470e <read+0x5b>
    46f4:	83 f8 06             	cmp    $0x6,%eax
    46f7:	74 28                	je     4721 <read+0x6e>
    46f9:	eb 39                	jmp    4734 <read+0x81>
    46fb:	83 45 f8 08          	addl   $0x8,0xfffffff8(%ebp)
    46ff:	8d 45 f8             	lea    0xfffffff8(%ebp),%eax
    4702:	89 04 24             	mov    %eax,(%esp)
    4705:	e8 20 01 00 00       	call   482a <_create_list>
    470a:	89 c3                	mov    %eax,%ebx
    470c:	eb 33                	jmp    4741 <read+0x8e>
    470e:	83 45 f8 08          	addl   $0x8,0xfffffff8(%ebp)
    4712:	8d 45 f8             	lea    0xfffffff8(%ebp),%eax
    4715:	89 04 24             	mov    %eax,(%esp)
    4718:	e8 97 02 00 00       	call   49b4 <_create_vector>
    471d:	89 c3                	mov    %eax,%ebx
    471f:	eb 20                	jmp    4741 <read+0x8e>
    4721:	83 45 f8 08          	addl   $0x8,0xfffffff8(%ebp)
    4725:	8d 45 f8             	lea    0xfffffff8(%ebp),%eax
    4728:	89 04 24             	mov    %eax,(%esp)
    472b:	e8 fd 03 00 00       	call   4b2d <_create_quoted>
    4730:	89 c3                	mov    %eax,%ebx
    4732:	eb 0d                	jmp    4741 <read+0x8e>
    4734:	8b 45 f8             	mov    0xfffffff8(%ebp),%eax
    4737:	89 04 24             	mov    %eax,(%esp)
    473a:	e8 80 00 00 00       	call   47bf <_token_to_obj>
    473f:	89 c3                	mov    %eax,%ebx
    4741:	8b 45 f8             	mov    0xfffffff8(%ebp),%eax
    4744:	89 04 24             	mov    %eax,(%esp)
    4747:	e8 2d 09 00 00       	call   5079 <_free_token_seq>
    474c:	89 da                	mov    %ebx,%edx
    474e:	89 d0                	mov    %edx,%eax
    4750:	83 c4 14             	add    $0x14,%esp
    4753:	5b                   	pop    %ebx
    4754:	5d                   	pop    %ebp
    4755:	c3                   	ret    

00004756 <read_char>:
    4756:	55                   	push   %ebp
    4757:	89 e5                	mov    %esp,%ebp
    4759:	83 ec 08             	sub    $0x8,%esp
    475c:	8b 45 0c             	mov    0xc(%ebp),%eax
    475f:	8b 00                	mov    (%eax),%eax
    4761:	89 04 24             	mov    %eax,(%esp)
    4764:	e8 d7 0b 00 00       	call   5340 <scheme_port_get_char>
    4769:	0f be c0             	movsbl %al,%eax
    476c:	01 c0                	add    %eax,%eax
    476e:	83 c8 01             	or     $0x1,%eax
    4771:	c9                   	leave  
    4772:	c3                   	ret    

00004773 <peek_char>:
    4773:	55                   	push   %ebp
    4774:	89 e5                	mov    %esp,%ebp
    4776:	83 ec 08             	sub    $0x8,%esp
    4779:	8b 45 0c             	mov    0xc(%ebp),%eax
    477c:	8b 00                	mov    (%eax),%eax
    477e:	89 04 24             	mov    %eax,(%esp)
    4781:	e8 94 0b 00 00       	call   531a <scheme_port_peek_char>
    4786:	0f be c0             	movsbl %al,%eax
    4789:	01 c0                	add    %eax,%eax
    478b:	83 c8 01             	or     $0x1,%eax
    478e:	c9                   	leave  
    478f:	c3                   	ret    

00004790 <eof_object_p>:
    4790:	55                   	push   %ebp
    4791:	89 e5                	mov    %esp,%ebp
    4793:	83 ec 08             	sub    $0x8,%esp
    4796:	8b 45 0c             	mov    0xc(%ebp),%eax
    4799:	8b 00                	mov    (%eax),%eax
    479b:	89 04 24             	mov    %eax,(%esp)
    479e:	e8 77 0b 00 00       	call   531a <scheme_port_peek_char>
    47a3:	ba 54 cd 12 00       	mov    $0x12cd54,%edx
    47a8:	3c ff                	cmp    $0xff,%al
    47aa:	74 05                	je     47b1 <eof_object_p+0x21>
    47ac:	ba 40 cd 12 00       	mov    $0x12cd40,%edx
    47b1:	89 d0                	mov    %edx,%eax
    47b3:	c9                   	leave  
    47b4:	c3                   	ret    

000047b5 <char_ready_p>:
    47b5:	55                   	push   %ebp
    47b6:	89 e5                	mov    %esp,%ebp
    47b8:	b8 54 cd 12 00       	mov    $0x12cd54,%eax
    47bd:	5d                   	pop    %ebp
    47be:	c3                   	ret    

000047bf <_token_to_obj>:
    47bf:	55                   	push   %ebp
    47c0:	89 e5                	mov    %esp,%ebp
    47c2:	83 ec 08             	sub    $0x8,%esp
    47c5:	8b 55 08             	mov    0x8(%ebp),%edx
    47c8:	8b 02                	mov    (%edx),%eax
    47ca:	83 e8 11             	sub    $0x11,%eax
    47cd:	83 f8 07             	cmp    $0x7,%eax
    47d0:	77 51                	ja     4823 <_token_to_obj+0x64>
    47d2:	ff 24 85 74 86 00 00 	jmp    *0x8674(,%eax,4)
    47d9:	8b 42 04             	mov    0x4(%edx),%eax
    47dc:	89 04 24             	mov    %eax,(%esp)
    47df:	e8 99 15 00 00       	call   5d7d <scheme_make_symbol>
    47e4:	eb 42                	jmp    4828 <_token_to_obj+0x69>
    47e6:	b8 54 cd 12 00       	mov    $0x12cd54,%eax
    47eb:	eb 3b                	jmp    4828 <_token_to_obj+0x69>
    47ed:	b8 40 cd 12 00       	mov    $0x12cd40,%eax
    47f2:	eb 34                	jmp    4828 <_token_to_obj+0x69>
    47f4:	8b 42 04             	mov    0x4(%edx),%eax
    47f7:	89 04 24             	mov    %eax,(%esp)
    47fa:	e8 b5 33 00 00       	call   7bb4 <atoi>
    47ff:	89 04 24             	mov    %eax,(%esp)
    4802:	e8 95 0e 00 00       	call   569c <scheme_make_integer_numb>
    4807:	eb 1f                	jmp    4828 <_token_to_obj+0x69>
    4809:	8b 42 04             	mov    0x4(%edx),%eax
    480c:	0f be 00             	movsbl (%eax),%eax
    480f:	01 c0                	add    %eax,%eax
    4811:	83 c8 01             	or     $0x1,%eax
    4814:	eb 12                	jmp    4828 <_token_to_obj+0x69>
    4816:	8b 42 04             	mov    0x4(%edx),%eax
    4819:	89 04 24             	mov    %eax,(%esp)
    481c:	e8 17 f3 ff ff       	call   3b38 <scheme_make_string>
    4821:	eb 05                	jmp    4828 <_token_to_obj+0x69>
    4823:	b8 00 cd 12 00       	mov    $0x12cd00,%eax
    4828:	c9                   	leave  
    4829:	c3                   	ret    

0000482a <_create_list>:
    482a:	55                   	push   %ebp
    482b:	89 e5                	mov    %esp,%ebp
    482d:	57                   	push   %edi
    482e:	56                   	push   %esi
    482f:	53                   	push   %ebx
    4830:	83 ec 1c             	sub    $0x1c,%esp
    4833:	8b 75 08             	mov    0x8(%ebp),%esi
    4836:	c7 45 f0 00 00 00 00 	movl   $0x0,0xfffffff0(%ebp)
    483d:	c7 45 ec 10 cd 12 00 	movl   $0x12cd10,0xffffffec(%ebp)
    4844:	bf 10 cd 12 00       	mov    $0x12cd10,%edi
    4849:	8b 06                	mov    (%esi),%eax
    484b:	89 c3                	mov    %eax,%ebx
    484d:	8b 00                	mov    (%eax),%eax
    484f:	83 f8 ff             	cmp    $0xffffffff,%eax
    4852:	0f 95 c1             	setne  %cl
    4855:	83 f8 04             	cmp    $0x4,%eax
    4858:	0f 95 c2             	setne  %dl
    485b:	0f b6 c1             	movzbl %cl,%eax
    485e:	85 c2                	test   %eax,%edx
    4860:	0f 84 40 01 00 00    	je     49a6 <_create_list+0x17c>
    4866:	8b 03                	mov    (%ebx),%eax
    4868:	83 f8 05             	cmp    $0x5,%eax
    486b:	74 28                	je     4895 <_create_list+0x6b>
    486d:	83 f8 05             	cmp    $0x5,%eax
    4870:	77 07                	ja     4879 <_create_list+0x4f>
    4872:	83 f8 03             	cmp    $0x3,%eax
    4875:	74 0e                	je     4885 <_create_list+0x5b>
    4877:	eb 5b                	jmp    48d4 <_create_list+0xaa>
    4879:	83 f8 06             	cmp    $0x6,%eax
    487c:	74 27                	je     48a5 <_create_list+0x7b>
    487e:	83 f8 0b             	cmp    $0xb,%eax
    4881:	74 32                	je     48b5 <_create_list+0x8b>
    4883:	eb 4f                	jmp    48d4 <_create_list+0xaa>
    4885:	83 06 08             	addl   $0x8,(%esi)
    4888:	89 34 24             	mov    %esi,(%esp)
    488b:	e8 9a ff ff ff       	call   482a <_create_list>
    4890:	e9 a4 00 00 00       	jmp    4939 <_create_list+0x10f>
    4895:	83 06 08             	addl   $0x8,(%esi)
    4898:	89 34 24             	mov    %esi,(%esp)
    489b:	e8 14 01 00 00       	call   49b4 <_create_vector>
    48a0:	e9 94 00 00 00       	jmp    4939 <_create_list+0x10f>
    48a5:	83 06 08             	addl   $0x8,(%esi)
    48a8:	89 34 24             	mov    %esi,(%esp)
    48ab:	e8 7d 02 00 00       	call   4b2d <_create_quoted>
    48b0:	e9 84 00 00 00       	jmp    4939 <_create_list+0x10f>
    48b5:	83 06 08             	addl   $0x8,(%esi)
    48b8:	83 7d f0 00          	cmpl   $0x0,0xfffffff0(%ebp)
    48bc:	74 0a                	je     48c8 <_create_list+0x9e>
    48be:	b8 00 cd 12 00       	mov    $0x12cd00,%eax
    48c3:	e9 e4 00 00 00       	jmp    49ac <_create_list+0x182>
    48c8:	c7 45 f0 01 00 00 00 	movl   $0x1,0xfffffff0(%ebp)
    48cf:	e9 b7 00 00 00       	jmp    498b <_create_list+0x161>
    48d4:	8b 16                	mov    (%esi),%edx
    48d6:	8b 02                	mov    (%edx),%eax
    48d8:	83 e8 11             	sub    $0x11,%eax
    48db:	83 f8 07             	cmp    $0x7,%eax
    48de:	77 51                	ja     4931 <_create_list+0x107>
    48e0:	ff 24 85 94 86 00 00 	jmp    *0x8694(,%eax,4)
    48e7:	8b 42 04             	mov    0x4(%edx),%eax
    48ea:	89 04 24             	mov    %eax,(%esp)
    48ed:	e8 8b 14 00 00       	call   5d7d <scheme_make_symbol>
    48f2:	eb 42                	jmp    4936 <_create_list+0x10c>
    48f4:	b8 54 cd 12 00       	mov    $0x12cd54,%eax
    48f9:	eb 3b                	jmp    4936 <_create_list+0x10c>
    48fb:	b8 40 cd 12 00       	mov    $0x12cd40,%eax
    4900:	eb 34                	jmp    4936 <_create_list+0x10c>
    4902:	8b 42 04             	mov    0x4(%edx),%eax
    4905:	89 04 24             	mov    %eax,(%esp)
    4908:	e8 a7 32 00 00       	call   7bb4 <atoi>
    490d:	89 04 24             	mov    %eax,(%esp)
    4910:	e8 87 0d 00 00       	call   569c <scheme_make_integer_numb>
    4915:	eb 1f                	jmp    4936 <_create_list+0x10c>
    4917:	8b 42 04             	mov    0x4(%edx),%eax
    491a:	0f be 00             	movsbl (%eax),%eax
    491d:	01 c0                	add    %eax,%eax
    491f:	83 c8 01             	or     $0x1,%eax
    4922:	eb 12                	jmp    4936 <_create_list+0x10c>
    4924:	8b 42 04             	mov    0x4(%edx),%eax
    4927:	89 04 24             	mov    %eax,(%esp)
    492a:	e8 09 f2 ff ff       	call   3b38 <scheme_make_string>
    492f:	eb 05                	jmp    4936 <_create_list+0x10c>
    4931:	b8 00 cd 12 00       	mov    $0x12cd00,%eax
    4936:	83 06 08             	addl   $0x8,(%esi)
    4939:	83 7d f0 00          	cmpl   $0x0,0xfffffff0(%ebp)
    493d:	75 12                	jne    4951 <_create_list+0x127>
    493f:	c7 44 24 04 10 cd 12 	movl   $0x12cd10,0x4(%esp)
    4946:	00 
    4947:	89 04 24             	mov    %eax,(%esp)
    494a:	e8 1e f8 ff ff       	call   416d <scheme_make_pair>
    494f:	eb 10                	jmp    4961 <_create_list+0x137>
    4951:	81 7d ec 10 cd 12 00 	cmpl   $0x12cd10,0xffffffec(%ebp)
    4958:	75 07                	jne    4961 <_create_list+0x137>
    495a:	b8 00 cd 12 00       	mov    $0x12cd00,%eax
    495f:	eb 4b                	jmp    49ac <_create_list+0x182>
    4961:	81 7d ec 10 cd 12 00 	cmpl   $0x12cd10,0xffffffec(%ebp)
    4968:	75 05                	jne    496f <_create_list+0x145>
    496a:	89 45 ec             	mov    %eax,0xffffffec(%ebp)
    496d:	eb 1a                	jmp    4989 <_create_list+0x15f>
    496f:	f7 c7 01 00 00 00    	test   $0x1,%edi
    4975:	75 0b                	jne    4982 <_create_list+0x158>
    4977:	66 83 3f 14          	cmpw   $0x14,(%edi)
    497b:	75 05                	jne    4982 <_create_list+0x158>
    497d:	89 47 08             	mov    %eax,0x8(%edi)
    4980:	eb 07                	jmp    4989 <_create_list+0x15f>
    4982:	b8 00 cd 12 00       	mov    $0x12cd00,%eax
    4987:	eb 23                	jmp    49ac <_create_list+0x182>
    4989:	89 c7                	mov    %eax,%edi
    498b:	8b 1e                	mov    (%esi),%ebx
    498d:	8b 03                	mov    (%ebx),%eax
    498f:	83 f8 ff             	cmp    $0xffffffff,%eax
    4992:	0f 95 c1             	setne  %cl
    4995:	83 f8 04             	cmp    $0x4,%eax
    4998:	0f 95 c2             	setne  %dl
    499b:	0f b6 c1             	movzbl %cl,%eax
    499e:	85 c2                	test   %eax,%edx
    49a0:	0f 85 c0 fe ff ff    	jne    4866 <_create_list+0x3c>
    49a6:	83 06 08             	addl   $0x8,(%esi)
    49a9:	8b 45 ec             	mov    0xffffffec(%ebp),%eax
    49ac:	83 c4 1c             	add    $0x1c,%esp
    49af:	5b                   	pop    %ebx
    49b0:	5e                   	pop    %esi
    49b1:	5f                   	pop    %edi
    49b2:	5d                   	pop    %ebp
    49b3:	c3                   	ret    

000049b4 <_create_vector>:
    49b4:	55                   	push   %ebp
    49b5:	89 e5                	mov    %esp,%ebp
    49b7:	57                   	push   %edi
    49b8:	56                   	push   %esi
    49b9:	53                   	push   %ebx
    49ba:	83 ec 0c             	sub    $0xc,%esp
    49bd:	8b 7d 08             	mov    0x8(%ebp),%edi
    49c0:	bb 00 00 00 00       	mov    $0x0,%ebx
    49c5:	c7 45 f0 00 00 00 00 	movl   $0x0,0xfffffff0(%ebp)
    49cc:	8b 0f                	mov    (%edi),%ecx
    49ce:	83 39 ff             	cmpl   $0xffffffff,(%ecx)
    49d1:	74 46                	je     4a19 <_create_vector+0x65>
    49d3:	8b 01                	mov    (%ecx),%eax
    49d5:	83 f8 04             	cmp    $0x4,%eax
    49d8:	74 16                	je     49f0 <_create_vector+0x3c>
    49da:	83 f8 04             	cmp    $0x4,%eax
    49dd:	77 07                	ja     49e6 <_create_vector+0x32>
    49df:	83 f8 03             	cmp    $0x3,%eax
    49e2:	74 09                	je     49ed <_create_vector+0x39>
    49e4:	eb 15                	jmp    49fb <_create_vector+0x47>
    49e6:	83 f8 05             	cmp    $0x5,%eax
    49e9:	74 0d                	je     49f8 <_create_vector+0x44>
    49eb:	eb 0e                	jmp    49fb <_create_vector+0x47>
    49ed:	43                   	inc    %ebx
    49ee:	eb 12                	jmp    4a02 <_create_vector+0x4e>
    49f0:	4b                   	dec    %ebx
    49f1:	75 0f                	jne    4a02 <_create_vector+0x4e>
    49f3:	ff 45 f0             	incl   0xfffffff0(%ebp)
    49f6:	eb 0a                	jmp    4a02 <_create_vector+0x4e>
    49f8:	43                   	inc    %ebx
    49f9:	eb 07                	jmp    4a02 <_create_vector+0x4e>
    49fb:	83 fb 01             	cmp    $0x1,%ebx
    49fe:	83 55 f0 00          	adcl   $0x0,0xfffffff0(%ebp)
    4a02:	83 c1 08             	add    $0x8,%ecx
    4a05:	83 39 ff             	cmpl   $0xffffffff,(%ecx)
    4a08:	0f 95 c0             	setne  %al
    4a0b:	0f b6 d0             	movzbl %al,%edx
    4a0e:	89 d8                	mov    %ebx,%eax
    4a10:	f7 d0                	not    %eax
    4a12:	c1 e8 1f             	shr    $0x1f,%eax
    4a15:	85 d0                	test   %edx,%eax
    4a17:	75 ba                	jne    49d3 <_create_vector+0x1f>
    4a19:	c7 04 24 10 00 00 00 	movl   $0x10,(%esp)
    4a20:	e8 30 33 00 00       	call   7d55 <kmalloc>
    4a25:	89 45 ec             	mov    %eax,0xffffffec(%ebp)
    4a28:	8b 45 f0             	mov    0xfffffff0(%ebp),%eax
    4a2b:	c1 e0 02             	shl    $0x2,%eax
    4a2e:	89 04 24             	mov    %eax,(%esp)
    4a31:	e8 1f 33 00 00       	call   7d55 <kmalloc>
    4a36:	89 c6                	mov    %eax,%esi
    4a38:	8b 45 ec             	mov    0xffffffec(%ebp),%eax
    4a3b:	66 c7 00 15 00       	movw   $0x15,(%eax)
    4a40:	89 70 04             	mov    %esi,0x4(%eax)
    4a43:	8b 55 f0             	mov    0xfffffff0(%ebp),%edx
    4a46:	89 50 08             	mov    %edx,0x8(%eax)
    4a49:	8b 07                	mov    (%edi),%eax
    4a4b:	89 c3                	mov    %eax,%ebx
    4a4d:	8b 00                	mov    (%eax),%eax
    4a4f:	83 f8 ff             	cmp    $0xffffffff,%eax
    4a52:	0f 95 c1             	setne  %cl
    4a55:	83 f8 04             	cmp    $0x4,%eax
    4a58:	0f 95 c2             	setne  %dl
    4a5b:	0f b6 c1             	movzbl %cl,%eax
    4a5e:	85 c2                	test   %eax,%edx
    4a60:	0f 84 b9 00 00 00    	je     4b1f <_create_vector+0x16b>
    4a66:	8b 03                	mov    (%ebx),%eax
    4a68:	83 f8 03             	cmp    $0x3,%eax
    4a6b:	74 07                	je     4a74 <_create_vector+0xc0>
    4a6d:	83 f8 05             	cmp    $0x5,%eax
    4a70:	74 14                	je     4a86 <_create_vector+0xd2>
    4a72:	eb 24                	jmp    4a98 <_create_vector+0xe4>
    4a74:	83 07 08             	addl   $0x8,(%edi)
    4a77:	89 3c 24             	mov    %edi,(%esp)
    4a7a:	e8 ab fd ff ff       	call   482a <_create_list>
    4a7f:	89 06                	mov    %eax,(%esi)
    4a81:	83 c6 04             	add    $0x4,%esi
    4a84:	eb 7e                	jmp    4b04 <_create_vector+0x150>
    4a86:	83 07 08             	addl   $0x8,(%edi)
    4a89:	89 3c 24             	mov    %edi,(%esp)
    4a8c:	e8 23 ff ff ff       	call   49b4 <_create_vector>
    4a91:	89 06                	mov    %eax,(%esi)
    4a93:	83 c6 04             	add    $0x4,%esi
    4a96:	eb 6c                	jmp    4b04 <_create_vector+0x150>
    4a98:	8b 17                	mov    (%edi),%edx
    4a9a:	89 f3                	mov    %esi,%ebx
    4a9c:	8d 76 04             	lea    0x4(%esi),%esi
    4a9f:	8b 02                	mov    (%edx),%eax
    4aa1:	83 e8 11             	sub    $0x11,%eax
    4aa4:	83 f8 07             	cmp    $0x7,%eax
    4aa7:	77 51                	ja     4afa <_create_vector+0x146>
    4aa9:	ff 24 85 b4 86 00 00 	jmp    *0x86b4(,%eax,4)
    4ab0:	8b 42 04             	mov    0x4(%edx),%eax
    4ab3:	89 04 24             	mov    %eax,(%esp)
    4ab6:	e8 c2 12 00 00       	call   5d7d <scheme_make_symbol>
    4abb:	eb 42                	jmp    4aff <_create_vector+0x14b>
    4abd:	b8 54 cd 12 00       	mov    $0x12cd54,%eax
    4ac2:	eb 3b                	jmp    4aff <_create_vector+0x14b>
    4ac4:	b8 40 cd 12 00       	mov    $0x12cd40,%eax
    4ac9:	eb 34                	jmp    4aff <_create_vector+0x14b>
    4acb:	8b 42 04             	mov    0x4(%edx),%eax
    4ace:	89 04 24             	mov    %eax,(%esp)
    4ad1:	e8 de 30 00 00       	call   7bb4 <atoi>
    4ad6:	89 04 24             	mov    %eax,(%esp)
    4ad9:	e8 be 0b 00 00       	call   569c <scheme_make_integer_numb>
    4ade:	eb 1f                	jmp    4aff <_create_vector+0x14b>
    4ae0:	8b 42 04             	mov    0x4(%edx),%eax
    4ae3:	0f be 00             	movsbl (%eax),%eax
    4ae6:	01 c0                	add    %eax,%eax
    4ae8:	83 c8 01             	or     $0x1,%eax
    4aeb:	eb 12                	jmp    4aff <_create_vector+0x14b>
    4aed:	8b 42 04             	mov    0x4(%edx),%eax
    4af0:	89 04 24             	mov    %eax,(%esp)
    4af3:	e8 40 f0 ff ff       	call   3b38 <scheme_make_string>
    4af8:	eb 05                	jmp    4aff <_create_vector+0x14b>
    4afa:	b8 00 cd 12 00       	mov    $0x12cd00,%eax
    4aff:	89 03                	mov    %eax,(%ebx)
    4b01:	83 07 08             	addl   $0x8,(%edi)
    4b04:	8b 1f                	mov    (%edi),%ebx
    4b06:	8b 03                	mov    (%ebx),%eax
    4b08:	83 f8 ff             	cmp    $0xffffffff,%eax
    4b0b:	0f 95 c1             	setne  %cl
    4b0e:	83 f8 04             	cmp    $0x4,%eax
    4b11:	0f 95 c2             	setne  %dl
    4b14:	0f b6 c1             	movzbl %cl,%eax
    4b17:	85 c2                	test   %eax,%edx
    4b19:	0f 85 47 ff ff ff    	jne    4a66 <_create_vector+0xb2>
    4b1f:	83 07 08             	addl   $0x8,(%edi)
    4b22:	8b 45 ec             	mov    0xffffffec(%ebp),%eax
    4b25:	83 c4 0c             	add    $0xc,%esp
    4b28:	5b                   	pop    %ebx
    4b29:	5e                   	pop    %esi
    4b2a:	5f                   	pop    %edi
    4b2b:	5d                   	pop    %ebp
    4b2c:	c3                   	ret    

00004b2d <_create_quoted>:
    4b2d:	55                   	push   %ebp
    4b2e:	89 e5                	mov    %esp,%ebp
    4b30:	53                   	push   %ebx
    4b31:	83 ec 14             	sub    $0x14,%esp
    4b34:	8b 5d 08             	mov    0x8(%ebp),%ebx
    4b37:	8b 03                	mov    (%ebx),%eax
    4b39:	8b 00                	mov    (%eax),%eax
    4b3b:	ba 00 cd 12 00       	mov    $0x12cd00,%edx
    4b40:	83 f8 04             	cmp    $0x4,%eax
    4b43:	0f 84 d0 00 00 00    	je     4c19 <_create_quoted+0xec>
    4b49:	83 f8 04             	cmp    $0x4,%eax
    4b4c:	77 07                	ja     4b55 <_create_quoted+0x28>
    4b4e:	83 f8 03             	cmp    $0x3,%eax
    4b51:	74 0e                	je     4b61 <_create_quoted+0x34>
    4b53:	eb 33                	jmp    4b88 <_create_quoted+0x5b>
    4b55:	83 f8 05             	cmp    $0x5,%eax
    4b58:	74 14                	je     4b6e <_create_quoted+0x41>
    4b5a:	83 f8 06             	cmp    $0x6,%eax
    4b5d:	74 1c                	je     4b7b <_create_quoted+0x4e>
    4b5f:	eb 27                	jmp    4b88 <_create_quoted+0x5b>
    4b61:	83 03 08             	addl   $0x8,(%ebx)
    4b64:	89 1c 24             	mov    %ebx,(%esp)
    4b67:	e8 be fc ff ff       	call   482a <_create_list>
    4b6c:	eb 7f                	jmp    4bed <_create_quoted+0xc0>
    4b6e:	83 03 08             	addl   $0x8,(%ebx)
    4b71:	89 1c 24             	mov    %ebx,(%esp)
    4b74:	e8 3b fe ff ff       	call   49b4 <_create_vector>
    4b79:	eb 72                	jmp    4bed <_create_quoted+0xc0>
    4b7b:	83 03 08             	addl   $0x8,(%ebx)
    4b7e:	89 1c 24             	mov    %ebx,(%esp)
    4b81:	e8 a7 ff ff ff       	call   4b2d <_create_quoted>
    4b86:	eb 65                	jmp    4bed <_create_quoted+0xc0>
    4b88:	8b 13                	mov    (%ebx),%edx
    4b8a:	8b 02                	mov    (%edx),%eax
    4b8c:	83 e8 11             	sub    $0x11,%eax
    4b8f:	83 f8 07             	cmp    $0x7,%eax
    4b92:	77 51                	ja     4be5 <_create_quoted+0xb8>
    4b94:	ff 24 85 d4 86 00 00 	jmp    *0x86d4(,%eax,4)
    4b9b:	8b 42 04             	mov    0x4(%edx),%eax
    4b9e:	89 04 24             	mov    %eax,(%esp)
    4ba1:	e8 d7 11 00 00       	call   5d7d <scheme_make_symbol>
    4ba6:	eb 42                	jmp    4bea <_create_quoted+0xbd>
    4ba8:	b8 54 cd 12 00       	mov    $0x12cd54,%eax
    4bad:	eb 3b                	jmp    4bea <_create_quoted+0xbd>
    4baf:	b8 40 cd 12 00       	mov    $0x12cd40,%eax
    4bb4:	eb 34                	jmp    4bea <_create_quoted+0xbd>
    4bb6:	8b 42 04             	mov    0x4(%edx),%eax
    4bb9:	89 04 24             	mov    %eax,(%esp)
    4bbc:	e8 f3 2f 00 00       	call   7bb4 <atoi>
    4bc1:	89 04 24             	mov    %eax,(%esp)
    4bc4:	e8 d3 0a 00 00       	call   569c <scheme_make_integer_numb>
    4bc9:	eb 1f                	jmp    4bea <_create_quoted+0xbd>
    4bcb:	8b 42 04             	mov    0x4(%edx),%eax
    4bce:	0f be 00             	movsbl (%eax),%eax
    4bd1:	01 c0                	add    %eax,%eax
    4bd3:	83 c8 01             	or     $0x1,%eax
    4bd6:	eb 12                	jmp    4bea <_create_quoted+0xbd>
    4bd8:	8b 42 04             	mov    0x4(%edx),%eax
    4bdb:	89 04 24             	mov    %eax,(%esp)
    4bde:	e8 55 ef ff ff       	call   3b38 <scheme_make_string>
    4be3:	eb 05                	jmp    4bea <_create_quoted+0xbd>
    4be5:	b8 00 cd 12 00       	mov    $0x12cd00,%eax
    4bea:	83 03 08             	addl   $0x8,(%ebx)
    4bed:	c7 44 24 04 10 cd 12 	movl   $0x12cd10,0x4(%esp)
    4bf4:	00 
    4bf5:	89 04 24             	mov    %eax,(%esp)
    4bf8:	e8 70 f5 ff ff       	call   416d <scheme_make_pair>
    4bfd:	89 c3                	mov    %eax,%ebx
    4bff:	c7 04 24 f4 8d 00 00 	movl   $0x8df4,(%esp)
    4c06:	e8 72 11 00 00       	call   5d7d <scheme_make_symbol>
    4c0b:	89 5c 24 04          	mov    %ebx,0x4(%esp)
    4c0f:	89 04 24             	mov    %eax,(%esp)
    4c12:	e8 56 f5 ff ff       	call   416d <scheme_make_pair>
    4c17:	89 c2                	mov    %eax,%edx
    4c19:	89 d0                	mov    %edx,%eax
    4c1b:	83 c4 14             	add    $0x14,%esp
    4c1e:	5b                   	pop    %ebx
    4c1f:	5d                   	pop    %ebp
    4c20:	c3                   	ret    

00004c21 <_make_token_seq>:
    4c21:	55                   	push   %ebp
    4c22:	89 e5                	mov    %esp,%ebp
    4c24:	57                   	push   %edi
    4c25:	56                   	push   %esi
    4c26:	53                   	push   %ebx
    4c27:	83 ec 1c             	sub    $0x1c,%esp
    4c2a:	8b 7d 08             	mov    0x8(%ebp),%edi
    4c2d:	be 00 00 00 00       	mov    $0x0,%esi
    4c32:	bb 20 95 00 00       	mov    $0x9520,%ebx
    4c37:	c7 45 ec 00 00 00 00 	movl   $0x0,0xffffffec(%ebp)
    4c3e:	c7 45 e4 00 00 00 00 	movl   $0x0,0xffffffe4(%ebp)
    4c45:	c7 45 e8 00 00 00 00 	movl   $0x0,0xffffffe8(%ebp)
    4c4c:	c7 45 f0 00 00 00 00 	movl   $0x0,0xfffffff0(%ebp)
    4c53:	e9 ed 03 00 00       	jmp    5045 <_make_token_seq+0x424>
    4c58:	80 f9 0b             	cmp    $0xb,%cl
    4c5b:	0f 94 c0             	sete   %al
    4c5e:	80 f9 09             	cmp    $0x9,%cl
    4c61:	0f 94 c2             	sete   %dl
    4c64:	09 d0                	or     %edx,%eax
    4c66:	a8 01                	test   $0x1,%al
    4c68:	75 24                	jne    4c8e <_make_token_seq+0x6d>
    4c6a:	80 f9 20             	cmp    $0x20,%cl
    4c6d:	0f 94 c0             	sete   %al
    4c70:	80 f9 0a             	cmp    $0xa,%cl
    4c73:	0f 94 c2             	sete   %dl
    4c76:	09 d0                	or     %edx,%eax
    4c78:	a8 01                	test   $0x1,%al
    4c7a:	75 12                	jne    4c8e <_make_token_seq+0x6d>
    4c7c:	80 f9 0d             	cmp    $0xd,%cl
    4c7f:	0f 94 c0             	sete   %al
    4c82:	80 f9 0c             	cmp    $0xc,%cl
    4c85:	0f 94 c2             	sete   %dl
    4c88:	09 d0                	or     %edx,%eax
    4c8a:	a8 01                	test   $0x1,%al
    4c8c:	74 2c                	je     4cba <_make_token_seq+0x99>
    4c8e:	83 7d ec 01          	cmpl   $0x1,0xffffffec(%ebp)
    4c92:	0f 85 ad 03 00 00    	jne    5045 <_make_token_seq+0x424>
    4c98:	c7 45 ec 00 00 00 00 	movl   $0x0,0xffffffec(%ebp)
    4c9f:	c7 45 e8 00 00 00 00 	movl   $0x0,0xffffffe8(%ebp)
    4ca6:	c6 03 00             	movb   $0x0,(%ebx)
    4ca9:	43                   	inc    %ebx
    4caa:	46                   	inc    %esi
    4cab:	83 7d f0 00          	cmpl   $0x0,0xfffffff0(%ebp)
    4caf:	0f 84 a2 03 00 00    	je     5057 <_make_token_seq+0x436>
    4cb5:	e9 8b 03 00 00       	jmp    5045 <_make_token_seq+0x424>
    4cba:	0f be c1             	movsbl %cl,%eax
    4cbd:	83 e8 22             	sub    $0x22,%eax
    4cc0:	83 f8 3e             	cmp    $0x3e,%eax
    4cc3:	0f 87 e9 02 00 00    	ja     4fb2 <_make_token_seq+0x391>
    4cc9:	ff 24 85 f4 86 00 00 	jmp    *0x86f4(,%eax,4)
    4cd0:	c7 04 f5 20 95 01 00 	movl   $0x3,0x19520(,%esi,8)
    4cd7:	03 00 00 00 
    4cdb:	46                   	inc    %esi
    4cdc:	c7 45 ec 00 00 00 00 	movl   $0x0,0xffffffec(%ebp)
    4ce3:	ff 45 f0             	incl   0xfffffff0(%ebp)
    4ce6:	e9 54 03 00 00       	jmp    503f <_make_token_seq+0x41e>
    4ceb:	83 7d ec 01          	cmpl   $0x1,0xffffffec(%ebp)
    4cef:	75 0c                	jne    4cfd <_make_token_seq+0xdc>
    4cf1:	c7 45 ec 00 00 00 00 	movl   $0x0,0xffffffec(%ebp)
    4cf8:	c6 03 00             	movb   $0x0,(%ebx)
    4cfb:	43                   	inc    %ebx
    4cfc:	46                   	inc    %esi
    4cfd:	c7 04 f5 20 95 01 00 	movl   $0x4,0x19520(,%esi,8)
    4d04:	04 00 00 00 
    4d08:	46                   	inc    %esi
    4d09:	ff 4d f0             	decl   0xfffffff0(%ebp)
    4d0c:	0f 85 2d 03 00 00    	jne    503f <_make_token_seq+0x41e>
    4d12:	c7 45 e4 01 00 00 00 	movl   $0x1,0xffffffe4(%ebp)
    4d19:	e9 21 03 00 00       	jmp    503f <_make_token_seq+0x41e>
    4d1e:	c6 43 ff 00          	movb   $0x0,0xffffffff(%ebx)
    4d22:	e9 18 03 00 00       	jmp    503f <_make_token_seq+0x41e>
    4d27:	83 7d ec 01          	cmpl   $0x1,0xffffffec(%ebp)
    4d2b:	75 0c                	jne    4d39 <_make_token_seq+0x118>
    4d2d:	c7 45 ec 00 00 00 00 	movl   $0x0,0xffffffec(%ebp)
    4d34:	c6 03 00             	movb   $0x0,(%ebx)
    4d37:	43                   	inc    %ebx
    4d38:	46                   	inc    %esi
    4d39:	c7 04 f5 20 95 01 00 	movl   $0x18,0x19520(,%esi,8)
    4d40:	18 00 00 00 
    4d44:	89 1c f5 24 95 01 00 	mov    %ebx,0x19524(,%esi,8)
    4d4b:	46                   	inc    %esi
    4d4c:	eb 29                	jmp    4d77 <_make_token_seq+0x156>
    4d4e:	88 0b                	mov    %cl,(%ebx)
    4d50:	43                   	inc    %ebx
    4d51:	80 f9 5c             	cmp    $0x5c,%cl
    4d54:	75 1c                	jne    4d72 <_make_token_seq+0x151>
    4d56:	89 3c 24             	mov    %edi,(%esp)
    4d59:	e8 e2 05 00 00       	call   5340 <scheme_port_get_char>
    4d5e:	88 c1                	mov    %al,%cl
    4d60:	3c 22                	cmp    $0x22,%al
    4d62:	74 04                	je     4d68 <_make_token_seq+0x147>
    4d64:	3c 5c                	cmp    $0x5c,%al
    4d66:	75 05                	jne    4d6d <_make_token_seq+0x14c>
    4d68:	88 4b ff             	mov    %cl,0xffffffff(%ebx)
    4d6b:	eb 0a                	jmp    4d77 <_make_token_seq+0x156>
    4d6d:	88 03                	mov    %al,(%ebx)
    4d6f:	43                   	inc    %ebx
    4d70:	eb 05                	jmp    4d77 <_make_token_seq+0x156>
    4d72:	80 f9 22             	cmp    $0x22,%cl
    4d75:	74 a7                	je     4d1e <_make_token_seq+0xfd>
    4d77:	89 3c 24             	mov    %edi,(%esp)
    4d7a:	e8 c1 05 00 00       	call   5340 <scheme_port_get_char>
    4d7f:	3c 7f                	cmp    $0x7f,%al
    4d81:	0f 84 b8 02 00 00    	je     503f <_make_token_seq+0x41e>
    4d87:	89 3c 24             	mov    %edi,(%esp)
    4d8a:	e8 b1 05 00 00       	call   5340 <scheme_port_get_char>
    4d8f:	88 c1                	mov    %al,%cl
    4d91:	3c 1f                	cmp    $0x1f,%al
    4d93:	7f b9                	jg     4d4e <_make_token_seq+0x12d>
    4d95:	e9 a5 02 00 00       	jmp    503f <_make_token_seq+0x41e>
    4d9a:	83 7d ec 01          	cmpl   $0x1,0xffffffec(%ebp)
    4d9e:	75 09                	jne    4da9 <_make_token_seq+0x188>
    4da0:	c6 03 23             	movb   $0x23,(%ebx)
    4da3:	43                   	inc    %ebx
    4da4:	e9 96 02 00 00       	jmp    503f <_make_token_seq+0x41e>
    4da9:	89 3c 24             	mov    %edi,(%esp)
    4dac:	e8 8f 05 00 00       	call   5340 <scheme_port_get_char>
    4db1:	0f be c0             	movsbl %al,%eax
    4db4:	83 e8 28             	sub    $0x28,%eax
    4db7:	83 f8 50             	cmp    $0x50,%eax
    4dba:	0f 87 19 01 00 00    	ja     4ed9 <_make_token_seq+0x2b8>
    4dc0:	ff 24 85 f0 87 00 00 	jmp    *0x87f0(,%eax,4)
    4dc7:	c7 04 f5 20 95 01 00 	movl   $0x5,0x19520(,%esi,8)
    4dce:	05 00 00 00 
    4dd2:	46                   	inc    %esi
    4dd3:	ff 45 f0             	incl   0xfffffff0(%ebp)
    4dd6:	e9 64 02 00 00       	jmp    503f <_make_token_seq+0x41e>
    4ddb:	c7 04 f5 20 95 01 00 	movl   $0x13,0x19520(,%esi,8)
    4de2:	13 00 00 00 
    4de6:	46                   	inc    %esi
    4de7:	e9 53 02 00 00       	jmp    503f <_make_token_seq+0x41e>
    4dec:	c7 04 f5 20 95 01 00 	movl   $0x14,0x19520(,%esi,8)
    4df3:	14 00 00 00 
    4df7:	46                   	inc    %esi
    4df8:	e9 42 02 00 00       	jmp    503f <_make_token_seq+0x41e>
    4dfd:	c7 04 f5 20 95 01 00 	movl   $0x17,0x19520(,%esi,8)
    4e04:	17 00 00 00 
    4e08:	89 1c f5 24 95 01 00 	mov    %ebx,0x19524(,%esi,8)
    4e0f:	46                   	inc    %esi
    4e10:	eb 3e                	jmp    4e50 <_make_token_seq+0x22f>
    4e12:	80 f9 0b             	cmp    $0xb,%cl
    4e15:	0f 94 c0             	sete   %al
    4e18:	80 f9 09             	cmp    $0x9,%cl
    4e1b:	0f 94 c2             	sete   %dl
    4e1e:	09 d0                	or     %edx,%eax
    4e20:	a8 01                	test   $0x1,%al
    4e22:	75 46                	jne    4e6a <_make_token_seq+0x249>
    4e24:	80 f9 20             	cmp    $0x20,%cl
    4e27:	0f 94 c0             	sete   %al
    4e2a:	80 f9 0a             	cmp    $0xa,%cl
    4e2d:	0f 94 c2             	sete   %dl
    4e30:	09 d0                	or     %edx,%eax
    4e32:	a8 01                	test   $0x1,%al
    4e34:	75 34                	jne    4e6a <_make_token_seq+0x249>
    4e36:	80 f9 0d             	cmp    $0xd,%cl
    4e39:	0f 94 c0             	sete   %al
    4e3c:	80 f9 0c             	cmp    $0xc,%cl
    4e3f:	0f 94 c2             	sete   %dl
    4e42:	09 d0                	or     %edx,%eax
    4e44:	a8 01                	test   $0x1,%al
    4e46:	75 22                	jne    4e6a <_make_token_seq+0x249>
    4e48:	80 f9 ff             	cmp    $0xff,%cl
    4e4b:	74 1d                	je     4e6a <_make_token_seq+0x249>
    4e4d:	88 0b                	mov    %cl,(%ebx)
    4e4f:	43                   	inc    %ebx
    4e50:	89 3c 24             	mov    %edi,(%esp)
    4e53:	e8 e8 04 00 00       	call   5340 <scheme_port_get_char>
    4e58:	3c 7f                	cmp    $0x7f,%al
    4e5a:	74 0e                	je     4e6a <_make_token_seq+0x249>
    4e5c:	89 3c 24             	mov    %edi,(%esp)
    4e5f:	e8 dc 04 00 00       	call   5340 <scheme_port_get_char>
    4e64:	88 c1                	mov    %al,%cl
    4e66:	3c 1f                	cmp    $0x1f,%al
    4e68:	7f a8                	jg     4e12 <_make_token_seq+0x1f1>
    4e6a:	c6 03 00             	movb   $0x0,(%ebx)
    4e6d:	43                   	inc    %ebx
    4e6e:	e9 cc 01 00 00       	jmp    503f <_make_token_seq+0x41e>
    4e73:	c7 04 f5 20 95 01 00 	movl   $0x19,0x19520(,%esi,8)
    4e7a:	19 00 00 00 
    4e7e:	46                   	inc    %esi
    4e7f:	e9 bb 01 00 00       	jmp    503f <_make_token_seq+0x41e>
    4e84:	c7 04 f5 20 95 01 00 	movl   $0x1a,0x19520(,%esi,8)
    4e8b:	1a 00 00 00 
    4e8f:	46                   	inc    %esi
    4e90:	e9 aa 01 00 00       	jmp    503f <_make_token_seq+0x41e>
    4e95:	c7 04 f5 20 95 01 00 	movl   $0x1b,0x19520(,%esi,8)
    4e9c:	1b 00 00 00 
    4ea0:	46                   	inc    %esi
    4ea1:	e9 99 01 00 00       	jmp    503f <_make_token_seq+0x41e>
    4ea6:	c7 04 f5 20 95 01 00 	movl   $0x1c,0x19520(,%esi,8)
    4ead:	1c 00 00 00 
    4eb1:	46                   	inc    %esi
    4eb2:	e9 88 01 00 00       	jmp    503f <_make_token_seq+0x41e>
    4eb7:	c7 04 f5 20 95 01 00 	movl   $0x1d,0x19520(,%esi,8)
    4ebe:	1d 00 00 00 
    4ec2:	46                   	inc    %esi
    4ec3:	e9 77 01 00 00       	jmp    503f <_make_token_seq+0x41e>
    4ec8:	c7 04 f5 20 95 01 00 	movl   $0x1e,0x19520(,%esi,8)
    4ecf:	1e 00 00 00 
    4ed3:	46                   	inc    %esi
    4ed4:	e9 66 01 00 00       	jmp    503f <_make_token_seq+0x41e>
    4ed9:	c7 04 24 c3 8b 00 00 	movl   $0x8bc3,(%esp)
    4ee0:	e8 6f 31 00 00       	call   8054 <printf>
    4ee5:	e9 55 01 00 00       	jmp    503f <_make_token_seq+0x41e>
    4eea:	c7 04 f5 20 95 01 00 	movl   $0x6,0x19520(,%esi,8)
    4ef1:	06 00 00 00 
    4ef5:	46                   	inc    %esi
    4ef6:	e9 44 01 00 00       	jmp    503f <_make_token_seq+0x41e>
    4efb:	c7 04 f5 20 95 01 00 	movl   $0x7,0x19520(,%esi,8)
    4f02:	07 00 00 00 
    4f06:	46                   	inc    %esi
    4f07:	e9 33 01 00 00       	jmp    503f <_make_token_seq+0x41e>
    4f0c:	89 3c 24             	mov    %edi,(%esp)
    4f0f:	e8 2c 04 00 00       	call   5340 <scheme_port_get_char>
    4f14:	88 c1                	mov    %al,%cl
    4f16:	3c 40                	cmp    $0x40,%al
    4f18:	75 11                	jne    4f2b <_make_token_seq+0x30a>
    4f1a:	c7 04 f5 20 95 01 00 	movl   $0x9,0x19520(,%esi,8)
    4f21:	09 00 00 00 
    4f25:	46                   	inc    %esi
    4f26:	e9 14 01 00 00       	jmp    503f <_make_token_seq+0x41e>
    4f2b:	c7 04 f5 20 95 01 00 	movl   $0x8,0x19520(,%esi,8)
    4f32:	08 00 00 00 
    4f36:	46                   	inc    %esi
    4f37:	e9 1c fd ff ff       	jmp    4c58 <_make_token_seq+0x37>
    4f3c:	83 7d ec 00          	cmpl   $0x0,0xffffffec(%ebp)
    4f40:	0f 85 f9 00 00 00    	jne    503f <_make_token_seq+0x41e>
    4f46:	c7 04 f5 20 95 01 00 	movl   $0x11,0x19520(,%esi,8)
    4f4d:	11 00 00 00 
    4f51:	89 1c f5 24 95 01 00 	mov    %ebx,0x19524(,%esi,8)
    4f58:	c7 45 ec 01 00 00 00 	movl   $0x1,0xffffffec(%ebp)
    4f5f:	e9 db 00 00 00       	jmp    503f <_make_token_seq+0x41e>
    4f64:	83 7d ec 00          	cmpl   $0x0,0xffffffec(%ebp)
    4f68:	75 1b                	jne    4f85 <_make_token_seq+0x364>
    4f6a:	c7 04 f5 20 95 01 00 	movl   $0xb,0x19520(,%esi,8)
    4f71:	0b 00 00 00 
    4f75:	89 1c f5 24 95 01 00 	mov    %ebx,0x19524(,%esi,8)
    4f7c:	c7 45 ec 01 00 00 00 	movl   $0x1,0xffffffec(%ebp)
    4f83:	eb 24                	jmp    4fa9 <_make_token_seq+0x388>
    4f85:	83 7d e8 00          	cmpl   $0x0,0xffffffe8(%ebp)
    4f89:	74 0d                	je     4f98 <_make_token_seq+0x377>
    4f8b:	c7 04 f5 20 95 01 00 	movl   $0x11,0x19520(,%esi,8)
    4f92:	11 00 00 00 
    4f96:	eb 11                	jmp    4fa9 <_make_token_seq+0x388>
    4f98:	83 3c f5 20 95 01 00 	cmpl   $0x15,0x19520(,%esi,8)
    4f9f:	15 
    4fa0:	75 07                	jne    4fa9 <_make_token_seq+0x388>
    4fa2:	c7 45 e8 01 00 00 00 	movl   $0x1,0xffffffe8(%ebp)
    4fa9:	c6 03 2e             	movb   $0x2e,(%ebx)
    4fac:	43                   	inc    %ebx
    4fad:	e9 8d 00 00 00       	jmp    503f <_make_token_seq+0x41e>
    4fb2:	88 c8                	mov    %cl,%al
    4fb4:	2c 30                	sub    $0x30,%al
    4fb6:	3c 09                	cmp    $0x9,%al
    4fb8:	77 3c                	ja     4ff6 <_make_token_seq+0x3d5>
    4fba:	83 7d ec 00          	cmpl   $0x0,0xffffffec(%ebp)
    4fbe:	75 1b                	jne    4fdb <_make_token_seq+0x3ba>
    4fc0:	c7 45 ec 01 00 00 00 	movl   $0x1,0xffffffec(%ebp)
    4fc7:	c7 04 f5 20 95 01 00 	movl   $0x15,0x19520(,%esi,8)
    4fce:	15 00 00 00 
    4fd2:	89 1c f5 24 95 01 00 	mov    %ebx,0x19524(,%esi,8)
    4fd9:	eb 61                	jmp    503c <_make_token_seq+0x41b>
    4fdb:	b8 20 95 01 00       	mov    $0x19520,%eax
    4fe0:	83 3c f0 0b          	cmpl   $0xb,(%eax,%esi,8)
    4fe4:	75 56                	jne    503c <_make_token_seq+0x41b>
    4fe6:	c7 04 f0 15 00 00 00 	movl   $0x15,(%eax,%esi,8)
    4fed:	c7 45 e8 01 00 00 00 	movl   $0x1,0xffffffe8(%ebp)
    4ff4:	eb 46                	jmp    503c <_make_token_seq+0x41b>
    4ff6:	80 f9 7f             	cmp    $0x7f,%cl
    4ff9:	0f 95 c0             	setne  %al
    4ffc:	80 f9 1f             	cmp    $0x1f,%cl
    4fff:	0f 9f c2             	setg   %dl
    5002:	0f b6 c0             	movzbl %al,%eax
    5005:	85 c2                	test   %eax,%edx
    5007:	74 33                	je     503c <_make_token_seq+0x41b>
    5009:	83 7d ec 00          	cmpl   $0x0,0xffffffec(%ebp)
    500d:	75 1b                	jne    502a <_make_token_seq+0x409>
    500f:	c7 45 ec 01 00 00 00 	movl   $0x1,0xffffffec(%ebp)
    5016:	c7 04 f5 20 95 01 00 	movl   $0x11,0x19520(,%esi,8)
    501d:	11 00 00 00 
    5021:	89 1c f5 24 95 01 00 	mov    %ebx,0x19524(,%esi,8)
    5028:	eb 12                	jmp    503c <_make_token_seq+0x41b>
    502a:	b8 20 95 01 00       	mov    $0x19520,%eax
    502f:	83 3c f0 15          	cmpl   $0x15,(%eax,%esi,8)
    5033:	75 07                	jne    503c <_make_token_seq+0x41b>
    5035:	c7 04 f0 11 00 00 00 	movl   $0x11,(%eax,%esi,8)
    503c:	88 0b                	mov    %cl,(%ebx)
    503e:	43                   	inc    %ebx
    503f:	83 7d e4 00          	cmpl   $0x0,0xffffffe4(%ebp)
    5043:	75 12                	jne    5057 <_make_token_seq+0x436>
    5045:	89 3c 24             	mov    %edi,(%esp)
    5048:	e8 f3 02 00 00       	call   5340 <scheme_port_get_char>
    504d:	88 c1                	mov    %al,%cl
    504f:	3c ff                	cmp    $0xff,%al
    5051:	0f 85 01 fc ff ff    	jne    4c58 <_make_token_seq+0x37>
    5057:	83 7d ec 01          	cmpl   $0x1,0xffffffec(%ebp)
    505b:	75 04                	jne    5061 <_make_token_seq+0x440>
    505d:	c6 03 00             	movb   $0x0,(%ebx)
    5060:	46                   	inc    %esi
    5061:	c7 04 f5 20 95 01 00 	movl   $0xffffffff,0x19520(,%esi,8)
    5068:	ff ff ff ff 
    506c:	b8 20 95 01 00       	mov    $0x19520,%eax
    5071:	83 c4 1c             	add    $0x1c,%esp
    5074:	5b                   	pop    %ebx
    5075:	5e                   	pop    %esi
    5076:	5f                   	pop    %edi
    5077:	5d                   	pop    %ebp
    5078:	c3                   	ret    

00005079 <_free_token_seq>:
    5079:	55                   	push   %ebp
    507a:	89 e5                	mov    %esp,%ebp
    507c:	5d                   	pop    %ebp
    507d:	c3                   	ret    
    507e:	90                   	nop    
    507f:	90                   	nop    

00005080 <scheme_init_port>:
    5080:	55                   	push   %ebp
    5081:	89 e5                	mov    %esp,%ebp
    5083:	56                   	push   %esi
    5084:	53                   	push   %ebx
    5085:	83 ec 20             	sub    $0x20,%esp
    5088:	8b 5d 08             	mov    0x8(%ebp),%ebx
    508b:	c7 05 40 b9 01 00 00 	movl   $0x0,0x1b940
    5092:	00 00 00 
    5095:	c6 05 40 b5 01 00 00 	movb   $0x0,0x1b540
    509c:	c7 04 24 10 00 00 00 	movl   $0x10,(%esp)
    50a3:	e8 ad 2c 00 00       	call   7d55 <kmalloc>
    50a8:	89 c6                	mov    %eax,%esi
    50aa:	66 c7 00 16 00       	movw   $0x16,(%eax)
    50af:	c7 40 04 10 cd 12 00 	movl   $0x12cd10,0x4(%eax)
    50b6:	c7 40 08 02 00 00 00 	movl   $0x2,0x8(%eax)
    50bd:	a3 c8 bc 12 00       	mov    %eax,0x12bcc8
    50c2:	89 5c 24 10          	mov    %ebx,0x10(%esp)
    50c6:	c7 44 24 0c 01 00 00 	movl   $0x1,0xc(%esp)
    50cd:	00 
    50ce:	c7 44 24 08 01 00 00 	movl   $0x1,0x8(%esp)
    50d5:	00 
    50d6:	c7 44 24 04 a8 52 00 	movl   $0x52a8,0x4(%esp)
    50dd:	00 
    50de:	c7 04 24 d1 8b 00 00 	movl   $0x8bd1,(%esp)
    50e5:	e8 84 15 00 00       	call   666e <scheme_register_primitive>
    50ea:	89 5c 24 10          	mov    %ebx,0x10(%esp)
    50ee:	c7 44 24 0c 01 00 00 	movl   $0x1,0xc(%esp)
    50f5:	00 
    50f6:	c7 44 24 08 01 00 00 	movl   $0x1,0x8(%esp)
    50fd:	00 
    50fe:	c7 44 24 04 c8 52 00 	movl   $0x52c8,0x4(%esp)
    5105:	00 
    5106:	c7 04 24 dd 8b 00 00 	movl   $0x8bdd,(%esp)
    510d:	e8 5c 15 00 00       	call   666e <scheme_register_primitive>
    5112:	89 5c 24 10          	mov    %ebx,0x10(%esp)
    5116:	c7 44 24 0c 00 00 00 	movl   $0x0,0xc(%esp)
    511d:	00 
    511e:	c7 44 24 08 00 00 00 	movl   $0x0,0x8(%esp)
    5125:	00 
    5126:	c7 44 24 04 e8 52 00 	movl   $0x52e8,0x4(%esp)
    512d:	00 
    512e:	c7 04 24 ea 8b 00 00 	movl   $0x8bea,(%esp)
    5135:	e8 34 15 00 00       	call   666e <scheme_register_primitive>
    513a:	89 5c 24 10          	mov    %ebx,0x10(%esp)
    513e:	c7 44 24 0c 00 00 00 	movl   $0x0,0xc(%esp)
    5145:	00 
    5146:	c7 44 24 08 00 00 00 	movl   $0x0,0x8(%esp)
    514d:	00 
    514e:	c7 44 24 04 f2 52 00 	movl   $0x52f2,0x4(%esp)
    5155:	00 
    5156:	c7 04 24 fd 8b 00 00 	movl   $0x8bfd,(%esp)
    515d:	e8 0c 15 00 00       	call   666e <scheme_register_primitive>
    5162:	89 5c 24 10          	mov    %ebx,0x10(%esp)
    5166:	c7 44 24 0c 01 00 00 	movl   $0x1,0xc(%esp)
    516d:	00 
    516e:	c7 44 24 08 01 00 00 	movl   $0x1,0x8(%esp)
    5175:	00 
    5176:	c7 44 24 04 fc 52 00 	movl   $0x52fc,0x4(%esp)
    517d:	00 
    517e:	c7 04 24 11 8c 00 00 	movl   $0x8c11,(%esp)
    5185:	e8 e4 14 00 00       	call   666e <scheme_register_primitive>
    518a:	89 5c 24 10          	mov    %ebx,0x10(%esp)
    518e:	c7 44 24 0c 01 00 00 	movl   $0x1,0xc(%esp)
    5195:	00 
    5196:	c7 44 24 08 01 00 00 	movl   $0x1,0x8(%esp)
    519d:	00 
    519e:	c7 44 24 04 01 53 00 	movl   $0x5301,0x4(%esp)
    51a5:	00 
    51a6:	c7 04 24 26 8c 00 00 	movl   $0x8c26,(%esp)
    51ad:	e8 bc 14 00 00       	call   666e <scheme_register_primitive>
    51b2:	89 5c 24 10          	mov    %ebx,0x10(%esp)
    51b6:	c7 44 24 0c 01 00 00 	movl   $0x1,0xc(%esp)
    51bd:	00 
    51be:	c7 44 24 08 01 00 00 	movl   $0x1,0x8(%esp)
    51c5:	00 
    51c6:	c7 44 24 04 06 53 00 	movl   $0x5306,0x4(%esp)
    51cd:	00 
    51ce:	c7 04 24 3a 8c 00 00 	movl   $0x8c3a,(%esp)
    51d5:	e8 94 14 00 00       	call   666e <scheme_register_primitive>
    51da:	89 5c 24 10          	mov    %ebx,0x10(%esp)
    51de:	c7 44 24 0c 01 00 00 	movl   $0x1,0xc(%esp)
    51e5:	00 
    51e6:	c7 44 24 08 01 00 00 	movl   $0x1,0x8(%esp)
    51ed:	00 
    51ee:	c7 44 24 04 0b 53 00 	movl   $0x530b,0x4(%esp)
    51f5:	00 
    51f6:	c7 04 24 4a 8c 00 00 	movl   $0x8c4a,(%esp)
    51fd:	e8 6c 14 00 00       	call   666e <scheme_register_primitive>
    5202:	89 5c 24 10          	mov    %ebx,0x10(%esp)
    5206:	c7 44 24 0c 01 00 00 	movl   $0x1,0xc(%esp)
    520d:	00 
    520e:	c7 44 24 08 01 00 00 	movl   $0x1,0x8(%esp)
    5215:	00 
    5216:	c7 44 24 04 10 53 00 	movl   $0x5310,0x4(%esp)
    521d:	00 
    521e:	c7 04 24 5b 8c 00 00 	movl   $0x8c5b,(%esp)
    5225:	e8 44 14 00 00       	call   666e <scheme_register_primitive>
    522a:	89 5c 24 10          	mov    %ebx,0x10(%esp)
    522e:	c7 44 24 0c 01 00 00 	movl   $0x1,0xc(%esp)
    5235:	00 
    5236:	c7 44 24 08 01 00 00 	movl   $0x1,0x8(%esp)
    523d:	00 
    523e:	c7 44 24 04 15 53 00 	movl   $0x5315,0x4(%esp)
    5245:	00 
    5246:	c7 04 24 6c 8c 00 00 	movl   $0x8c6c,(%esp)
    524d:	e8 1c 14 00 00       	call   666e <scheme_register_primitive>
    5252:	c7 04 24 7e 8c 00 00 	movl   $0x8c7e,(%esp)
    5259:	e8 1f 0b 00 00       	call   5d7d <scheme_make_symbol>
    525e:	89 5c 24 08          	mov    %ebx,0x8(%esp)
    5262:	89 74 24 04          	mov    %esi,0x4(%esp)
    5266:	89 04 24             	mov    %eax,(%esp)
    5269:	e8 0f 12 00 00       	call   647d <scheme_define_var>
    526e:	83 c4 20             	add    $0x20,%esp
    5271:	5b                   	pop    %ebx
    5272:	5e                   	pop    %esi
    5273:	5d                   	pop    %ebp
    5274:	c3                   	ret    

00005275 <scheme_make_char_input_stream>:
    5275:	55                   	push   %ebp
    5276:	89 e5                	mov    %esp,%ebp
    5278:	83 ec 08             	sub    $0x8,%esp
    527b:	c7 04 24 10 00 00 00 	movl   $0x10,(%esp)
    5282:	e8 ce 2a 00 00       	call   7d55 <kmalloc>
    5287:	89 c2                	mov    %eax,%edx
    5289:	b8 00 cd 12 00       	mov    $0x12cd00,%eax
    528e:	39 c2                	cmp    %eax,%edx
    5290:	74 14                	je     52a6 <scheme_make_char_input_stream+0x31>
    5292:	66 c7 02 16 00       	movw   $0x16,(%edx)
    5297:	8b 45 08             	mov    0x8(%ebp),%eax
    529a:	89 42 04             	mov    %eax,0x4(%edx)
    529d:	c7 42 08 00 00 00 00 	movl   $0x0,0x8(%edx)
    52a4:	89 d0                	mov    %edx,%eax
    52a6:	c9                   	leave  
    52a7:	c3                   	ret    

000052a8 <input_port_p>:
    52a8:	55                   	push   %ebp
    52a9:	89 e5                	mov    %esp,%ebp
    52ab:	8b 45 0c             	mov    0xc(%ebp),%eax
    52ae:	8b 00                	mov    (%eax),%eax
    52b0:	a8 01                	test   $0x1,%al
    52b2:	75 0b                	jne    52bf <input_port_p+0x17>
    52b4:	ba 54 cd 12 00       	mov    $0x12cd54,%edx
    52b9:	66 83 38 16          	cmpw   $0x16,(%eax)
    52bd:	74 05                	je     52c4 <input_port_p+0x1c>
    52bf:	ba 40 cd 12 00       	mov    $0x12cd40,%edx
    52c4:	89 d0                	mov    %edx,%eax
    52c6:	5d                   	pop    %ebp
    52c7:	c3                   	ret    

000052c8 <output_port_p>:
    52c8:	55                   	push   %ebp
    52c9:	89 e5                	mov    %esp,%ebp
    52cb:	8b 45 0c             	mov    0xc(%ebp),%eax
    52ce:	8b 00                	mov    (%eax),%eax
    52d0:	a8 01                	test   $0x1,%al
    52d2:	75 0b                	jne    52df <output_port_p+0x17>
    52d4:	ba 54 cd 12 00       	mov    $0x12cd54,%edx
    52d9:	66 83 38 17          	cmpw   $0x17,(%eax)
    52dd:	74 05                	je     52e4 <output_port_p+0x1c>
    52df:	ba 40 cd 12 00       	mov    $0x12cd40,%edx
    52e4:	89 d0                	mov    %edx,%eax
    52e6:	5d                   	pop    %ebp
    52e7:	c3                   	ret    

000052e8 <current_input_port>:
    52e8:	55                   	push   %ebp
    52e9:	89 e5                	mov    %esp,%ebp
    52eb:	a1 c8 bc 12 00       	mov    0x12bcc8,%eax
    52f0:	5d                   	pop    %ebp
    52f1:	c3                   	ret    

000052f2 <current_output_port>:
    52f2:	55                   	push   %ebp
    52f3:	89 e5                	mov    %esp,%ebp
    52f5:	a1 50 cd 12 00       	mov    0x12cd50,%eax
    52fa:	5d                   	pop    %ebp
    52fb:	c3                   	ret    

000052fc <with_input_from_file>:
    52fc:	55                   	push   %ebp
    52fd:	89 e5                	mov    %esp,%ebp
    52ff:	5d                   	pop    %ebp
    5300:	c3                   	ret    

00005301 <with_output_to_file>:
    5301:	55                   	push   %ebp
    5302:	89 e5                	mov    %esp,%ebp
    5304:	5d                   	pop    %ebp
    5305:	c3                   	ret    

00005306 <open_input_file>:
    5306:	55                   	push   %ebp
    5307:	89 e5                	mov    %esp,%ebp
    5309:	5d                   	pop    %ebp
    530a:	c3                   	ret    

0000530b <open_output_file>:
    530b:	55                   	push   %ebp
    530c:	89 e5                	mov    %esp,%ebp
    530e:	5d                   	pop    %ebp
    530f:	c3                   	ret    

00005310 <close_input_port>:
    5310:	55                   	push   %ebp
    5311:	89 e5                	mov    %esp,%ebp
    5313:	5d                   	pop    %ebp
    5314:	c3                   	ret    

00005315 <close_output_port>:
    5315:	55                   	push   %ebp
    5316:	89 e5                	mov    %esp,%ebp
    5318:	5d                   	pop    %ebp
    5319:	c3                   	ret    

0000531a <scheme_port_peek_char>:
    531a:	55                   	push   %ebp
    531b:	89 e5                	mov    %esp,%ebp
    531d:	8b 4d 08             	mov    0x8(%ebp),%ecx
    5320:	8b 41 08             	mov    0x8(%ecx),%eax
    5323:	a8 03                	test   $0x3,%al
    5325:	75 14                	jne    533b <scheme_port_peek_char+0x21>
    5327:	89 c2                	mov    %eax,%edx
    5329:	d1 fa                	sar    %edx
    532b:	8b 41 04             	mov    0x4(%ecx),%eax
    532e:	0f b6 14 10          	movzbl (%eax,%edx,1),%edx
    5332:	b8 ff ff ff ff       	mov    $0xffffffff,%eax
    5337:	84 d2                	test   %dl,%dl
    5339:	74 03                	je     533e <scheme_port_peek_char+0x24>
    533b:	0f be c2             	movsbl %dl,%eax
    533e:	5d                   	pop    %ebp
    533f:	c3                   	ret    

00005340 <scheme_port_get_char>:
    5340:	55                   	push   %ebp
    5341:	89 e5                	mov    %esp,%ebp
    5343:	83 ec 18             	sub    $0x18,%esp
    5346:	89 5d f4             	mov    %ebx,0xfffffff4(%ebp)
    5349:	89 75 f8             	mov    %esi,0xfffffff8(%ebp)
    534c:	89 7d fc             	mov    %edi,0xfffffffc(%ebp)
    534f:	8b 5d 08             	mov    0x8(%ebp),%ebx
    5352:	bf 94 35 00 00       	mov    $0x3594,%edi
    5357:	8b 43 08             	mov    0x8(%ebx),%eax
    535a:	83 e0 03             	and    $0x3,%eax
    535d:	74 0a                	je     5369 <scheme_port_get_char+0x29>
    535f:	83 f8 02             	cmp    $0x2,%eax
    5362:	74 2c                	je     5390 <scheme_port_get_char+0x50>
    5364:	e9 0c 01 00 00       	jmp    5475 <scheme_port_get_char+0x135>
    5369:	8b 43 08             	mov    0x8(%ebx),%eax
    536c:	89 c1                	mov    %eax,%ecx
    536e:	c1 f9 02             	sar    $0x2,%ecx
    5371:	8b 53 04             	mov    0x4(%ebx),%edx
    5374:	0f b6 14 0a          	movzbl (%edx,%ecx,1),%edx
    5378:	83 c0 04             	add    $0x4,%eax
    537b:	89 43 08             	mov    %eax,0x8(%ebx)
    537e:	b8 ff ff ff ff       	mov    $0xffffffff,%eax
    5383:	84 d2                	test   %dl,%dl
    5385:	0f 84 ed 00 00 00    	je     5478 <scheme_port_get_char+0x138>
    538b:	e9 e5 00 00 00       	jmp    5475 <scheme_port_get_char+0x135>
    5390:	8b 15 40 b9 01 00    	mov    0x1b940,%edx
    5396:	8d 42 01             	lea    0x1(%edx),%eax
    5399:	a3 40 b9 01 00       	mov    %eax,0x1b940
    539e:	0f b6 92 40 b5 01 00 	movzbl 0x1b540(%edx),%edx
    53a5:	80 fa 0a             	cmp    $0xa,%dl
    53a8:	75 16                	jne    53c0 <scheme_port_get_char+0x80>
    53aa:	c7 05 40 b9 01 00 00 	movl   $0x0,0x1b940
    53b1:	00 00 00 
    53b4:	c6 05 40 b5 01 00 00 	movb   $0x0,0x1b540
    53bb:	e9 b5 00 00 00       	jmp    5475 <scheme_port_get_char+0x135>
    53c0:	84 d2                	test   %dl,%dl
    53c2:	0f 85 ad 00 00 00    	jne    5475 <scheme_port_get_char+0x135>
    53c8:	c7 05 40 b9 01 00 00 	movl   $0x0,0x1b940
    53cf:	00 00 00 
    53d2:	be 64 00 00 00       	mov    $0x64,%esi
    53d7:	89 f2                	mov    %esi,%edx
    53d9:	ec                   	in     (%dx),%al
    53da:	a8 01                	test   $0x1,%al
    53dc:	74 f9                	je     53d7 <scheme_port_get_char+0x97>
    53de:	ba 60 00 00 00       	mov    $0x60,%edx
    53e3:	ec                   	in     (%dx),%al
    53e4:	0f b6 c0             	movzbl %al,%eax
    53e7:	88 c3                	mov    %al,%bl
    53e9:	84 c0                	test   %al,%al
    53eb:	79 18                	jns    5405 <scheme_port_get_char+0xc5>
    53ed:	3c aa                	cmp    $0xaa,%al
    53ef:	0f 94 c0             	sete   %al
    53f2:	80 fb b6             	cmp    $0xb6,%bl
    53f5:	0f 94 c2             	sete   %dl
    53f8:	09 d0                	or     %edx,%eax
    53fa:	a8 01                	test   $0x1,%al
    53fc:	74 5d                	je     545b <scheme_port_get_char+0x11b>
    53fe:	bf 94 35 00 00       	mov    $0x3594,%edi
    5403:	eb 56                	jmp    545b <scheme_port_get_char+0x11b>
    5405:	3c 2a                	cmp    $0x2a,%al
    5407:	0f 94 c0             	sete   %al
    540a:	80 fb 36             	cmp    $0x36,%bl
    540d:	0f 94 c2             	sete   %dl
    5410:	09 d0                	or     %edx,%eax
    5412:	a8 01                	test   $0x1,%al
    5414:	74 07                	je     541d <scheme_port_get_char+0xdd>
    5416:	bf f5 35 00 00       	mov    $0x35f5,%edi
    541b:	eb 3e                	jmp    545b <scheme_port_get_char+0x11b>
    541d:	0f be c3             	movsbl %bl,%eax
    5420:	0f b6 1c 38          	movzbl (%eax,%edi,1),%ebx
    5424:	80 fb 0d             	cmp    $0xd,%bl
    5427:	75 02                	jne    542b <scheme_port_get_char+0xeb>
    5429:	b3 0a                	mov    $0xa,%bl
    542b:	0f be c3             	movsbl %bl,%eax
    542e:	89 44 24 04          	mov    %eax,0x4(%esp)
    5432:	c7 04 24 9a 8c 00 00 	movl   $0x8c9a,(%esp)
    5439:	e8 16 2c 00 00       	call   8054 <printf>
    543e:	81 3d 40 b9 01 00 ff 	cmpl   $0x3ff,0x1b940
    5445:	03 00 00 
    5448:	7f 11                	jg     545b <scheme_port_get_char+0x11b>
    544a:	a1 40 b9 01 00       	mov    0x1b940,%eax
    544f:	88 98 40 b5 01 00    	mov    %bl,0x1b540(%eax)
    5455:	40                   	inc    %eax
    5456:	a3 40 b9 01 00       	mov    %eax,0x1b940
    545b:	80 fb 0a             	cmp    $0xa,%bl
    545e:	0f 85 73 ff ff ff    	jne    53d7 <scheme_port_get_char+0x97>
    5464:	c7 05 40 b9 01 00 01 	movl   $0x1,0x1b940
    546b:	00 00 00 
    546e:	0f b6 15 40 b5 01 00 	movzbl 0x1b540,%edx
    5475:	0f be c2             	movsbl %dl,%eax
    5478:	8b 5d f4             	mov    0xfffffff4(%ebp),%ebx
    547b:	8b 75 f8             	mov    0xfffffff8(%ebp),%esi
    547e:	8b 7d fc             	mov    0xfffffffc(%ebp),%edi
    5481:	89 ec                	mov    %ebp,%esp
    5483:	5d                   	pop    %ebp
    5484:	c3                   	ret    

00005485 <scheme_port_get_string>:
    5485:	55                   	push   %ebp
    5486:	89 e5                	mov    %esp,%ebp
    5488:	83 ec 10             	sub    $0x10,%esp
    548b:	89 5d f4             	mov    %ebx,0xfffffff4(%ebp)
    548e:	89 75 f8             	mov    %esi,0xfffffff8(%ebp)
    5491:	89 7d fc             	mov    %edi,0xfffffffc(%ebp)
    5494:	8b 7d 08             	mov    0x8(%ebp),%edi
    5497:	8b 4d 0c             	mov    0xc(%ebp),%ecx
    549a:	8b 5d 10             	mov    0x10(%ebp),%ebx
    549d:	be 00 00 00 00       	mov    $0x0,%esi
    54a2:	8b 47 08             	mov    0x8(%edi),%eax
    54a5:	a8 03                	test   $0x3,%al
    54a7:	75 40                	jne    54e9 <scheme_port_get_string+0x64>
    54a9:	d1 f8                	sar    %eax
    54ab:	89 c2                	mov    %eax,%edx
    54ad:	03 57 04             	add    0x4(%edi),%edx
    54b0:	89 55 f0             	mov    %edx,0xfffffff0(%ebp)
    54b3:	85 db                	test   %ebx,%ebx
    54b5:	7e 1c                	jle    54d3 <scheme_port_get_string+0x4e>
    54b7:	0f b6 02             	movzbl (%edx),%eax
    54ba:	42                   	inc    %edx
    54bb:	88 01                	mov    %al,(%ecx)
    54bd:	41                   	inc    %ecx
    54be:	84 c0                	test   %al,%al
    54c0:	74 11                	je     54d3 <scheme_port_get_string+0x4e>
    54c2:	4b                   	dec    %ebx
    54c3:	46                   	inc    %esi
    54c4:	85 db                	test   %ebx,%ebx
    54c6:	7e 0b                	jle    54d3 <scheme_port_get_string+0x4e>
    54c8:	0f b6 02             	movzbl (%edx),%eax
    54cb:	42                   	inc    %edx
    54cc:	88 01                	mov    %al,(%ecx)
    54ce:	41                   	inc    %ecx
    54cf:	84 c0                	test   %al,%al
    54d1:	75 ef                	jne    54c2 <scheme_port_get_string+0x3d>
    54d3:	8b 45 f0             	mov    0xfffffff0(%ebp),%eax
    54d6:	40                   	inc    %eax
    54d7:	bb ff ff ff ff       	mov    $0xffffffff,%ebx
    54dc:	39 d0                	cmp    %edx,%eax
    54de:	74 0b                	je     54eb <scheme_port_get_string+0x66>
    54e0:	c6 01 00             	movb   $0x0,(%ecx)
    54e3:	8d 04 36             	lea    (%esi,%esi,1),%eax
    54e6:	01 47 08             	add    %eax,0x8(%edi)
    54e9:	89 f3                	mov    %esi,%ebx
    54eb:	89 d8                	mov    %ebx,%eax
    54ed:	8b 5d f4             	mov    0xfffffff4(%ebp),%ebx
    54f0:	8b 75 f8             	mov    0xfffffff8(%ebp),%esi
    54f3:	8b 7d fc             	mov    0xfffffffc(%ebp),%edi
    54f6:	89 ec                	mov    %ebp,%esp
    54f8:	5d                   	pop    %ebp
    54f9:	c3                   	ret    
    54fa:	90                   	nop    
    54fb:	90                   	nop    

000054fc <scheme_init_number>:
    54fc:	55                   	push   %ebp
    54fd:	89 e5                	mov    %esp,%ebp
    54ff:	53                   	push   %ebx
    5500:	83 ec 14             	sub    $0x14,%esp
    5503:	8b 5d 08             	mov    0x8(%ebp),%ebx
    5506:	89 5c 24 10          	mov    %ebx,0x10(%esp)
    550a:	c7 44 24 0c 01 00 00 	movl   $0x1,0xc(%esp)
    5511:	00 
    5512:	c7 44 24 08 01 00 00 	movl   $0x1,0x8(%esp)
    5519:	00 
    551a:	c7 44 24 04 73 57 00 	movl   $0x5773,0x4(%esp)
    5521:	00 
    5522:	c7 04 24 9d 8c 00 00 	movl   $0x8c9d,(%esp)
    5529:	e8 40 11 00 00       	call   666e <scheme_register_primitive>
    552e:	89 5c 24 10          	mov    %ebx,0x10(%esp)
    5532:	c7 44 24 0c 01 00 00 	movl   $0x1,0xc(%esp)
    5539:	00 
    553a:	c7 44 24 08 01 00 00 	movl   $0x1,0x8(%esp)
    5541:	00 
    5542:	c7 44 24 04 99 57 00 	movl   $0x5799,0x4(%esp)
    5549:	00 
    554a:	c7 04 24 a5 8c 00 00 	movl   $0x8ca5,(%esp)
    5551:	e8 18 11 00 00       	call   666e <scheme_register_primitive>
    5556:	89 5c 24 10          	mov    %ebx,0x10(%esp)
    555a:	c7 44 24 0c 01 00 00 	movl   $0x1,0xc(%esp)
    5561:	00 
    5562:	c7 44 24 08 01 00 00 	movl   $0x1,0x8(%esp)
    5569:	00 
    556a:	c7 44 24 04 b9 57 00 	movl   $0x57b9,0x4(%esp)
    5571:	00 
    5572:	c7 04 24 ab 8c 00 00 	movl   $0x8cab,(%esp)
    5579:	e8 f0 10 00 00       	call   666e <scheme_register_primitive>
    557e:	89 5c 24 10          	mov    %ebx,0x10(%esp)
    5582:	c7 44 24 0c 01 00 00 	movl   $0x1,0xc(%esp)
    5589:	00 
    558a:	c7 44 24 08 01 00 00 	movl   $0x1,0x8(%esp)
    5591:	00 
    5592:	c7 44 24 04 d9 57 00 	movl   $0x57d9,0x4(%esp)
    5599:	00 
    559a:	c7 04 24 b5 8c 00 00 	movl   $0x8cb5,(%esp)
    55a1:	e8 c8 10 00 00       	call   666e <scheme_register_primitive>
    55a6:	89 5c 24 10          	mov    %ebx,0x10(%esp)
    55aa:	c7 44 24 0c 01 00 00 	movl   $0x1,0xc(%esp)
    55b1:	00 
    55b2:	c7 44 24 08 01 00 00 	movl   $0x1,0x8(%esp)
    55b9:	00 
    55ba:	c7 44 24 04 f9 57 00 	movl   $0x57f9,0x4(%esp)
    55c1:	00 
    55c2:	c7 04 24 c0 8c 00 00 	movl   $0x8cc0,(%esp)
    55c9:	e8 a0 10 00 00       	call   666e <scheme_register_primitive>
    55ce:	89 5c 24 10          	mov    %ebx,0x10(%esp)
    55d2:	c7 44 24 0c 01 00 00 	movl   $0x1,0xc(%esp)
    55d9:	00 
    55da:	c7 44 24 08 01 00 00 	movl   $0x1,0x8(%esp)
    55e1:	00 
    55e2:	c7 44 24 04 03 58 00 	movl   $0x5803,0x4(%esp)
    55e9:	00 
    55ea:	c7 04 24 be 8c 00 00 	movl   $0x8cbe,(%esp)
    55f1:	e8 78 10 00 00       	call   666e <scheme_register_primitive>
    55f6:	89 5c 24 10          	mov    %ebx,0x10(%esp)
    55fa:	c7 44 24 0c ff ff ff 	movl   $0xffffffff,0xc(%esp)
    5601:	ff 
    5602:	c7 44 24 08 00 00 00 	movl   $0x0,0x8(%esp)
    5609:	00 
    560a:	c7 44 24 04 0d 58 00 	movl   $0x580d,0x4(%esp)
    5611:	00 
    5612:	c7 04 24 c7 8c 00 00 	movl   $0x8cc7,(%esp)
    5619:	e8 50 10 00 00       	call   666e <scheme_register_primitive>
    561e:	89 5c 24 10          	mov    %ebx,0x10(%esp)
    5622:	c7 44 24 0c ff ff ff 	movl   $0xffffffff,0xc(%esp)
    5629:	ff 
    562a:	c7 44 24 08 00 00 00 	movl   $0x0,0x8(%esp)
    5631:	00 
    5632:	c7 44 24 04 a6 58 00 	movl   $0x58a6,0x4(%esp)
    5639:	00 
    563a:	c7 04 24 c9 8c 00 00 	movl   $0x8cc9,(%esp)
    5641:	e8 28 10 00 00       	call   666e <scheme_register_primitive>
    5646:	89 5c 24 10          	mov    %ebx,0x10(%esp)
    564a:	c7 44 24 0c ff ff ff 	movl   $0xffffffff,0xc(%esp)
    5651:	ff 
    5652:	c7 44 24 08 00 00 00 	movl   $0x0,0x8(%esp)
    5659:	00 
    565a:	c7 44 24 04 64 59 00 	movl   $0x5964,0x4(%esp)
    5661:	00 
    5662:	c7 04 24 ea 8d 00 00 	movl   $0x8dea,(%esp)
    5669:	e8 00 10 00 00       	call   666e <scheme_register_primitive>
    566e:	89 5c 24 10          	mov    %ebx,0x10(%esp)
    5672:	c7 44 24 0c ff ff ff 	movl   $0xffffffff,0xc(%esp)
    5679:	ff 
    567a:	c7 44 24 08 01 00 00 	movl   $0x1,0x8(%esp)
    5681:	00 
    5682:	c7 44 24 04 fe 59 00 	movl   $0x59fe,0x4(%esp)
    5689:	00 
    568a:	c7 04 24 cb 8c 00 00 	movl   $0x8ccb,(%esp)
    5691:	e8 d8 0f 00 00       	call   666e <scheme_register_primitive>
    5696:	83 c4 14             	add    $0x14,%esp
    5699:	5b                   	pop    %ebx
    569a:	5d                   	pop    %ebp
    569b:	c3                   	ret    

0000569c <scheme_make_integer_numb>:
    569c:	55                   	push   %ebp
    569d:	89 e5                	mov    %esp,%ebp
    569f:	83 ec 08             	sub    $0x8,%esp
    56a2:	c7 04 24 10 00 00 00 	movl   $0x10,(%esp)
    56a9:	e8 a7 26 00 00       	call   7d55 <kmalloc>
    56ae:	89 c2                	mov    %eax,%edx
    56b0:	b8 00 cd 12 00       	mov    $0x12cd00,%eax
    56b5:	39 c2                	cmp    %eax,%edx
    56b7:	74 0d                	je     56c6 <scheme_make_integer_numb+0x2a>
    56b9:	66 c7 02 0a 00       	movw   $0xa,(%edx)
    56be:	8b 45 08             	mov    0x8(%ebp),%eax
    56c1:	89 42 04             	mov    %eax,0x4(%edx)
    56c4:	89 d0                	mov    %edx,%eax
    56c6:	c9                   	leave  
    56c7:	c3                   	ret    

000056c8 <scheme_make_double_numb>:
    56c8:	55                   	push   %ebp
    56c9:	89 e5                	mov    %esp,%ebp
    56cb:	83 ec 18             	sub    $0x18,%esp
    56ce:	dd 45 08             	fldl   0x8(%ebp)
    56d1:	dd 5d f0             	fstpl  0xfffffff0(%ebp)
    56d4:	c7 04 24 10 00 00 00 	movl   $0x10,(%esp)
    56db:	e8 75 26 00 00       	call   7d55 <kmalloc>
    56e0:	89 c2                	mov    %eax,%edx
    56e2:	b8 00 cd 12 00       	mov    $0x12cd00,%eax
    56e7:	39 c2                	cmp    %eax,%edx
    56e9:	74 22                	je     570d <scheme_make_double_numb+0x45>
    56eb:	66 c7 02 0f 00       	movw   $0xf,(%edx)
    56f0:	d9 7d fe             	fnstcw 0xfffffffe(%ebp)
    56f3:	0f b7 45 fe          	movzwl 0xfffffffe(%ebp),%eax
    56f7:	66 0d 00 0c          	or     $0xc00,%ax
    56fb:	66 89 45 fc          	mov    %ax,0xfffffffc(%ebp)
    56ff:	dd 45 f0             	fldl   0xfffffff0(%ebp)
    5702:	d9 6d fc             	fldcw  0xfffffffc(%ebp)
    5705:	db 5a 04             	fistpl 0x4(%edx)
    5708:	d9 6d fe             	fldcw  0xfffffffe(%ebp)
    570b:	89 d0                	mov    %edx,%eax
    570d:	c9                   	leave  
    570e:	c3                   	ret    

0000570f <_gcd>:
    570f:	55                   	push   %ebp
    5710:	89 e5                	mov    %esp,%ebp
    5712:	8b 4d 08             	mov    0x8(%ebp),%ecx
    5715:	8b 55 0c             	mov    0xc(%ebp),%edx
    5718:	39 d1                	cmp    %edx,%ecx
    571a:	7e 06                	jle    5722 <_gcd+0x13>
    571c:	89 d0                	mov    %edx,%eax
    571e:	89 ca                	mov    %ecx,%edx
    5720:	89 c1                	mov    %eax,%ecx
    5722:	29 ca                	sub    %ecx,%edx
    5724:	75 f2                	jne    5718 <_gcd+0x9>
    5726:	89 c8                	mov    %ecx,%eax
    5728:	5d                   	pop    %ebp
    5729:	c3                   	ret    

0000572a <scheme_make_rational>:
    572a:	55                   	push   %ebp
    572b:	89 e5                	mov    %esp,%ebp
    572d:	57                   	push   %edi
    572e:	56                   	push   %esi
    572f:	53                   	push   %ebx
    5730:	83 ec 0c             	sub    $0xc,%esp
    5733:	8b 5d 08             	mov    0x8(%ebp),%ebx
    5736:	8b 7d 0c             	mov    0xc(%ebp),%edi
    5739:	c7 04 24 10 00 00 00 	movl   $0x10,(%esp)
    5740:	e8 10 26 00 00       	call   7d55 <kmalloc>
    5745:	89 c6                	mov    %eax,%esi
    5747:	89 d9                	mov    %ebx,%ecx
    5749:	89 fa                	mov    %edi,%edx
    574b:	39 d1                	cmp    %edx,%ecx
    574d:	7e 06                	jle    5755 <scheme_make_rational+0x2b>
    574f:	89 d0                	mov    %edx,%eax
    5751:	89 ca                	mov    %ecx,%edx
    5753:	89 c1                	mov    %eax,%ecx
    5755:	29 ca                	sub    %ecx,%edx
    5757:	75 f2                	jne    574b <scheme_make_rational+0x21>
    5759:	89 d8                	mov    %ebx,%eax
    575b:	99                   	cltd   
    575c:	f7 f9                	idiv   %ecx
    575e:	89 46 04             	mov    %eax,0x4(%esi)
    5761:	89 f8                	mov    %edi,%eax
    5763:	99                   	cltd   
    5764:	f7 f9                	idiv   %ecx
    5766:	89 46 08             	mov    %eax,0x8(%esi)
    5769:	89 f0                	mov    %esi,%eax
    576b:	83 c4 0c             	add    $0xc,%esp
    576e:	5b                   	pop    %ebx
    576f:	5e                   	pop    %esi
    5770:	5f                   	pop    %edi
    5771:	5d                   	pop    %ebp
    5772:	c3                   	ret    

00005773 <number_p>:
    5773:	55                   	push   %ebp
    5774:	89 e5                	mov    %esp,%ebp
    5776:	8b 45 0c             	mov    0xc(%ebp),%eax
    5779:	8b 00                	mov    (%eax),%eax
    577b:	a8 01                	test   $0x1,%al
    577d:	75 11                	jne    5790 <number_p+0x1d>
    577f:	66 83 38 09          	cmpw   $0x9,(%eax)
    5783:	7e 0b                	jle    5790 <number_p+0x1d>
    5785:	ba 54 cd 12 00       	mov    $0x12cd54,%edx
    578a:	66 83 38 0f          	cmpw   $0xf,(%eax)
    578e:	7e 05                	jle    5795 <number_p+0x22>
    5790:	ba 40 cd 12 00       	mov    $0x12cd40,%edx
    5795:	89 d0                	mov    %edx,%eax
    5797:	5d                   	pop    %ebp
    5798:	c3                   	ret    

00005799 <real_p>:
    5799:	55                   	push   %ebp
    579a:	89 e5                	mov    %esp,%ebp
    579c:	8b 45 0c             	mov    0xc(%ebp),%eax
    579f:	8b 00                	mov    (%eax),%eax
    57a1:	a8 01                	test   $0x1,%al
    57a3:	75 0b                	jne    57b0 <real_p+0x17>
    57a5:	ba 54 cd 12 00       	mov    $0x12cd54,%edx
    57aa:	66 83 38 0f          	cmpw   $0xf,(%eax)
    57ae:	74 05                	je     57b5 <real_p+0x1c>
    57b0:	ba 40 cd 12 00       	mov    $0x12cd40,%edx
    57b5:	89 d0                	mov    %edx,%eax
    57b7:	5d                   	pop    %ebp
    57b8:	c3                   	ret    

000057b9 <rational_p>:
    57b9:	55                   	push   %ebp
    57ba:	89 e5                	mov    %esp,%ebp
    57bc:	8b 45 0c             	mov    0xc(%ebp),%eax
    57bf:	8b 00                	mov    (%eax),%eax
    57c1:	a8 01                	test   $0x1,%al
    57c3:	75 0b                	jne    57d0 <rational_p+0x17>
    57c5:	ba 54 cd 12 00       	mov    $0x12cd54,%edx
    57ca:	66 83 38 0c          	cmpw   $0xc,(%eax)
    57ce:	74 05                	je     57d5 <rational_p+0x1c>
    57d0:	ba 40 cd 12 00       	mov    $0x12cd40,%edx
    57d5:	89 d0                	mov    %edx,%eax
    57d7:	5d                   	pop    %ebp
    57d8:	c3                   	ret    

000057d9 <integer_p>:
    57d9:	55                   	push   %ebp
    57da:	89 e5                	mov    %esp,%ebp
    57dc:	8b 45 0c             	mov    0xc(%ebp),%eax
    57df:	8b 00                	mov    (%eax),%eax
    57e1:	a8 01                	test   $0x1,%al
    57e3:	75 0b                	jne    57f0 <integer_p+0x17>
    57e5:	ba 54 cd 12 00       	mov    $0x12cd54,%edx
    57ea:	66 83 38 0a          	cmpw   $0xa,(%eax)
    57ee:	74 05                	je     57f5 <integer_p+0x1c>
    57f0:	ba 40 cd 12 00       	mov    $0x12cd40,%edx
    57f5:	89 d0                	mov    %edx,%eax
    57f7:	5d                   	pop    %ebp
    57f8:	c3                   	ret    

000057f9 <exact_p>:
    57f9:	55                   	push   %ebp
    57fa:	89 e5                	mov    %esp,%ebp
    57fc:	b8 54 cd 12 00       	mov    $0x12cd54,%eax
    5801:	5d                   	pop    %ebp
    5802:	c3                   	ret    

00005803 <inexact_p>:
    5803:	55                   	push   %ebp
    5804:	89 e5                	mov    %esp,%ebp
    5806:	b8 40 cd 12 00       	mov    $0x12cd40,%eax
    580b:	5d                   	pop    %ebp
    580c:	c3                   	ret    

0000580d <addition>:
    580d:	55                   	push   %ebp
    580e:	89 e5                	mov    %esp,%ebp
    5810:	57                   	push   %edi
    5811:	56                   	push   %esi
    5812:	53                   	push   %ebx
    5813:	83 ec 0c             	sub    $0xc,%esp
    5816:	8b 5d 08             	mov    0x8(%ebp),%ebx
    5819:	8b 75 0c             	mov    0xc(%ebp),%esi
    581c:	c7 04 24 10 00 00 00 	movl   $0x10,(%esp)
    5823:	e8 2d 25 00 00       	call   7d55 <kmalloc>
    5828:	89 c1                	mov    %eax,%ecx
    582a:	66 c7 00 0a 00       	movw   $0xa,(%eax)
    582f:	c7 40 04 00 00 00 00 	movl   $0x0,0x4(%eax)
    5836:	89 d8                	mov    %ebx,%eax
    5838:	4b                   	dec    %ebx
    5839:	85 c0                	test   %eax,%eax
    583b:	7e 5f                	jle    589c <addition+0x8f>
    583d:	89 cf                	mov    %ecx,%edi
    583f:	83 e7 01             	and    $0x1,%edi
    5842:	ba 08 00 00 00       	mov    $0x8,%edx
    5847:	85 ff                	test   %edi,%edi
    5849:	75 03                	jne    584e <addition+0x41>
    584b:	0f bf 11             	movswl (%ecx),%edx
    584e:	8b 06                	mov    (%esi),%eax
    5850:	a8 01                	test   $0x1,%al
    5852:	75 09                	jne    585d <addition+0x50>
    5854:	0f bf 00             	movswl (%eax),%eax
    5857:	39 c2                	cmp    %eax,%edx
    5859:	74 07                	je     5862 <addition+0x55>
    585b:	eb 35                	jmp    5892 <addition+0x85>
    585d:	83 fa 08             	cmp    $0x8,%edx
    5860:	75 30                	jne    5892 <addition+0x85>
    5862:	b8 08 00 00 00       	mov    $0x8,%eax
    5867:	85 ff                	test   %edi,%edi
    5869:	75 03                	jne    586e <addition+0x61>
    586b:	0f bf 01             	movswl (%ecx),%eax
    586e:	83 f8 0a             	cmp    $0xa,%eax
    5871:	74 07                	je     587a <addition+0x6d>
    5873:	83 f8 0f             	cmp    $0xf,%eax
    5876:	74 0f                	je     5887 <addition+0x7a>
    5878:	eb 18                	jmp    5892 <addition+0x85>
    587a:	8b 16                	mov    (%esi),%edx
    587c:	8b 41 04             	mov    0x4(%ecx),%eax
    587f:	03 42 04             	add    0x4(%edx),%eax
    5882:	89 41 04             	mov    %eax,0x4(%ecx)
    5885:	eb 0b                	jmp    5892 <addition+0x85>
    5887:	8b 06                	mov    (%esi),%eax
    5889:	dd 40 04             	fldl   0x4(%eax)
    588c:	dc 41 04             	faddl  0x4(%ecx)
    588f:	dd 59 04             	fstpl  0x4(%ecx)
    5892:	83 c6 04             	add    $0x4,%esi
    5895:	89 d8                	mov    %ebx,%eax
    5897:	4b                   	dec    %ebx
    5898:	85 c0                	test   %eax,%eax
    589a:	7f a6                	jg     5842 <addition+0x35>
    589c:	89 c8                	mov    %ecx,%eax
    589e:	83 c4 0c             	add    $0xc,%esp
    58a1:	5b                   	pop    %ebx
    58a2:	5e                   	pop    %esi
    58a3:	5f                   	pop    %edi
    58a4:	5d                   	pop    %ebp
    58a5:	c3                   	ret    

000058a6 <subtraction>:
    58a6:	55                   	push   %ebp
    58a7:	89 e5                	mov    %esp,%ebp
    58a9:	57                   	push   %edi
    58aa:	56                   	push   %esi
    58ab:	53                   	push   %ebx
    58ac:	83 ec 0c             	sub    $0xc,%esp
    58af:	8b 5d 08             	mov    0x8(%ebp),%ebx
    58b2:	8b 7d 0c             	mov    0xc(%ebp),%edi
    58b5:	89 fe                	mov    %edi,%esi
    58b7:	c7 04 24 10 00 00 00 	movl   $0x10,(%esp)
    58be:	e8 92 24 00 00       	call   7d55 <kmalloc>
    58c3:	89 c1                	mov    %eax,%ecx
    58c5:	83 fb 01             	cmp    $0x1,%ebx
    58c8:	75 0e                	jne    58d8 <subtraction+0x32>
    58ca:	66 c7 00 0a 00       	movw   $0xa,(%eax)
    58cf:	c7 40 04 00 00 00 00 	movl   $0x0,0x4(%eax)
    58d6:	eb 1c                	jmp    58f4 <subtraction+0x4e>
    58d8:	83 c6 04             	add    $0x4,%esi
    58db:	4b                   	dec    %ebx
    58dc:	8b 17                	mov    (%edi),%edx
    58de:	8b 02                	mov    (%edx),%eax
    58e0:	89 01                	mov    %eax,(%ecx)
    58e2:	8b 42 04             	mov    0x4(%edx),%eax
    58e5:	89 41 04             	mov    %eax,0x4(%ecx)
    58e8:	8b 42 08             	mov    0x8(%edx),%eax
    58eb:	89 41 08             	mov    %eax,0x8(%ecx)
    58ee:	8b 42 0c             	mov    0xc(%edx),%eax
    58f1:	89 41 0c             	mov    %eax,0xc(%ecx)
    58f4:	89 d8                	mov    %ebx,%eax
    58f6:	4b                   	dec    %ebx
    58f7:	85 c0                	test   %eax,%eax
    58f9:	7e 5f                	jle    595a <subtraction+0xb4>
    58fb:	89 cf                	mov    %ecx,%edi
    58fd:	83 e7 01             	and    $0x1,%edi
    5900:	ba 08 00 00 00       	mov    $0x8,%edx
    5905:	85 ff                	test   %edi,%edi
    5907:	75 03                	jne    590c <subtraction+0x66>
    5909:	0f bf 11             	movswl (%ecx),%edx
    590c:	8b 06                	mov    (%esi),%eax
    590e:	a8 01                	test   $0x1,%al
    5910:	75 09                	jne    591b <subtraction+0x75>
    5912:	0f bf 00             	movswl (%eax),%eax
    5915:	39 c2                	cmp    %eax,%edx
    5917:	74 07                	je     5920 <subtraction+0x7a>
    5919:	eb 35                	jmp    5950 <subtraction+0xaa>
    591b:	83 fa 08             	cmp    $0x8,%edx
    591e:	75 30                	jne    5950 <subtraction+0xaa>
    5920:	b8 08 00 00 00       	mov    $0x8,%eax
    5925:	85 ff                	test   %edi,%edi
    5927:	75 03                	jne    592c <subtraction+0x86>
    5929:	0f bf 01             	movswl (%ecx),%eax
    592c:	83 f8 0a             	cmp    $0xa,%eax
    592f:	74 07                	je     5938 <subtraction+0x92>
    5931:	83 f8 0f             	cmp    $0xf,%eax
    5934:	74 0f                	je     5945 <subtraction+0x9f>
    5936:	eb 18                	jmp    5950 <subtraction+0xaa>
    5938:	8b 16                	mov    (%esi),%edx
    593a:	8b 41 04             	mov    0x4(%ecx),%eax
    593d:	2b 42 04             	sub    0x4(%edx),%eax
    5940:	89 41 04             	mov    %eax,0x4(%ecx)
    5943:	eb 0b                	jmp    5950 <subtraction+0xaa>
    5945:	8b 06                	mov    (%esi),%eax
    5947:	dd 40 04             	fldl   0x4(%eax)
    594a:	dc 61 04             	fsubl  0x4(%ecx)
    594d:	dd 59 04             	fstpl  0x4(%ecx)
    5950:	83 c6 04             	add    $0x4,%esi
    5953:	89 d8                	mov    %ebx,%eax
    5955:	4b                   	dec    %ebx
    5956:	85 c0                	test   %eax,%eax
    5958:	7f a6                	jg     5900 <subtraction+0x5a>
    595a:	89 c8                	mov    %ecx,%eax
    595c:	83 c4 0c             	add    $0xc,%esp
    595f:	5b                   	pop    %ebx
    5960:	5e                   	pop    %esi
    5961:	5f                   	pop    %edi
    5962:	5d                   	pop    %ebp
    5963:	c3                   	ret    

00005964 <multiplication>:
    5964:	55                   	push   %ebp
    5965:	89 e5                	mov    %esp,%ebp
    5967:	57                   	push   %edi
    5968:	56                   	push   %esi
    5969:	53                   	push   %ebx
    596a:	83 ec 0c             	sub    $0xc,%esp
    596d:	8b 5d 08             	mov    0x8(%ebp),%ebx
    5970:	8b 75 0c             	mov    0xc(%ebp),%esi
    5973:	c7 04 24 10 00 00 00 	movl   $0x10,(%esp)
    597a:	e8 d6 23 00 00       	call   7d55 <kmalloc>
    597f:	89 c1                	mov    %eax,%ecx
    5981:	66 c7 00 0a 00       	movw   $0xa,(%eax)
    5986:	c7 40 04 01 00 00 00 	movl   $0x1,0x4(%eax)
    598d:	89 d8                	mov    %ebx,%eax
    598f:	4b                   	dec    %ebx
    5990:	85 c0                	test   %eax,%eax
    5992:	7e 60                	jle    59f4 <multiplication+0x90>
    5994:	89 cf                	mov    %ecx,%edi
    5996:	83 e7 01             	and    $0x1,%edi
    5999:	ba 08 00 00 00       	mov    $0x8,%edx
    599e:	85 ff                	test   %edi,%edi
    59a0:	75 03                	jne    59a5 <multiplication+0x41>
    59a2:	0f bf 11             	movswl (%ecx),%edx
    59a5:	8b 06                	mov    (%esi),%eax
    59a7:	a8 01                	test   $0x1,%al
    59a9:	75 09                	jne    59b4 <multiplication+0x50>
    59ab:	0f bf 00             	movswl (%eax),%eax
    59ae:	39 c2                	cmp    %eax,%edx
    59b0:	74 07                	je     59b9 <multiplication+0x55>
    59b2:	eb 36                	jmp    59ea <multiplication+0x86>
    59b4:	83 fa 08             	cmp    $0x8,%edx
    59b7:	75 31                	jne    59ea <multiplication+0x86>
    59b9:	b8 08 00 00 00       	mov    $0x8,%eax
    59be:	85 ff                	test   %edi,%edi
    59c0:	75 03                	jne    59c5 <multiplication+0x61>
    59c2:	0f bf 01             	movswl (%ecx),%eax
    59c5:	83 f8 0a             	cmp    $0xa,%eax
    59c8:	74 07                	je     59d1 <multiplication+0x6d>
    59ca:	83 f8 0f             	cmp    $0xf,%eax
    59cd:	74 10                	je     59df <multiplication+0x7b>
    59cf:	eb 19                	jmp    59ea <multiplication+0x86>
    59d1:	8b 16                	mov    (%esi),%edx
    59d3:	8b 41 04             	mov    0x4(%ecx),%eax
    59d6:	0f af 42 04          	imul   0x4(%edx),%eax
    59da:	89 41 04             	mov    %eax,0x4(%ecx)
    59dd:	eb 0b                	jmp    59ea <multiplication+0x86>
    59df:	8b 06                	mov    (%esi),%eax
    59e1:	dd 40 04             	fldl   0x4(%eax)
    59e4:	dc 49 04             	fmull  0x4(%ecx)
    59e7:	dd 59 04             	fstpl  0x4(%ecx)
    59ea:	83 c6 04             	add    $0x4,%esi
    59ed:	89 d8                	mov    %ebx,%eax
    59ef:	4b                   	dec    %ebx
    59f0:	85 c0                	test   %eax,%eax
    59f2:	7f a5                	jg     5999 <multiplication+0x35>
    59f4:	89 c8                	mov    %ecx,%eax
    59f6:	83 c4 0c             	add    $0xc,%esp
    59f9:	5b                   	pop    %ebx
    59fa:	5e                   	pop    %esi
    59fb:	5f                   	pop    %edi
    59fc:	5d                   	pop    %ebp
    59fd:	c3                   	ret    

000059fe <divison>:
    59fe:	55                   	push   %ebp
    59ff:	89 e5                	mov    %esp,%ebp
    5a01:	57                   	push   %edi
    5a02:	56                   	push   %esi
    5a03:	53                   	push   %ebx
    5a04:	83 ec 1c             	sub    $0x1c,%esp
    5a07:	8b 5d 08             	mov    0x8(%ebp),%ebx
    5a0a:	8b 7d 0c             	mov    0xc(%ebp),%edi
    5a0d:	89 fe                	mov    %edi,%esi
    5a0f:	c7 04 24 10 00 00 00 	movl   $0x10,(%esp)
    5a16:	e8 3a 23 00 00       	call   7d55 <kmalloc>
    5a1b:	89 c1                	mov    %eax,%ecx
    5a1d:	83 fb 01             	cmp    $0x1,%ebx
    5a20:	75 0e                	jne    5a30 <divison+0x32>
    5a22:	66 c7 00 0a 00       	movw   $0xa,(%eax)
    5a27:	c7 40 04 01 00 00 00 	movl   $0x1,0x4(%eax)
    5a2e:	eb 1c                	jmp    5a4c <divison+0x4e>
    5a30:	83 c6 04             	add    $0x4,%esi
    5a33:	4b                   	dec    %ebx
    5a34:	8b 17                	mov    (%edi),%edx
    5a36:	8b 02                	mov    (%edx),%eax
    5a38:	89 01                	mov    %eax,(%ecx)
    5a3a:	8b 42 04             	mov    0x4(%edx),%eax
    5a3d:	89 41 04             	mov    %eax,0x4(%ecx)
    5a40:	8b 42 08             	mov    0x8(%edx),%eax
    5a43:	89 41 08             	mov    %eax,0x8(%ecx)
    5a46:	8b 42 0c             	mov    0xc(%edx),%eax
    5a49:	89 41 0c             	mov    %eax,0xc(%ecx)
    5a4c:	89 d8                	mov    %ebx,%eax
    5a4e:	4b                   	dec    %ebx
    5a4f:	85 c0                	test   %eax,%eax
    5a51:	7e 6c                	jle    5abf <divison+0xc1>
    5a53:	89 c8                	mov    %ecx,%eax
    5a55:	83 e0 01             	and    $0x1,%eax
    5a58:	89 45 e8             	mov    %eax,0xffffffe8(%ebp)
    5a5b:	ba 08 00 00 00       	mov    $0x8,%edx
    5a60:	83 7d e8 00          	cmpl   $0x0,0xffffffe8(%ebp)
    5a64:	75 03                	jne    5a69 <divison+0x6b>
    5a66:	0f bf 11             	movswl (%ecx),%edx
    5a69:	8b 06                	mov    (%esi),%eax
    5a6b:	a8 01                	test   $0x1,%al
    5a6d:	75 09                	jne    5a78 <divison+0x7a>
    5a6f:	0f bf 00             	movswl (%eax),%eax
    5a72:	39 c2                	cmp    %eax,%edx
    5a74:	74 07                	je     5a7d <divison+0x7f>
    5a76:	eb 3d                	jmp    5ab5 <divison+0xb7>
    5a78:	83 fa 08             	cmp    $0x8,%edx
    5a7b:	75 38                	jne    5ab5 <divison+0xb7>
    5a7d:	b8 08 00 00 00       	mov    $0x8,%eax
    5a82:	83 7d e8 00          	cmpl   $0x0,0xffffffe8(%ebp)
    5a86:	75 03                	jne    5a8b <divison+0x8d>
    5a88:	0f bf 01             	movswl (%ecx),%eax
    5a8b:	83 f8 0a             	cmp    $0xa,%eax
    5a8e:	74 07                	je     5a97 <divison+0x99>
    5a90:	83 f8 0f             	cmp    $0xf,%eax
    5a93:	74 15                	je     5aaa <divison+0xac>
    5a95:	eb 1e                	jmp    5ab5 <divison+0xb7>
    5a97:	8b 51 04             	mov    0x4(%ecx),%edx
    5a9a:	89 55 ec             	mov    %edx,0xffffffec(%ebp)
    5a9d:	89 d0                	mov    %edx,%eax
    5a9f:	8b 3e                	mov    (%esi),%edi
    5aa1:	99                   	cltd   
    5aa2:	f7 7f 04             	idivl  0x4(%edi)
    5aa5:	89 41 04             	mov    %eax,0x4(%ecx)
    5aa8:	eb 0b                	jmp    5ab5 <divison+0xb7>
    5aaa:	8b 06                	mov    (%esi),%eax
    5aac:	dd 40 04             	fldl   0x4(%eax)
    5aaf:	dc 71 04             	fdivl  0x4(%ecx)
    5ab2:	dd 59 04             	fstpl  0x4(%ecx)
    5ab5:	83 c6 04             	add    $0x4,%esi
    5ab8:	89 d8                	mov    %ebx,%eax
    5aba:	4b                   	dec    %ebx
    5abb:	85 c0                	test   %eax,%eax
    5abd:	7f 9c                	jg     5a5b <divison+0x5d>
    5abf:	89 c8                	mov    %ecx,%eax
    5ac1:	83 c4 1c             	add    $0x1c,%esp
    5ac4:	5b                   	pop    %ebx
    5ac5:	5e                   	pop    %esi
    5ac6:	5f                   	pop    %edi
    5ac7:	5d                   	pop    %ebp
    5ac8:	c3                   	ret    
    5ac9:	90                   	nop    
    5aca:	90                   	nop    
    5acb:	90                   	nop    

00005acc <eval_stack_empty_p>:
    5acc:	55                   	push   %ebp
    5acd:	89 e5                	mov    %esp,%ebp
    5acf:	a1 80 b9 11 00       	mov    0x11b980,%eax
    5ad4:	3b 05 84 b9 11 00    	cmp    0x11b984,%eax
    5ada:	0f 94 c0             	sete   %al
    5add:	0f b6 c0             	movzbl %al,%eax
    5ae0:	5d                   	pop    %ebp
    5ae1:	c3                   	ret    

00005ae2 <eval_stack_full_p>:
    5ae2:	55                   	push   %ebp
    5ae3:	89 e5                	mov    %esp,%ebp
    5ae5:	81 3d 84 b9 11 00 80 	cmpl   $0x1b980,0x11b984
    5aec:	b9 01 00 
    5aef:	0f 94 c0             	sete   %al
    5af2:	0f b6 c0             	movzbl %al,%eax
    5af5:	5d                   	pop    %ebp
    5af6:	c3                   	ret    

00005af7 <eval_stack_pop_env>:
    5af7:	55                   	push   %ebp
    5af8:	89 e5                	mov    %esp,%ebp
    5afa:	ba 00 00 00 00       	mov    $0x0,%edx
    5aff:	a1 80 b9 11 00       	mov    0x11b980,%eax
    5b04:	3b 05 84 b9 11 00    	cmp    0x11b984,%eax
    5b0a:	74 0f                	je     5b1b <eval_stack_pop_env+0x24>
    5b0c:	a1 84 b9 11 00       	mov    0x11b984,%eax
    5b11:	8b 10                	mov    (%eax),%edx
    5b13:	83 c0 04             	add    $0x4,%eax
    5b16:	a3 84 b9 11 00       	mov    %eax,0x11b984
    5b1b:	89 d0                	mov    %edx,%eax
    5b1d:	5d                   	pop    %ebp
    5b1e:	c3                   	ret    

00005b1f <eval_stack_push_env>:
    5b1f:	55                   	push   %ebp
    5b20:	89 e5                	mov    %esp,%ebp
    5b22:	b8 ff ff ff ff       	mov    $0xffffffff,%eax
    5b27:	81 3d 84 b9 11 00 80 	cmpl   $0x1b980,0x11b984
    5b2e:	b9 01 00 
    5b31:	74 19                	je     5b4c <eval_stack_push_env+0x2d>
    5b33:	8b 15 84 b9 11 00    	mov    0x11b984,%edx
    5b39:	8d 42 fc             	lea    0xfffffffc(%edx),%eax
    5b3c:	a3 84 b9 11 00       	mov    %eax,0x11b984
    5b41:	8b 45 08             	mov    0x8(%ebp),%eax
    5b44:	89 42 fc             	mov    %eax,0xfffffffc(%edx)
    5b47:	b8 00 00 00 00       	mov    $0x0,%eax
    5b4c:	5d                   	pop    %ebp
    5b4d:	c3                   	ret    

00005b4e <scheme_init_gc>:
    5b4e:	55                   	push   %ebp
    5b4f:	89 e5                	mov    %esp,%ebp
    5b51:	83 ec 08             	sub    $0x8,%esp
    5b54:	c7 05 60 b9 01 00 00 	movl   $0x0,0x1b960
    5b5b:	00 00 00 
    5b5e:	c7 05 64 b9 01 00 00 	movl   $0x0,0x1b964
    5b65:	00 00 00 
    5b68:	c7 05 68 b9 01 00 00 	movl   $0x0,0x1b968
    5b6f:	00 00 00 
    5b72:	c7 05 6c b9 01 00 00 	movl   $0x0,0x1b96c
    5b79:	00 00 00 
    5b7c:	c7 05 80 b9 11 00 80 	movl   $0x11b980,0x11b980
    5b83:	b9 11 00 
    5b86:	c7 05 84 b9 11 00 80 	movl   $0x11b980,0x11b984
    5b8d:	b9 11 00 
    5b90:	e8 3a 00 00 00       	call   5bcf <_new_generation>
    5b95:	c9                   	leave  
    5b96:	c3                   	ret    

00005b97 <gc_alloc_obj>:
    5b97:	55                   	push   %ebp
    5b98:	89 e5                	mov    %esp,%ebp
    5b9a:	83 ec 08             	sub    $0x8,%esp
    5b9d:	8b 15 60 b9 01 00    	mov    0x1b960,%edx
    5ba3:	8b 42 14             	mov    0x14(%edx),%eax
    5ba6:	2d 00 10 00 00       	sub    $0x1000,%eax
    5bab:	39 d0                	cmp    %edx,%eax
    5bad:	75 05                	jne    5bb4 <gc_alloc_obj+0x1d>
    5baf:	e8 1b 00 00 00       	call   5bcf <_new_generation>
    5bb4:	8b 15 60 b9 01 00    	mov    0x1b960,%edx
    5bba:	8b 42 14             	mov    0x14(%edx),%eax
    5bbd:	8d 48 10             	lea    0x10(%eax),%ecx
    5bc0:	89 4a 14             	mov    %ecx,0x14(%edx)
    5bc3:	c9                   	leave  
    5bc4:	c3                   	ret    

00005bc5 <gc_alloc_nobj>:
    5bc5:	55                   	push   %ebp
    5bc6:	89 e5                	mov    %esp,%ebp
    5bc8:	5d                   	pop    %ebp
    5bc9:	c3                   	ret    

00005bca <gc_collect_garbage>:
    5bca:	55                   	push   %ebp
    5bcb:	89 e5                	mov    %esp,%ebp
    5bcd:	5d                   	pop    %ebp
    5bce:	c3                   	ret    

00005bcf <_new_generation>:
    5bcf:	55                   	push   %ebp
    5bd0:	89 e5                	mov    %esp,%ebp
    5bd2:	56                   	push   %esi
    5bd3:	53                   	push   %ebx
    5bd4:	83 ec 10             	sub    $0x10,%esp
    5bd7:	c7 04 24 04 04 00 00 	movl   $0x404,(%esp)
    5bde:	e8 72 21 00 00       	call   7d55 <kmalloc>
    5be3:	89 c3                	mov    %eax,%ebx
    5be5:	b8 00 00 00 00       	mov    $0x0,%eax
    5bea:	85 db                	test   %ebx,%ebx
    5bec:	0f 84 ba 00 00 00    	je     5cac <_new_generation+0xdd>
    5bf2:	c7 03 00 00 00 00    	movl   $0x0,(%ebx)
    5bf8:	8b 0d 6c b9 01 00    	mov    0x1b96c,%ecx
    5bfe:	85 c9                	test   %ecx,%ecx
    5c00:	75 10                	jne    5c12 <_new_generation+0x43>
    5c02:	c7 04 24 03 00 00 00 	movl   $0x3,(%esp)
    5c09:	e8 0e 29 00 00       	call   851c <expand_region>
    5c0e:	89 c1                	mov    %eax,%ecx
    5c10:	eb 1e                	jmp    5c30 <_new_generation+0x61>
    5c12:	39 49 04             	cmp    %ecx,0x4(%ecx)
    5c15:	75 0c                	jne    5c23 <_new_generation+0x54>
    5c17:	c7 05 6c b9 01 00 00 	movl   $0x0,0x1b96c
    5c1e:	00 00 00 
    5c21:	eb 0d                	jmp    5c30 <_new_generation+0x61>
    5c23:	8b 01                	mov    (%ecx),%eax
    5c25:	8b 51 04             	mov    0x4(%ecx),%edx
    5c28:	89 50 04             	mov    %edx,0x4(%eax)
    5c2b:	8b 51 04             	mov    0x4(%ecx),%edx
    5c2e:	89 02                	mov    %eax,(%edx)
    5c30:	85 c9                	test   %ecx,%ecx
    5c32:	75 0f                	jne    5c43 <_new_generation+0x74>
    5c34:	89 1c 24             	mov    %ebx,(%esp)
    5c37:	e8 c7 21 00 00       	call   7e03 <kfree>
    5c3c:	b8 00 00 00 00       	mov    $0x0,%eax
    5c41:	eb 69                	jmp    5cac <_new_generation+0xdd>
    5c43:	83 3d 60 b9 01 00 00 	cmpl   $0x0,0x1b960
    5c4a:	75 18                	jne    5c64 <_new_generation+0x95>
    5c4c:	be 00 00 00 00       	mov    $0x0,%esi
    5c51:	89 0d 64 b9 01 00    	mov    %ecx,0x1b964
    5c57:	89 0d 68 b9 01 00    	mov    %ecx,0x1b968
    5c5d:	89 49 04             	mov    %ecx,0x4(%ecx)
    5c60:	89 09                	mov    %ecx,(%ecx)
    5c62:	eb 27                	jmp    5c8b <_new_generation+0xbc>
    5c64:	8b 15 60 b9 01 00    	mov    0x1b960,%edx
    5c6a:	0f b7 42 08          	movzwl 0x8(%edx),%eax
    5c6e:	40                   	inc    %eax
    5c6f:	0f bf f0             	movswl %ax,%esi
    5c72:	89 11                	mov    %edx,(%ecx)
    5c74:	a1 60 b9 01 00       	mov    0x1b960,%eax
    5c79:	89 48 04             	mov    %ecx,0x4(%eax)
    5c7c:	a1 68 b9 01 00       	mov    0x1b968,%eax
    5c81:	89 08                	mov    %ecx,(%eax)
    5c83:	a1 68 b9 01 00       	mov    0x1b968,%eax
    5c88:	89 41 04             	mov    %eax,0x4(%ecx)
    5c8b:	66 89 71 08          	mov    %si,0x8(%ecx)
    5c8f:	66 c7 41 0a 00 00    	movw   $0x0,0xa(%ecx)
    5c95:	66 c7 41 0c 00 10    	movw   $0x1000,0xc(%ecx)
    5c9b:	8d 41 20             	lea    0x20(%ecx),%eax
    5c9e:	89 41 14             	mov    %eax,0x14(%ecx)
    5ca1:	89 59 10             	mov    %ebx,0x10(%ecx)
    5ca4:	89 0d 60 b9 01 00    	mov    %ecx,0x1b960
    5caa:	89 c8                	mov    %ecx,%eax
    5cac:	83 c4 10             	add    $0x10,%esp
    5caf:	5b                   	pop    %ebx
    5cb0:	5e                   	pop    %esi
    5cb1:	5d                   	pop    %ebp
    5cb2:	c3                   	ret    
    5cb3:	90                   	nop    

00005cb4 <scheme_init_symbol>:
    5cb4:	55                   	push   %ebp
    5cb5:	89 e5                	mov    %esp,%ebp
    5cb7:	53                   	push   %ebx
    5cb8:	83 ec 14             	sub    $0x14,%esp
    5cbb:	8b 5d 08             	mov    0x8(%ebp),%ebx
    5cbe:	b8 00 00 00 00       	mov    $0x0,%eax
    5cc3:	ba e0 bc 12 00       	mov    $0x12bce0,%edx
    5cc8:	c7 04 82 00 00 00 00 	movl   $0x0,(%edx,%eax,4)
    5ccf:	40                   	inc    %eax
    5cd0:	3d 06 04 00 00       	cmp    $0x406,%eax
    5cd5:	7e f1                	jle    5cc8 <scheme_init_symbol+0x14>
    5cd7:	89 5c 24 10          	mov    %ebx,0x10(%esp)
    5cdb:	c7 44 24 0c 01 00 00 	movl   $0x1,0xc(%esp)
    5ce2:	00 
    5ce3:	c7 44 24 08 01 00 00 	movl   $0x1,0x8(%esp)
    5cea:	00 
    5ceb:	c7 44 24 04 37 5e 00 	movl   $0x5e37,0x4(%esp)
    5cf2:	00 
    5cf3:	c7 04 24 cd 8c 00 00 	movl   $0x8ccd,(%esp)
    5cfa:	e8 6f 09 00 00       	call   666e <scheme_register_primitive>
    5cff:	89 5c 24 10          	mov    %ebx,0x10(%esp)
    5d03:	c7 44 24 0c 02 00 00 	movl   $0x2,0xc(%esp)
    5d0a:	00 
    5d0b:	c7 44 24 08 02 00 00 	movl   $0x2,0x8(%esp)
    5d12:	00 
    5d13:	c7 44 24 04 57 5e 00 	movl   $0x5e57,0x4(%esp)
    5d1a:	00 
    5d1b:	c7 04 24 d5 8c 00 00 	movl   $0x8cd5,(%esp)
    5d22:	e8 47 09 00 00       	call   666e <scheme_register_primitive>
    5d27:	89 5c 24 10          	mov    %ebx,0x10(%esp)
    5d2b:	c7 44 24 0c 01 00 00 	movl   $0x1,0xc(%esp)
    5d32:	00 
    5d33:	c7 44 24 08 01 00 00 	movl   $0x1,0x8(%esp)
    5d3a:	00 
    5d3b:	c7 44 24 04 72 5e 00 	movl   $0x5e72,0x4(%esp)
    5d42:	00 
    5d43:	c7 04 24 d9 8c 00 00 	movl   $0x8cd9,(%esp)
    5d4a:	e8 1f 09 00 00       	call   666e <scheme_register_primitive>
    5d4f:	89 5c 24 10          	mov    %ebx,0x10(%esp)
    5d53:	c7 44 24 0c 01 00 00 	movl   $0x1,0xc(%esp)
    5d5a:	00 
    5d5b:	c7 44 24 08 01 00 00 	movl   $0x1,0x8(%esp)
    5d62:	00 
    5d63:	c7 44 24 04 8a 5e 00 	movl   $0x5e8a,0x4(%esp)
    5d6a:	00 
    5d6b:	c7 04 24 e8 8c 00 00 	movl   $0x8ce8,(%esp)
    5d72:	e8 f7 08 00 00       	call   666e <scheme_register_primitive>
    5d77:	83 c4 14             	add    $0x14,%esp
    5d7a:	5b                   	pop    %ebx
    5d7b:	5d                   	pop    %ebp
    5d7c:	c3                   	ret    

00005d7d <scheme_make_symbol>:
    5d7d:	55                   	push   %ebp
    5d7e:	89 e5                	mov    %esp,%ebp
    5d80:	57                   	push   %edi
    5d81:	56                   	push   %esi
    5d82:	53                   	push   %ebx
    5d83:	83 ec 0c             	sub    $0xc,%esp
    5d86:	8b 5d 08             	mov    0x8(%ebp),%ebx
    5d89:	89 1c 24             	mov    %ebx,(%esp)
    5d8c:	e8 02 02 00 00       	call   5f93 <_hash_symbol>
    5d91:	89 45 f0             	mov    %eax,0xfffffff0(%ebp)
    5d94:	8b 34 85 e0 bc 12 00 	mov    0x12bce0(,%eax,4),%esi
    5d9b:	85 f6                	test   %esi,%esi
    5d9d:	74 1e                	je     5dbd <scheme_make_symbol+0x40>
    5d9f:	89 5c 24 04          	mov    %ebx,0x4(%esp)
    5da3:	8b 46 04             	mov    0x4(%esi),%eax
    5da6:	89 04 24             	mov    %eax,(%esp)
    5da9:	e8 9b 01 00 00       	call   5f49 <_symbol_eq_p>
    5dae:	85 c0                	test   %eax,%eax
    5db0:	74 05                	je     5db7 <scheme_make_symbol+0x3a>
    5db2:	8b 46 08             	mov    0x8(%esi),%eax
    5db5:	eb 78                	jmp    5e2f <scheme_make_symbol+0xb2>
    5db7:	8b 36                	mov    (%esi),%esi
    5db9:	85 f6                	test   %esi,%esi
    5dbb:	75 e2                	jne    5d9f <scheme_make_symbol+0x22>
    5dbd:	b9 00 00 00 00       	mov    $0x0,%ecx
    5dc2:	8d 53 01             	lea    0x1(%ebx),%edx
    5dc5:	80 3b 00             	cmpb   $0x0,(%ebx)
    5dc8:	74 09                	je     5dd3 <scheme_make_symbol+0x56>
    5dca:	41                   	inc    %ecx
    5dcb:	0f b6 02             	movzbl (%edx),%eax
    5dce:	42                   	inc    %edx
    5dcf:	84 c0                	test   %al,%al
    5dd1:	75 f7                	jne    5dca <scheme_make_symbol+0x4d>
    5dd3:	89 0c 24             	mov    %ecx,(%esp)
    5dd6:	e8 7a 1f 00 00       	call   7d55 <kmalloc>
    5ddb:	89 c7                	mov    %eax,%edi
    5ddd:	89 d9                	mov    %ebx,%ecx
    5ddf:	89 c2                	mov    %eax,%edx
    5de1:	0f b6 01             	movzbl (%ecx),%eax
    5de4:	41                   	inc    %ecx
    5de5:	88 02                	mov    %al,(%edx)
    5de7:	42                   	inc    %edx
    5de8:	84 c0                	test   %al,%al
    5dea:	75 f5                	jne    5de1 <scheme_make_symbol+0x64>
    5dec:	c7 04 24 10 00 00 00 	movl   $0x10,(%esp)
    5df3:	e8 5d 1f 00 00       	call   7d55 <kmalloc>
    5df8:	89 c3                	mov    %eax,%ebx
    5dfa:	66 c7 00 12 00       	movw   $0x12,(%eax)
    5dff:	89 78 04             	mov    %edi,0x4(%eax)
    5e02:	c7 40 08 00 00 00 00 	movl   $0x0,0x8(%eax)
    5e09:	c7 04 24 0c 00 00 00 	movl   $0xc,(%esp)
    5e10:	e8 40 1f 00 00       	call   7d55 <kmalloc>
    5e15:	89 c6                	mov    %eax,%esi
    5e17:	89 78 04             	mov    %edi,0x4(%eax)
    5e1a:	89 58 08             	mov    %ebx,0x8(%eax)
    5e1d:	ba e0 bc 12 00       	mov    $0x12bce0,%edx
    5e22:	8b 4d f0             	mov    0xfffffff0(%ebp),%ecx
    5e25:	8b 04 8a             	mov    (%edx,%ecx,4),%eax
    5e28:	89 06                	mov    %eax,(%esi)
    5e2a:	89 34 8a             	mov    %esi,(%edx,%ecx,4)
    5e2d:	89 d8                	mov    %ebx,%eax
    5e2f:	83 c4 0c             	add    $0xc,%esp
    5e32:	5b                   	pop    %ebx
    5e33:	5e                   	pop    %esi
    5e34:	5f                   	pop    %edi
    5e35:	5d                   	pop    %ebp
    5e36:	c3                   	ret    

00005e37 <symbol_p>:
    5e37:	55                   	push   %ebp
    5e38:	89 e5                	mov    %esp,%ebp
    5e3a:	8b 45 0c             	mov    0xc(%ebp),%eax
    5e3d:	8b 00                	mov    (%eax),%eax
    5e3f:	a8 01                	test   $0x1,%al
    5e41:	75 0b                	jne    5e4e <symbol_p+0x17>
    5e43:	ba 54 cd 12 00       	mov    $0x12cd54,%edx
    5e48:	66 83 38 12          	cmpw   $0x12,(%eax)
    5e4c:	74 05                	je     5e53 <symbol_p+0x1c>
    5e4e:	ba 40 cd 12 00       	mov    $0x12cd40,%edx
    5e53:	89 d0                	mov    %edx,%eax
    5e55:	5d                   	pop    %ebp
    5e56:	c3                   	ret    

00005e57 <eq_p>:
    5e57:	55                   	push   %ebp
    5e58:	89 e5                	mov    %esp,%ebp
    5e5a:	8b 45 0c             	mov    0xc(%ebp),%eax
    5e5d:	8b 10                	mov    (%eax),%edx
    5e5f:	b9 54 cd 12 00       	mov    $0x12cd54,%ecx
    5e64:	3b 50 04             	cmp    0x4(%eax),%edx
    5e67:	74 05                	je     5e6e <eq_p+0x17>
    5e69:	b9 40 cd 12 00       	mov    $0x12cd40,%ecx
    5e6e:	89 c8                	mov    %ecx,%eax
    5e70:	5d                   	pop    %ebp
    5e71:	c3                   	ret    

00005e72 <symbol_to_string>:
    5e72:	55                   	push   %ebp
    5e73:	89 e5                	mov    %esp,%ebp
    5e75:	83 ec 08             	sub    $0x8,%esp
    5e78:	8b 45 0c             	mov    0xc(%ebp),%eax
    5e7b:	8b 00                	mov    (%eax),%eax
    5e7d:	8b 40 04             	mov    0x4(%eax),%eax
    5e80:	89 04 24             	mov    %eax,(%esp)
    5e83:	e8 b0 dc ff ff       	call   3b38 <scheme_make_string>
    5e88:	c9                   	leave  
    5e89:	c3                   	ret    

00005e8a <string_to_symbol>:
    5e8a:	55                   	push   %ebp
    5e8b:	89 e5                	mov    %esp,%ebp
    5e8d:	57                   	push   %edi
    5e8e:	56                   	push   %esi
    5e8f:	53                   	push   %ebx
    5e90:	83 ec 0c             	sub    $0xc,%esp
    5e93:	8b 45 0c             	mov    0xc(%ebp),%eax
    5e96:	8b 00                	mov    (%eax),%eax
    5e98:	8b 58 04             	mov    0x4(%eax),%ebx
    5e9b:	89 1c 24             	mov    %ebx,(%esp)
    5e9e:	e8 f0 00 00 00       	call   5f93 <_hash_symbol>
    5ea3:	89 45 f0             	mov    %eax,0xfffffff0(%ebp)
    5ea6:	8b 34 85 e0 bc 12 00 	mov    0x12bce0(,%eax,4),%esi
    5ead:	85 f6                	test   %esi,%esi
    5eaf:	74 1e                	je     5ecf <string_to_symbol+0x45>
    5eb1:	89 5c 24 04          	mov    %ebx,0x4(%esp)
    5eb5:	8b 46 04             	mov    0x4(%esi),%eax
    5eb8:	89 04 24             	mov    %eax,(%esp)
    5ebb:	e8 89 00 00 00       	call   5f49 <_symbol_eq_p>
    5ec0:	85 c0                	test   %eax,%eax
    5ec2:	74 05                	je     5ec9 <string_to_symbol+0x3f>
    5ec4:	8b 46 08             	mov    0x8(%esi),%eax
    5ec7:	eb 78                	jmp    5f41 <string_to_symbol+0xb7>
    5ec9:	8b 36                	mov    (%esi),%esi
    5ecb:	85 f6                	test   %esi,%esi
    5ecd:	75 e2                	jne    5eb1 <string_to_symbol+0x27>
    5ecf:	b9 00 00 00 00       	mov    $0x0,%ecx
    5ed4:	8d 53 01             	lea    0x1(%ebx),%edx
    5ed7:	80 3b 00             	cmpb   $0x0,(%ebx)
    5eda:	74 09                	je     5ee5 <string_to_symbol+0x5b>
    5edc:	41                   	inc    %ecx
    5edd:	0f b6 02             	movzbl (%edx),%eax
    5ee0:	42                   	inc    %edx
    5ee1:	84 c0                	test   %al,%al
    5ee3:	75 f7                	jne    5edc <string_to_symbol+0x52>
    5ee5:	89 0c 24             	mov    %ecx,(%esp)
    5ee8:	e8 68 1e 00 00       	call   7d55 <kmalloc>
    5eed:	89 c7                	mov    %eax,%edi
    5eef:	89 d9                	mov    %ebx,%ecx
    5ef1:	89 c2                	mov    %eax,%edx
    5ef3:	0f b6 01             	movzbl (%ecx),%eax
    5ef6:	41                   	inc    %ecx
    5ef7:	88 02                	mov    %al,(%edx)
    5ef9:	42                   	inc    %edx
    5efa:	84 c0                	test   %al,%al
    5efc:	75 f5                	jne    5ef3 <string_to_symbol+0x69>
    5efe:	c7 04 24 10 00 00 00 	movl   $0x10,(%esp)
    5f05:	e8 4b 1e 00 00       	call   7d55 <kmalloc>
    5f0a:	89 c3                	mov    %eax,%ebx
    5f0c:	66 c7 00 12 00       	movw   $0x12,(%eax)
    5f11:	89 78 04             	mov    %edi,0x4(%eax)
    5f14:	c7 40 08 00 00 00 00 	movl   $0x0,0x8(%eax)
    5f1b:	c7 04 24 0c 00 00 00 	movl   $0xc,(%esp)
    5f22:	e8 2e 1e 00 00       	call   7d55 <kmalloc>
    5f27:	89 c6                	mov    %eax,%esi
    5f29:	89 78 04             	mov    %edi,0x4(%eax)
    5f2c:	89 58 08             	mov    %ebx,0x8(%eax)
    5f2f:	ba e0 bc 12 00       	mov    $0x12bce0,%edx
    5f34:	8b 4d f0             	mov    0xfffffff0(%ebp),%ecx
    5f37:	8b 04 8a             	mov    (%edx,%ecx,4),%eax
    5f3a:	89 06                	mov    %eax,(%esi)
    5f3c:	89 34 8a             	mov    %esi,(%edx,%ecx,4)
    5f3f:	89 d8                	mov    %ebx,%eax
    5f41:	83 c4 0c             	add    $0xc,%esp
    5f44:	5b                   	pop    %ebx
    5f45:	5e                   	pop    %esi
    5f46:	5f                   	pop    %edi
    5f47:	5d                   	pop    %ebp
    5f48:	c3                   	ret    

00005f49 <_symbol_eq_p>:
    5f49:	55                   	push   %ebp
    5f4a:	89 e5                	mov    %esp,%ebp
    5f4c:	53                   	push   %ebx
    5f4d:	8b 4d 08             	mov    0x8(%ebp),%ecx
    5f50:	8b 5d 0c             	mov    0xc(%ebp),%ebx
    5f53:	80 39 00             	cmpb   $0x0,(%ecx)
    5f56:	74 20                	je     5f78 <_symbol_eq_p+0x2f>
    5f58:	80 3b 00             	cmpb   $0x0,(%ebx)
    5f5b:	74 16                	je     5f73 <_symbol_eq_p+0x2a>
    5f5d:	0f b6 13             	movzbl (%ebx),%edx
    5f60:	43                   	inc    %ebx
    5f61:	0f b6 01             	movzbl (%ecx),%eax
    5f64:	41                   	inc    %ecx
    5f65:	38 d0                	cmp    %dl,%al
    5f67:	75 1b                	jne    5f84 <_symbol_eq_p+0x3b>
    5f69:	80 39 00             	cmpb   $0x0,(%ecx)
    5f6c:	74 0a                	je     5f78 <_symbol_eq_p+0x2f>
    5f6e:	80 3b 00             	cmpb   $0x0,(%ebx)
    5f71:	75 ea                	jne    5f5d <_symbol_eq_p+0x14>
    5f73:	80 39 00             	cmpb   $0x0,(%ecx)
    5f76:	75 13                	jne    5f8b <_symbol_eq_p+0x42>
    5f78:	b8 01 00 00 00       	mov    $0x1,%eax
    5f7d:	80 3b 00             	cmpb   $0x0,(%ebx)
    5f80:	74 0e                	je     5f90 <_symbol_eq_p+0x47>
    5f82:	eb 07                	jmp    5f8b <_symbol_eq_p+0x42>
    5f84:	b8 00 00 00 00       	mov    $0x0,%eax
    5f89:	eb 05                	jmp    5f90 <_symbol_eq_p+0x47>
    5f8b:	b8 00 00 00 00       	mov    $0x0,%eax
    5f90:	5b                   	pop    %ebx
    5f91:	5d                   	pop    %ebp
    5f92:	c3                   	ret    

00005f93 <_hash_symbol>:
    5f93:	55                   	push   %ebp
    5f94:	89 e5                	mov    %esp,%ebp
    5f96:	56                   	push   %esi
    5f97:	53                   	push   %ebx
    5f98:	bb 00 00 00 00       	mov    $0x0,%ebx
    5f9d:	8b 75 08             	mov    0x8(%ebp),%esi
    5fa0:	b9 00 00 00 00       	mov    $0x0,%ecx
    5fa5:	80 3e 00             	cmpb   $0x0,(%esi)
    5fa8:	74 07                	je     5fb1 <_hash_symbol+0x1e>
    5faa:	41                   	inc    %ecx
    5fab:	80 3c 0e 00          	cmpb   $0x0,(%esi,%ecx,1)
    5faf:	75 f9                	jne    5faa <_hash_symbol+0x17>
    5fb1:	89 c8                	mov    %ecx,%eax
    5fb3:	49                   	dec    %ecx
    5fb4:	85 c0                	test   %eax,%eax
    5fb6:	7e 16                	jle    5fce <_hash_symbol+0x3b>
    5fb8:	89 d8                	mov    %ebx,%eax
    5fba:	c1 e0 05             	shl    $0x5,%eax
    5fbd:	01 d8                	add    %ebx,%eax
    5fbf:	0f be 14 0e          	movsbl (%esi,%ecx,1),%edx
    5fc3:	01 d0                	add    %edx,%eax
    5fc5:	01 c3                	add    %eax,%ebx
    5fc7:	89 c8                	mov    %ecx,%eax
    5fc9:	49                   	dec    %ecx
    5fca:	85 c0                	test   %eax,%eax
    5fcc:	7f ea                	jg     5fb8 <_hash_symbol+0x25>
    5fce:	8d 1c 9b             	lea    (%ebx,%ebx,4),%ebx
    5fd1:	89 d9                	mov    %ebx,%ecx
    5fd3:	d1 e9                	shr    %ecx
    5fd5:	ba 57 85 21 7f       	mov    $0x7f218557,%edx
    5fda:	89 c8                	mov    %ecx,%eax
    5fdc:	f7 e2                	mul    %edx
    5fde:	c1 ea 09             	shr    $0x9,%edx
    5fe1:	69 d2 07 04 00 00    	imul   $0x407,%edx,%edx
    5fe7:	89 c8                	mov    %ecx,%eax
    5fe9:	29 d0                	sub    %edx,%eax
    5feb:	5b                   	pop    %ebx
    5fec:	5e                   	pop    %esi
    5fed:	5d                   	pop    %ebp
    5fee:	c3                   	ret    
    5fef:	90                   	nop    

00005ff0 <scheme_obj_to_string>:
    5ff0:	55                   	push   %ebp
    5ff1:	89 e5                	mov    %esp,%ebp
    5ff3:	56                   	push   %esi
    5ff4:	53                   	push   %ebx
    5ff5:	83 ec 10             	sub    $0x10,%esp
    5ff8:	8b 5d 08             	mov    0x8(%ebp),%ebx
    5ffb:	8b 55 0c             	mov    0xc(%ebp),%edx
    5ffe:	b9 00 00 00 00       	mov    $0x0,%ecx
    6003:	f6 c2 01             	test   $0x1,%dl
    6006:	74 62                	je     606a <scheme_obj_to_string+0x7a>
    6008:	c6 03 23             	movb   $0x23,(%ebx)
    600b:	c6 43 01 5c          	movb   $0x5c,0x1(%ebx)
    600f:	89 d0                	mov    %edx,%eax
    6011:	d1 e8                	shr    %eax
    6013:	3c 20                	cmp    $0x20,%al
    6015:	75 1a                	jne    6031 <scheme_obj_to_string+0x41>
    6017:	b9 f7 8c 00 00       	mov    $0x8cf7,%ecx
    601c:	8d 53 02             	lea    0x2(%ebx),%edx
    601f:	0f b6 01             	movzbl (%ecx),%eax
    6022:	41                   	inc    %ecx
    6023:	88 02                	mov    %al,(%edx)
    6025:	42                   	inc    %edx
    6026:	84 c0                	test   %al,%al
    6028:	75 f5                	jne    601f <scheme_obj_to_string+0x2f>
    602a:	b9 07 00 00 00       	mov    $0x7,%ecx
    602f:	eb 32                	jmp    6063 <scheme_obj_to_string+0x73>
    6031:	89 d0                	mov    %edx,%eax
    6033:	d1 e8                	shr    %eax
    6035:	3c 0a                	cmp    $0xa,%al
    6037:	75 1a                	jne    6053 <scheme_obj_to_string+0x63>
    6039:	b9 fd 8c 00 00       	mov    $0x8cfd,%ecx
    603e:	8d 53 02             	lea    0x2(%ebx),%edx
    6041:	0f b6 01             	movzbl (%ecx),%eax
    6044:	41                   	inc    %ecx
    6045:	88 02                	mov    %al,(%edx)
    6047:	42                   	inc    %edx
    6048:	84 c0                	test   %al,%al
    604a:	75 f5                	jne    6041 <scheme_obj_to_string+0x51>
    604c:	b9 09 00 00 00       	mov    $0x9,%ecx
    6051:	eb 10                	jmp    6063 <scheme_obj_to_string+0x73>
    6053:	89 d0                	mov    %edx,%eax
    6055:	d1 f8                	sar    %eax
    6057:	88 43 02             	mov    %al,0x2(%ebx)
    605a:	c6 43 03 00          	movb   $0x0,0x3(%ebx)
    605e:	b9 03 00 00 00       	mov    $0x3,%ecx
    6063:	89 c8                	mov    %ecx,%eax
    6065:	e9 92 01 00 00       	jmp    61fc <scheme_obj_to_string+0x20c>
    606a:	b8 08 00 00 00       	mov    $0x8,%eax
    606f:	f6 c2 01             	test   $0x1,%dl
    6072:	75 03                	jne    6077 <scheme_obj_to_string+0x87>
    6074:	0f bf 02             	movswl (%edx),%eax
    6077:	83 f8 19             	cmp    $0x19,%eax
    607a:	0f 87 7a 01 00 00    	ja     61fa <scheme_obj_to_string+0x20a>
    6080:	ff 24 85 34 89 00 00 	jmp    *0x8934(,%eax,4)
    6087:	89 54 24 08          	mov    %edx,0x8(%esp)
    608b:	c7 44 24 04 05 8d 00 	movl   $0x8d05,0x4(%esp)
    6092:	00 
    6093:	89 1c 24             	mov    %ebx,(%esp)
    6096:	e8 f0 1f 00 00       	call   808b <sprintf>
    609b:	89 c1                	mov    %eax,%ecx
    609d:	e9 58 01 00 00       	jmp    61fa <scheme_obj_to_string+0x20a>
    60a2:	8b 42 04             	mov    0x4(%edx),%eax
    60a5:	89 44 24 08          	mov    %eax,0x8(%esp)
    60a9:	c7 44 24 04 19 8d 00 	movl   $0x8d19,0x4(%esp)
    60b0:	00 
    60b1:	89 1c 24             	mov    %ebx,(%esp)
    60b4:	e8 d2 1f 00 00       	call   808b <sprintf>
    60b9:	89 c1                	mov    %eax,%ecx
    60bb:	e9 3a 01 00 00       	jmp    61fa <scheme_obj_to_string+0x20a>
    60c0:	8b 42 08             	mov    0x8(%edx),%eax
    60c3:	89 44 24 08          	mov    %eax,0x8(%esp)
    60c7:	c7 44 24 04 29 8d 00 	movl   $0x8d29,0x4(%esp)
    60ce:	00 
    60cf:	89 1c 24             	mov    %ebx,(%esp)
    60d2:	e8 b4 1f 00 00       	call   808b <sprintf>
    60d7:	89 c1                	mov    %eax,%ecx
    60d9:	e9 1c 01 00 00       	jmp    61fa <scheme_obj_to_string+0x20a>
    60de:	8b 42 04             	mov    0x4(%edx),%eax
    60e1:	89 44 24 08          	mov    %eax,0x8(%esp)
    60e5:	c7 44 24 04 3b 8d 00 	movl   $0x8d3b,0x4(%esp)
    60ec:	00 
    60ed:	89 1c 24             	mov    %ebx,(%esp)
    60f0:	e8 96 1f 00 00       	call   808b <sprintf>
    60f5:	89 c1                	mov    %eax,%ecx
    60f7:	e9 fe 00 00 00       	jmp    61fa <scheme_obj_to_string+0x20a>
    60fc:	c6 03 22             	movb   $0x22,(%ebx)
    60ff:	43                   	inc    %ebx
    6100:	8b 4a 04             	mov    0x4(%edx),%ecx
    6103:	89 da                	mov    %ebx,%edx
    6105:	0f b6 01             	movzbl (%ecx),%eax
    6108:	41                   	inc    %ecx
    6109:	88 02                	mov    %al,(%edx)
    610b:	42                   	inc    %edx
    610c:	84 c0                	test   %al,%al
    610e:	75 f5                	jne    6105 <scheme_obj_to_string+0x115>
    6110:	b9 00 00 00 00       	mov    $0x0,%ecx
    6115:	8d 53 01             	lea    0x1(%ebx),%edx
    6118:	80 3b 00             	cmpb   $0x0,(%ebx)
    611b:	74 09                	je     6126 <scheme_obj_to_string+0x136>
    611d:	41                   	inc    %ecx
    611e:	0f b6 02             	movzbl (%edx),%eax
    6121:	42                   	inc    %edx
    6122:	84 c0                	test   %al,%al
    6124:	75 f7                	jne    611d <scheme_obj_to_string+0x12d>
    6126:	01 cb                	add    %ecx,%ebx
    6128:	c6 03 22             	movb   $0x22,(%ebx)
    612b:	c6 43 01 00          	movb   $0x0,0x1(%ebx)
    612f:	83 c1 02             	add    $0x2,%ecx
    6132:	e9 c3 00 00 00       	jmp    61fa <scheme_obj_to_string+0x20a>
    6137:	8b 4a 04             	mov    0x4(%edx),%ecx
    613a:	89 da                	mov    %ebx,%edx
    613c:	0f b6 01             	movzbl (%ecx),%eax
    613f:	41                   	inc    %ecx
    6140:	88 02                	mov    %al,(%edx)
    6142:	42                   	inc    %edx
    6143:	84 c0                	test   %al,%al
    6145:	75 f5                	jne    613c <scheme_obj_to_string+0x14c>
    6147:	b9 00 00 00 00       	mov    $0x0,%ecx
    614c:	8d 53 01             	lea    0x1(%ebx),%edx
    614f:	80 3b 00             	cmpb   $0x0,(%ebx)
    6152:	0f 84 a2 00 00 00    	je     61fa <scheme_obj_to_string+0x20a>
    6158:	41                   	inc    %ecx
    6159:	0f b6 02             	movzbl (%edx),%eax
    615c:	42                   	inc    %edx
    615d:	84 c0                	test   %al,%al
    615f:	75 f7                	jne    6158 <scheme_obj_to_string+0x168>
    6161:	e9 94 00 00 00       	jmp    61fa <scheme_obj_to_string+0x20a>
    6166:	b9 3e 8d 00 00       	mov    $0x8d3e,%ecx
    616b:	89 da                	mov    %ebx,%edx
    616d:	0f b6 01             	movzbl (%ecx),%eax
    6170:	41                   	inc    %ecx
    6171:	88 02                	mov    %al,(%edx)
    6173:	42                   	inc    %edx
    6174:	84 c0                	test   %al,%al
    6176:	75 f5                	jne    616d <scheme_obj_to_string+0x17d>
    6178:	b9 02 00 00 00       	mov    $0x2,%ecx
    617d:	eb 7b                	jmp    61fa <scheme_obj_to_string+0x20a>
    617f:	89 54 24 04          	mov    %edx,0x4(%esp)
    6183:	89 1c 24             	mov    %ebx,(%esp)
    6186:	e8 07 e0 ff ff       	call   4192 <scheme_list_to_string>
    618b:	89 c1                	mov    %eax,%ecx
    618d:	eb 6b                	jmp    61fa <scheme_obj_to_string+0x20a>
    618f:	89 54 24 04          	mov    %edx,0x4(%esp)
    6193:	89 1c 24             	mov    %ebx,(%esp)
    6196:	e8 8c e3 ff ff       	call   4527 <scheme_vector_to_string>
    619b:	89 c1                	mov    %eax,%ecx
    619d:	eb 5b                	jmp    61fa <scheme_obj_to_string+0x20a>
    619f:	be 41 8d 00 00       	mov    $0x8d41,%esi
    61a4:	89 da                	mov    %ebx,%edx
    61a6:	0f b6 06             	movzbl (%esi),%eax
    61a9:	46                   	inc    %esi
    61aa:	88 02                	mov    %al,(%edx)
    61ac:	42                   	inc    %edx
    61ad:	84 c0                	test   %al,%al
    61af:	75 f5                	jne    61a6 <scheme_obj_to_string+0x1b6>
    61b1:	eb 47                	jmp    61fa <scheme_obj_to_string+0x20a>
    61b3:	be 4b 8d 00 00       	mov    $0x8d4b,%esi
    61b8:	89 da                	mov    %ebx,%edx
    61ba:	0f b6 06             	movzbl (%esi),%eax
    61bd:	46                   	inc    %esi
    61be:	88 02                	mov    %al,(%edx)
    61c0:	42                   	inc    %edx
    61c1:	84 c0                	test   %al,%al
    61c3:	75 f5                	jne    61ba <scheme_obj_to_string+0x1ca>
    61c5:	eb 33                	jmp    61fa <scheme_obj_to_string+0x20a>
    61c7:	81 fa 40 cd 12 00    	cmp    $0x12cd40,%edx
    61cd:	74 14                	je     61e3 <scheme_obj_to_string+0x1f3>
    61cf:	b9 55 8d 00 00       	mov    $0x8d55,%ecx
    61d4:	89 da                	mov    %ebx,%edx
    61d6:	0f b6 01             	movzbl (%ecx),%eax
    61d9:	41                   	inc    %ecx
    61da:	88 02                	mov    %al,(%edx)
    61dc:	42                   	inc    %edx
    61dd:	84 c0                	test   %al,%al
    61df:	75 f5                	jne    61d6 <scheme_obj_to_string+0x1e6>
    61e1:	eb 12                	jmp    61f5 <scheme_obj_to_string+0x205>
    61e3:	b9 58 8d 00 00       	mov    $0x8d58,%ecx
    61e8:	89 da                	mov    %ebx,%edx
    61ea:	0f b6 01             	movzbl (%ecx),%eax
    61ed:	41                   	inc    %ecx
    61ee:	88 02                	mov    %al,(%edx)
    61f0:	42                   	inc    %edx
    61f1:	84 c0                	test   %al,%al
    61f3:	75 f5                	jne    61ea <scheme_obj_to_string+0x1fa>
    61f5:	b9 02 00 00 00       	mov    $0x2,%ecx
    61fa:	89 c8                	mov    %ecx,%eax
    61fc:	83 c4 10             	add    $0x10,%esp
    61ff:	5b                   	pop    %ebx
    6200:	5e                   	pop    %esi
    6201:	5d                   	pop    %ebp
    6202:	c3                   	ret    
    6203:	90                   	nop    

00006204 <scheme_init_env>:
    6204:	55                   	push   %ebp
    6205:	89 e5                	mov    %esp,%ebp
    6207:	56                   	push   %esi
    6208:	53                   	push   %ebx
    6209:	83 ec 20             	sub    $0x20,%esp
    620c:	c7 04 24 00 04 00 00 	movl   $0x400,(%esp)
    6213:	e8 3d 1b 00 00       	call   7d55 <kmalloc>
    6218:	89 c6                	mov    %eax,%esi
    621a:	c7 04 24 08 00 00 00 	movl   $0x8,(%esp)
    6221:	e8 2f 1b 00 00       	call   7d55 <kmalloc>
    6226:	89 c3                	mov    %eax,%ebx
    6228:	85 f6                	test   %esi,%esi
    622a:	0f 94 c0             	sete   %al
    622d:	85 db                	test   %ebx,%ebx
    622f:	0f 94 c2             	sete   %dl
    6232:	09 d0                	or     %edx,%eax
    6234:	a8 01                	test   $0x1,%al
    6236:	74 15                	je     624d <scheme_init_env+0x49>
    6238:	89 34 24             	mov    %esi,(%esp)
    623b:	e8 c3 1b 00 00       	call   7e03 <kfree>
    6240:	89 1c 24             	mov    %ebx,(%esp)
    6243:	e8 bb 1b 00 00       	call   7e03 <kfree>
    6248:	e9 ab 00 00 00       	jmp    62f8 <scheme_init_env+0xf4>
    624d:	66 c7 03 00 00       	movw   $0x0,(%ebx)
    6252:	66 c7 43 02 80 00    	movw   $0x80,0x2(%ebx)
    6258:	89 73 04             	mov    %esi,0x4(%ebx)
    625b:	66 c7 05 30 cd 12 00 	movw   $0x0,0x12cd30
    6262:	00 00 
    6264:	89 1d 38 cd 12 00    	mov    %ebx,0x12cd38
    626a:	c7 05 3c cd 12 00 10 	movl   $0x12cd10,0x12cd3c
    6271:	cd 12 00 
    6274:	c7 44 24 10 30 cd 12 	movl   $0x12cd30,0x10(%esp)
    627b:	00 
    627c:	c7 44 24 0c 01 00 00 	movl   $0x1,0xc(%esp)
    6283:	00 
    6284:	c7 44 24 08 01 00 00 	movl   $0x1,0x8(%esp)
    628b:	00 
    628c:	c7 44 24 04 45 67 00 	movl   $0x6745,0x4(%esp)
    6293:	00 
    6294:	c7 04 24 5b 8d 00 00 	movl   $0x8d5b,(%esp)
    629b:	e8 ce 03 00 00       	call   666e <scheme_register_primitive>
    62a0:	c7 44 24 10 30 cd 12 	movl   $0x12cd30,0x10(%esp)
    62a7:	00 
    62a8:	c7 44 24 0c 01 00 00 	movl   $0x1,0xc(%esp)
    62af:	00 
    62b0:	c7 44 24 08 01 00 00 	movl   $0x1,0x8(%esp)
    62b7:	00 
    62b8:	c7 44 24 04 4f 67 00 	movl   $0x674f,0x4(%esp)
    62bf:	00 
    62c0:	c7 04 24 75 8d 00 00 	movl   $0x8d75,(%esp)
    62c7:	e8 a2 03 00 00       	call   666e <scheme_register_primitive>
    62cc:	c7 44 24 10 30 cd 12 	movl   $0x12cd30,0x10(%esp)
    62d3:	00 
    62d4:	c7 44 24 0c 00 00 00 	movl   $0x0,0xc(%esp)
    62db:	00 
    62dc:	c7 44 24 08 00 00 00 	movl   $0x0,0x8(%esp)
    62e3:	00 
    62e4:	c7 44 24 04 59 67 00 	movl   $0x6759,0x4(%esp)
    62eb:	00 
    62ec:	c7 04 24 86 8d 00 00 	movl   $0x8d86,(%esp)
    62f3:	e8 76 03 00 00       	call   666e <scheme_register_primitive>
    62f8:	83 c4 20             	add    $0x20,%esp
    62fb:	5b                   	pop    %ebx
    62fc:	5e                   	pop    %esi
    62fd:	5d                   	pop    %ebp
    62fe:	c3                   	ret    

000062ff <scheme_lookup_var>:
    62ff:	55                   	push   %ebp
    6300:	89 e5                	mov    %esp,%ebp
    6302:	56                   	push   %esi
    6303:	53                   	push   %ebx
    6304:	8b 75 08             	mov    0x8(%ebp),%esi
    6307:	8b 5d 0c             	mov    0xc(%ebp),%ebx
    630a:	81 fb 10 cd 12 00    	cmp    $0x12cd10,%ebx
    6310:	74 30                	je     6342 <scheme_lookup_var+0x43>
    6312:	8b 4b 08             	mov    0x8(%ebx),%ecx
    6315:	8b 41 04             	mov    0x4(%ecx),%eax
    6318:	ba 00 00 00 00       	mov    $0x0,%edx
    631d:	66 83 39 00          	cmpw   $0x0,(%ecx)
    6321:	7e 14                	jle    6337 <scheme_lookup_var+0x38>
    6323:	0f bf 09             	movswl (%ecx),%ecx
    6326:	39 30                	cmp    %esi,(%eax)
    6328:	75 05                	jne    632f <scheme_lookup_var+0x30>
    632a:	8b 40 04             	mov    0x4(%eax),%eax
    632d:	eb 18                	jmp    6347 <scheme_lookup_var+0x48>
    632f:	42                   	inc    %edx
    6330:	83 c0 08             	add    $0x8,%eax
    6333:	39 d1                	cmp    %edx,%ecx
    6335:	7f ef                	jg     6326 <scheme_lookup_var+0x27>
    6337:	8b 5b 0c             	mov    0xc(%ebx),%ebx
    633a:	81 fb 10 cd 12 00    	cmp    $0x12cd10,%ebx
    6340:	75 d0                	jne    6312 <scheme_lookup_var+0x13>
    6342:	b8 00 cd 12 00       	mov    $0x12cd00,%eax
    6347:	5b                   	pop    %ebx
    6348:	5e                   	pop    %esi
    6349:	5d                   	pop    %ebp
    634a:	c3                   	ret    

0000634b <scheme_extend_env>:
    634b:	55                   	push   %ebp
    634c:	89 e5                	mov    %esp,%ebp
    634e:	57                   	push   %edi
    634f:	56                   	push   %esi
    6350:	53                   	push   %ebx
    6351:	83 ec 0c             	sub    $0xc,%esp
    6354:	8b 75 08             	mov    0x8(%ebp),%esi
    6357:	89 f0                	mov    %esi,%eax
    6359:	c7 45 f0 00 00 00 00 	movl   $0x0,0xfffffff0(%ebp)
    6360:	f7 c6 01 00 00 00    	test   $0x1,%esi
    6366:	75 16                	jne    637e <scheme_extend_env+0x33>
    6368:	66 83 3e 14          	cmpw   $0x14,(%esi)
    636c:	75 10                	jne    637e <scheme_extend_env+0x33>
    636e:	8b 40 08             	mov    0x8(%eax),%eax
    6371:	ff 45 f0             	incl   0xfffffff0(%ebp)
    6374:	a8 01                	test   $0x1,%al
    6376:	75 06                	jne    637e <scheme_extend_env+0x33>
    6378:	66 83 38 14          	cmpw   $0x14,(%eax)
    637c:	74 f0                	je     636e <scheme_extend_env+0x23>
    637e:	a8 01                	test   $0x1,%al
    6380:	75 0d                	jne    638f <scheme_extend_env+0x44>
    6382:	66 83 38 12          	cmpw   $0x12,(%eax)
    6386:	0f 94 c0             	sete   %al
    6389:	0f b6 c0             	movzbl %al,%eax
    638c:	01 45 f0             	add    %eax,0xfffffff0(%ebp)
    638f:	8b 7d f0             	mov    0xfffffff0(%ebp),%edi
    6392:	83 c7 1f             	add    $0x1f,%edi
    6395:	89 f8                	mov    %edi,%eax
    6397:	85 ff                	test   %edi,%edi
    6399:	79 06                	jns    63a1 <scheme_extend_env+0x56>
    639b:	8b 45 f0             	mov    0xfffffff0(%ebp),%eax
    639e:	83 c0 3e             	add    $0x3e,%eax
    63a1:	c1 f8 05             	sar    $0x5,%eax
    63a4:	89 c7                	mov    %eax,%edi
    63a6:	c1 e7 05             	shl    $0x5,%edi
    63a9:	c1 e0 08             	shl    $0x8,%eax
    63ac:	89 04 24             	mov    %eax,(%esp)
    63af:	e8 a1 19 00 00       	call   7d55 <kmalloc>
    63b4:	89 c3                	mov    %eax,%ebx
    63b6:	c7 04 24 08 00 00 00 	movl   $0x8,(%esp)
    63bd:	e8 93 19 00 00       	call   7d55 <kmalloc>
    63c2:	89 45 ec             	mov    %eax,0xffffffec(%ebp)
    63c5:	c7 04 24 10 00 00 00 	movl   $0x10,(%esp)
    63cc:	e8 84 19 00 00       	call   7d55 <kmalloc>
    63d1:	89 c1                	mov    %eax,%ecx
    63d3:	85 db                	test   %ebx,%ebx
    63d5:	0f 94 c2             	sete   %dl
    63d8:	83 7d ec 00          	cmpl   $0x0,0xffffffec(%ebp)
    63dc:	0f 94 c0             	sete   %al
    63df:	09 d0                	or     %edx,%eax
    63e1:	a8 01                	test   $0x1,%al
    63e3:	74 1a                	je     63ff <scheme_extend_env+0xb4>
    63e5:	89 1c 24             	mov    %ebx,(%esp)
    63e8:	e8 16 1a 00 00       	call   7e03 <kfree>
    63ed:	8b 45 ec             	mov    0xffffffec(%ebp),%eax
    63f0:	89 04 24             	mov    %eax,(%esp)
    63f3:	e8 0b 1a 00 00       	call   7e03 <kfree>
    63f8:	b8 00 cd 12 00       	mov    $0x12cd00,%eax
    63fd:	eb 76                	jmp    6475 <scheme_extend_env+0x12a>
    63ff:	8b 55 ec             	mov    0xffffffec(%ebp),%edx
    6402:	66 89 7a 02          	mov    %di,0x2(%edx)
    6406:	8b 45 f0             	mov    0xfffffff0(%ebp),%eax
    6409:	66 89 02             	mov    %ax,(%edx)
    640c:	89 5a 04             	mov    %ebx,0x4(%edx)
    640f:	f7 c6 01 00 00 00    	test   $0x1,%esi
    6415:	75 2e                	jne    6445 <scheme_extend_env+0xfa>
    6417:	66 83 3e 14          	cmpw   $0x14,(%esi)
    641b:	75 28                	jne    6445 <scheme_extend_env+0xfa>
    641d:	8b 46 04             	mov    0x4(%esi),%eax
    6420:	89 03                	mov    %eax,(%ebx)
    6422:	8b 55 0c             	mov    0xc(%ebp),%edx
    6425:	8b 42 04             	mov    0x4(%edx),%eax
    6428:	89 43 04             	mov    %eax,0x4(%ebx)
    642b:	8b 76 08             	mov    0x8(%esi),%esi
    642e:	8b 42 08             	mov    0x8(%edx),%eax
    6431:	89 45 0c             	mov    %eax,0xc(%ebp)
    6434:	83 c3 08             	add    $0x8,%ebx
    6437:	f7 c6 01 00 00 00    	test   $0x1,%esi
    643d:	75 06                	jne    6445 <scheme_extend_env+0xfa>
    643f:	66 83 3e 14          	cmpw   $0x14,(%esi)
    6443:	74 d8                	je     641d <scheme_extend_env+0xd2>
    6445:	f7 c6 01 00 00 00    	test   $0x1,%esi
    644b:	75 0e                	jne    645b <scheme_extend_env+0x110>
    644d:	66 83 3e 12          	cmpw   $0x12,(%esi)
    6451:	75 08                	jne    645b <scheme_extend_env+0x110>
    6453:	89 33                	mov    %esi,(%ebx)
    6455:	8b 55 0c             	mov    0xc(%ebp),%edx
    6458:	89 53 04             	mov    %edx,0x4(%ebx)
    645b:	66 c7 01 00 00       	movw   $0x0,(%ecx)
    6460:	c7 41 04 10 cd 12 00 	movl   $0x12cd10,0x4(%ecx)
    6467:	8b 45 10             	mov    0x10(%ebp),%eax
    646a:	89 41 0c             	mov    %eax,0xc(%ecx)
    646d:	8b 45 ec             	mov    0xffffffec(%ebp),%eax
    6470:	89 41 08             	mov    %eax,0x8(%ecx)
    6473:	89 c8                	mov    %ecx,%eax
    6475:	83 c4 0c             	add    $0xc,%esp
    6478:	5b                   	pop    %ebx
    6479:	5e                   	pop    %esi
    647a:	5f                   	pop    %edi
    647b:	5d                   	pop    %ebp
    647c:	c3                   	ret    

0000647d <scheme_define_var>:
    647d:	55                   	push   %ebp
    647e:	89 e5                	mov    %esp,%ebp
    6480:	57                   	push   %edi
    6481:	56                   	push   %esi
    6482:	53                   	push   %ebx
    6483:	83 ec 0c             	sub    $0xc,%esp
    6486:	8b 45 10             	mov    0x10(%ebp),%eax
    6489:	8b 40 08             	mov    0x8(%eax),%eax
    648c:	89 45 ec             	mov    %eax,0xffffffec(%ebp)
    648f:	8b 50 04             	mov    0x4(%eax),%edx
    6492:	bb 00 00 00 00       	mov    $0x0,%ebx
    6497:	66 83 38 00          	cmpw   $0x0,(%eax)
    649b:	7e 20                	jle    64bd <scheme_define_var+0x40>
    649d:	8b 45 08             	mov    0x8(%ebp),%eax
    64a0:	39 02                	cmp    %eax,(%edx)
    64a2:	75 0b                	jne    64af <scheme_define_var+0x32>
    64a4:	8b 4d 0c             	mov    0xc(%ebp),%ecx
    64a7:	89 4a 04             	mov    %ecx,0x4(%edx)
    64aa:	8b 45 08             	mov    0x8(%ebp),%eax
    64ad:	eb 79                	jmp    6528 <scheme_define_var+0xab>
    64af:	83 c2 08             	add    $0x8,%edx
    64b2:	43                   	inc    %ebx
    64b3:	8b 7d ec             	mov    0xffffffec(%ebp),%edi
    64b6:	0f bf 07             	movswl (%edi),%eax
    64b9:	39 d8                	cmp    %ebx,%eax
    64bb:	7f e0                	jg     649d <scheme_define_var+0x20>
    64bd:	8b 4d ec             	mov    0xffffffec(%ebp),%ecx
    64c0:	0f bf 41 02          	movswl 0x2(%ecx),%eax
    64c4:	39 d8                	cmp    %ebx,%eax
    64c6:	75 48                	jne    6510 <scheme_define_var+0x93>
    64c8:	0f b7 41 02          	movzwl 0x2(%ecx),%eax
    64cc:	83 c0 20             	add    $0x20,%eax
    64cf:	66 89 41 02          	mov    %ax,0x2(%ecx)
    64d3:	0f bf 41 02          	movswl 0x2(%ecx),%eax
    64d7:	c1 e0 03             	shl    $0x3,%eax
    64da:	89 04 24             	mov    %eax,(%esp)
    64dd:	e8 73 18 00 00       	call   7d55 <kmalloc>
    64e2:	89 45 f0             	mov    %eax,0xfffffff0(%ebp)
    64e5:	8b 7d ec             	mov    0xffffffec(%ebp),%edi
    64e8:	8b 77 04             	mov    0x4(%edi),%esi
    64eb:	c1 e3 03             	shl    $0x3,%ebx
    64ee:	89 c7                	mov    %eax,%edi
    64f0:	89 d9                	mov    %ebx,%ecx
    64f2:	56                   	push   %esi
    64f3:	57                   	push   %edi
    64f4:	fc                   	cld    
    64f5:	f3 a4                	repz movsb %ds:(%esi),%es:(%edi)
    64f7:	5f                   	pop    %edi
    64f8:	5e                   	pop    %esi
    64f9:	8b 55 ec             	mov    0xffffffec(%ebp),%edx
    64fc:	8b 42 04             	mov    0x4(%edx),%eax
    64ff:	89 04 24             	mov    %eax,(%esp)
    6502:	e8 fc 18 00 00       	call   7e03 <kfree>
    6507:	8b 4d ec             	mov    0xffffffec(%ebp),%ecx
    650a:	89 79 04             	mov    %edi,0x4(%ecx)
    650d:	8d 14 3b             	lea    (%ebx,%edi,1),%edx
    6510:	8b 7d ec             	mov    0xffffffec(%ebp),%edi
    6513:	0f b7 07             	movzwl (%edi),%eax
    6516:	40                   	inc    %eax
    6517:	66 89 07             	mov    %ax,(%edi)
    651a:	8b 45 08             	mov    0x8(%ebp),%eax
    651d:	89 02                	mov    %eax,(%edx)
    651f:	8b 4d 0c             	mov    0xc(%ebp),%ecx
    6522:	89 4a 04             	mov    %ecx,0x4(%edx)
    6525:	8b 45 08             	mov    0x8(%ebp),%eax
    6528:	83 c4 0c             	add    $0xc,%esp
    652b:	5b                   	pop    %ebx
    652c:	5e                   	pop    %esi
    652d:	5f                   	pop    %edi
    652e:	5d                   	pop    %ebp
    652f:	c3                   	ret    

00006530 <scheme_set_var>:
    6530:	55                   	push   %ebp
    6531:	89 e5                	mov    %esp,%ebp
    6533:	56                   	push   %esi
    6534:	53                   	push   %ebx
    6535:	8b 75 08             	mov    0x8(%ebp),%esi
    6538:	8b 5d 10             	mov    0x10(%ebp),%ebx
    653b:	8b 43 08             	mov    0x8(%ebx),%eax
    653e:	8b 48 04             	mov    0x4(%eax),%ecx
    6541:	ba 00 00 00 00       	mov    $0x0,%edx
    6546:	66 83 38 00          	cmpw   $0x0,(%eax)
    654a:	7e 1f                	jle    656b <scheme_set_var+0x3b>
    654c:	39 31                	cmp    %esi,(%ecx)
    654e:	75 0d                	jne    655d <scheme_set_var+0x2d>
    6550:	8b 51 04             	mov    0x4(%ecx),%edx
    6553:	8b 45 0c             	mov    0xc(%ebp),%eax
    6556:	89 41 04             	mov    %eax,0x4(%ecx)
    6559:	89 d0                	mov    %edx,%eax
    655b:	eb 13                	jmp    6570 <scheme_set_var+0x40>
    655d:	83 c1 08             	add    $0x8,%ecx
    6560:	42                   	inc    %edx
    6561:	8b 43 08             	mov    0x8(%ebx),%eax
    6564:	0f bf 00             	movswl (%eax),%eax
    6567:	39 d0                	cmp    %edx,%eax
    6569:	7f e1                	jg     654c <scheme_set_var+0x1c>
    656b:	b8 00 cd 12 00       	mov    $0x12cd00,%eax
    6570:	5b                   	pop    %ebx
    6571:	5e                   	pop    %esi
    6572:	5d                   	pop    %ebp
    6573:	c3                   	ret    

00006574 <scheme_register_prims>:
    6574:	55                   	push   %ebp
    6575:	89 e5                	mov    %esp,%ebp
    6577:	57                   	push   %edi
    6578:	56                   	push   %esi
    6579:	53                   	push   %ebx
    657a:	83 ec 1c             	sub    $0x1c,%esp
    657d:	8b 45 08             	mov    0x8(%ebp),%eax
    6580:	83 78 04 00          	cmpl   $0x0,0x4(%eax)
    6584:	0f 84 dc 00 00 00    	je     6666 <scheme_register_prims+0xf2>
    658a:	8b 55 08             	mov    0x8(%ebp),%edx
    658d:	8b 02                	mov    (%edx),%eax
    658f:	89 04 24             	mov    %eax,(%esp)
    6592:	e8 e6 f7 ff ff       	call   5d7d <scheme_make_symbol>
    6597:	89 45 f0             	mov    %eax,0xfffffff0(%ebp)
    659a:	8b 4d 08             	mov    0x8(%ebp),%ecx
    659d:	8b 41 0c             	mov    0xc(%ecx),%eax
    65a0:	89 44 24 08          	mov    %eax,0x8(%esp)
    65a4:	8b 41 08             	mov    0x8(%ecx),%eax
    65a7:	89 44 24 04          	mov    %eax,0x4(%esp)
    65ab:	8b 41 04             	mov    0x4(%ecx),%eax
    65ae:	89 04 24             	mov    %eax,(%esp)
    65b1:	e8 2e 02 00 00       	call   67e4 <scheme_make_prim_proc>
    65b6:	89 45 ec             	mov    %eax,0xffffffec(%ebp)
    65b9:	8b 35 38 cd 12 00    	mov    0x12cd38,%esi
    65bf:	89 75 e4             	mov    %esi,0xffffffe4(%ebp)
    65c2:	8b 56 04             	mov    0x4(%esi),%edx
    65c5:	bb 00 00 00 00       	mov    $0x0,%ebx
    65ca:	66 83 3e 00          	cmpw   $0x0,(%esi)
    65ce:	7e 1d                	jle    65ed <scheme_register_prims+0x79>
    65d0:	8b 7d f0             	mov    0xfffffff0(%ebp),%edi
    65d3:	39 3a                	cmp    %edi,(%edx)
    65d5:	75 08                	jne    65df <scheme_register_prims+0x6b>
    65d7:	8b 45 ec             	mov    0xffffffec(%ebp),%eax
    65da:	89 42 04             	mov    %eax,0x4(%edx)
    65dd:	eb 76                	jmp    6655 <scheme_register_prims+0xe1>
    65df:	83 c2 08             	add    $0x8,%edx
    65e2:	43                   	inc    %ebx
    65e3:	8b 4d e4             	mov    0xffffffe4(%ebp),%ecx
    65e6:	0f bf 01             	movswl (%ecx),%eax
    65e9:	39 d8                	cmp    %ebx,%eax
    65eb:	7f e3                	jg     65d0 <scheme_register_prims+0x5c>
    65ed:	8b 75 e4             	mov    0xffffffe4(%ebp),%esi
    65f0:	0f bf 46 02          	movswl 0x2(%esi),%eax
    65f4:	39 d8                	cmp    %ebx,%eax
    65f6:	75 48                	jne    6640 <scheme_register_prims+0xcc>
    65f8:	0f b7 46 02          	movzwl 0x2(%esi),%eax
    65fc:	83 c0 20             	add    $0x20,%eax
    65ff:	66 89 46 02          	mov    %ax,0x2(%esi)
    6603:	0f bf 46 02          	movswl 0x2(%esi),%eax
    6607:	c1 e0 03             	shl    $0x3,%eax
    660a:	89 04 24             	mov    %eax,(%esp)
    660d:	e8 43 17 00 00       	call   7d55 <kmalloc>
    6612:	89 45 e8             	mov    %eax,0xffffffe8(%ebp)
    6615:	8b 46 04             	mov    0x4(%esi),%eax
    6618:	c1 e3 03             	shl    $0x3,%ebx
    661b:	8b 7d e8             	mov    0xffffffe8(%ebp),%edi
    661e:	89 c6                	mov    %eax,%esi
    6620:	89 d9                	mov    %ebx,%ecx
    6622:	56                   	push   %esi
    6623:	57                   	push   %edi
    6624:	fc                   	cld    
    6625:	f3 a4                	repz movsb %ds:(%esi),%es:(%edi)
    6627:	5f                   	pop    %edi
    6628:	5e                   	pop    %esi
    6629:	8b 55 e4             	mov    0xffffffe4(%ebp),%edx
    662c:	8b 42 04             	mov    0x4(%edx),%eax
    662f:	89 04 24             	mov    %eax,(%esp)
    6632:	e8 cc 17 00 00       	call   7e03 <kfree>
    6637:	8b 4d e4             	mov    0xffffffe4(%ebp),%ecx
    663a:	89 79 04             	mov    %edi,0x4(%ecx)
    663d:	8d 14 3b             	lea    (%ebx,%edi,1),%edx
    6640:	8b 75 e4             	mov    0xffffffe4(%ebp),%esi
    6643:	0f b7 06             	movzwl (%esi),%eax
    6646:	40                   	inc    %eax
    6647:	66 89 06             	mov    %ax,(%esi)
    664a:	8b 7d f0             	mov    0xfffffff0(%ebp),%edi
    664d:	89 3a                	mov    %edi,(%edx)
    664f:	8b 45 ec             	mov    0xffffffec(%ebp),%eax
    6652:	89 42 04             	mov    %eax,0x4(%edx)
    6655:	83 45 08 10          	addl   $0x10,0x8(%ebp)
    6659:	8b 55 08             	mov    0x8(%ebp),%edx
    665c:	83 7a 04 00          	cmpl   $0x0,0x4(%edx)
    6660:	0f 85 24 ff ff ff    	jne    658a <scheme_register_prims+0x16>
    6666:	83 c4 1c             	add    $0x1c,%esp
    6669:	5b                   	pop    %ebx
    666a:	5e                   	pop    %esi
    666b:	5f                   	pop    %edi
    666c:	5d                   	pop    %ebp
    666d:	c3                   	ret    

0000666e <scheme_register_primitive>:
    666e:	55                   	push   %ebp
    666f:	89 e5                	mov    %esp,%ebp
    6671:	57                   	push   %edi
    6672:	56                   	push   %esi
    6673:	53                   	push   %ebx
    6674:	83 ec 1c             	sub    $0x1c,%esp
    6677:	8b 45 08             	mov    0x8(%ebp),%eax
    667a:	89 04 24             	mov    %eax,(%esp)
    667d:	e8 fb f6 ff ff       	call   5d7d <scheme_make_symbol>
    6682:	89 45 e8             	mov    %eax,0xffffffe8(%ebp)
    6685:	8b 45 14             	mov    0x14(%ebp),%eax
    6688:	89 44 24 08          	mov    %eax,0x8(%esp)
    668c:	8b 45 10             	mov    0x10(%ebp),%eax
    668f:	89 44 24 04          	mov    %eax,0x4(%esp)
    6693:	8b 45 0c             	mov    0xc(%ebp),%eax
    6696:	89 04 24             	mov    %eax,(%esp)
    6699:	e8 46 01 00 00       	call   67e4 <scheme_make_prim_proc>
    669e:	89 45 f0             	mov    %eax,0xfffffff0(%ebp)
    66a1:	8b 45 18             	mov    0x18(%ebp),%eax
    66a4:	8b 40 08             	mov    0x8(%eax),%eax
    66a7:	89 45 e4             	mov    %eax,0xffffffe4(%ebp)
    66aa:	8b 50 04             	mov    0x4(%eax),%edx
    66ad:	bb 00 00 00 00       	mov    $0x0,%ebx
    66b2:	66 83 38 00          	cmpw   $0x0,(%eax)
    66b6:	7e 1d                	jle    66d5 <scheme_register_primitive+0x67>
    66b8:	8b 45 e8             	mov    0xffffffe8(%ebp),%eax
    66bb:	39 02                	cmp    %eax,(%edx)
    66bd:	75 08                	jne    66c7 <scheme_register_primitive+0x59>
    66bf:	8b 4d f0             	mov    0xfffffff0(%ebp),%ecx
    66c2:	89 4a 04             	mov    %ecx,0x4(%edx)
    66c5:	eb 76                	jmp    673d <scheme_register_primitive+0xcf>
    66c7:	83 c2 08             	add    $0x8,%edx
    66ca:	43                   	inc    %ebx
    66cb:	8b 75 e4             	mov    0xffffffe4(%ebp),%esi
    66ce:	0f bf 06             	movswl (%esi),%eax
    66d1:	39 d8                	cmp    %ebx,%eax
    66d3:	7f e3                	jg     66b8 <scheme_register_primitive+0x4a>
    66d5:	8b 7d e4             	mov    0xffffffe4(%ebp),%edi
    66d8:	0f bf 47 02          	movswl 0x2(%edi),%eax
    66dc:	39 d8                	cmp    %ebx,%eax
    66de:	75 48                	jne    6728 <scheme_register_primitive+0xba>
    66e0:	0f b7 47 02          	movzwl 0x2(%edi),%eax
    66e4:	83 c0 20             	add    $0x20,%eax
    66e7:	66 89 47 02          	mov    %ax,0x2(%edi)
    66eb:	0f bf 47 02          	movswl 0x2(%edi),%eax
    66ef:	c1 e0 03             	shl    $0x3,%eax
    66f2:	89 04 24             	mov    %eax,(%esp)
    66f5:	e8 5b 16 00 00       	call   7d55 <kmalloc>
    66fa:	89 45 ec             	mov    %eax,0xffffffec(%ebp)
    66fd:	8b 47 04             	mov    0x4(%edi),%eax
    6700:	c1 e3 03             	shl    $0x3,%ebx
    6703:	8b 7d ec             	mov    0xffffffec(%ebp),%edi
    6706:	89 c6                	mov    %eax,%esi
    6708:	89 d9                	mov    %ebx,%ecx
    670a:	56                   	push   %esi
    670b:	57                   	push   %edi
    670c:	fc                   	cld    
    670d:	f3 a4                	repz movsb %ds:(%esi),%es:(%edi)
    670f:	5f                   	pop    %edi
    6710:	5e                   	pop    %esi
    6711:	8b 55 e4             	mov    0xffffffe4(%ebp),%edx
    6714:	8b 42 04             	mov    0x4(%edx),%eax
    6717:	89 04 24             	mov    %eax,(%esp)
    671a:	e8 e4 16 00 00       	call   7e03 <kfree>
    671f:	8b 4d e4             	mov    0xffffffe4(%ebp),%ecx
    6722:	89 79 04             	mov    %edi,0x4(%ecx)
    6725:	8d 14 3b             	lea    (%ebx,%edi,1),%edx
    6728:	8b 75 e4             	mov    0xffffffe4(%ebp),%esi
    672b:	0f b7 06             	movzwl (%esi),%eax
    672e:	40                   	inc    %eax
    672f:	66 89 06             	mov    %ax,(%esi)
    6732:	8b 7d e8             	mov    0xffffffe8(%ebp),%edi
    6735:	89 3a                	mov    %edi,(%edx)
    6737:	8b 45 f0             	mov    0xfffffff0(%ebp),%eax
    673a:	89 42 04             	mov    %eax,0x4(%edx)
    673d:	83 c4 1c             	add    $0x1c,%esp
    6740:	5b                   	pop    %ebx
    6741:	5e                   	pop    %esi
    6742:	5f                   	pop    %edi
    6743:	5d                   	pop    %ebp
    6744:	c3                   	ret    

00006745 <scheme_report_environment>:
    6745:	55                   	push   %ebp
    6746:	89 e5                	mov    %esp,%ebp
    6748:	b8 30 cd 12 00       	mov    $0x12cd30,%eax
    674d:	5d                   	pop    %ebp
    674e:	c3                   	ret    

0000674f <null_environment>:
    674f:	55                   	push   %ebp
    6750:	89 e5                	mov    %esp,%ebp
    6752:	b8 10 cd 12 00       	mov    $0x12cd10,%eax
    6757:	5d                   	pop    %ebp
    6758:	c3                   	ret    

00006759 <interaction_environment>:
    6759:	55                   	push   %ebp
    675a:	89 e5                	mov    %esp,%ebp
    675c:	b8 30 cd 12 00       	mov    $0x12cd30,%eax
    6761:	5d                   	pop    %ebp
    6762:	c3                   	ret    
    6763:	90                   	nop    

00006764 <scheme_init_proc>:
    6764:	55                   	push   %ebp
    6765:	89 e5                	mov    %esp,%ebp
    6767:	66 c7 05 00 cd 12 00 	movw   $0x1a,0x12cd00
    676e:	1a 00 
    6770:	5d                   	pop    %ebp
    6771:	c3                   	ret    

00006772 <scheme_apply>:
    6772:	55                   	push   %ebp
    6773:	89 e5                	mov    %esp,%ebp
    6775:	53                   	push   %ebx
    6776:	83 ec 14             	sub    $0x14,%esp
    6779:	8b 5d 08             	mov    0x8(%ebp),%ebx
    677c:	8b 55 0c             	mov    0xc(%ebp),%edx
    677f:	b8 08 00 00 00       	mov    $0x8,%eax
    6784:	f6 c3 01             	test   $0x1,%bl
    6787:	75 03                	jne    678c <scheme_apply+0x1a>
    6789:	0f bf 03             	movswl (%ebx),%eax
    678c:	83 f8 04             	cmp    $0x4,%eax
    678f:	74 07                	je     6798 <scheme_apply+0x26>
    6791:	83 f8 05             	cmp    $0x5,%eax
    6794:	74 10                	je     67a6 <scheme_apply+0x34>
    6796:	eb 35                	jmp    67cd <scheme_apply+0x5b>
    6798:	89 54 24 04          	mov    %edx,0x4(%esp)
    679c:	89 1c 24             	mov    %ebx,(%esp)
    679f:	e8 6b 00 00 00       	call   680f <scheme_apply_prim_proc>
    67a4:	eb 38                	jmp    67de <scheme_apply+0x6c>
    67a6:	8b 43 0c             	mov    0xc(%ebx),%eax
    67a9:	89 44 24 08          	mov    %eax,0x8(%esp)
    67ad:	89 54 24 04          	mov    %edx,0x4(%esp)
    67b1:	8b 43 04             	mov    0x4(%ebx),%eax
    67b4:	89 04 24             	mov    %eax,(%esp)
    67b7:	e8 8f fb ff ff       	call   634b <scheme_extend_env>
    67bc:	89 44 24 04          	mov    %eax,0x4(%esp)
    67c0:	8b 43 08             	mov    0x8(%ebx),%eax
    67c3:	89 04 24             	mov    %eax,(%esp)
    67c6:	e8 c7 01 00 00       	call   6992 <scheme_eval_sequence>
    67cb:	eb 11                	jmp    67de <scheme_apply+0x6c>
    67cd:	c7 04 24 74 8e 00 00 	movl   $0x8e74,(%esp)
    67d4:	e8 7b 18 00 00       	call   8054 <printf>
    67d9:	b8 00 cd 12 00       	mov    $0x12cd00,%eax
    67de:	83 c4 14             	add    $0x14,%esp
    67e1:	5b                   	pop    %ebx
    67e2:	5d                   	pop    %ebp
    67e3:	c3                   	ret    

000067e4 <scheme_make_prim_proc>:
    67e4:	55                   	push   %ebp
    67e5:	89 e5                	mov    %esp,%ebp
    67e7:	83 ec 08             	sub    $0x8,%esp
    67ea:	c7 04 24 10 00 00 00 	movl   $0x10,(%esp)
    67f1:	e8 5f 15 00 00       	call   7d55 <kmalloc>
    67f6:	8b 55 08             	mov    0x8(%ebp),%edx
    67f9:	89 50 04             	mov    %edx,0x4(%eax)
    67fc:	8b 55 10             	mov    0x10(%ebp),%edx
    67ff:	89 50 0c             	mov    %edx,0xc(%eax)
    6802:	8b 55 0c             	mov    0xc(%ebp),%edx
    6805:	89 50 08             	mov    %edx,0x8(%eax)
    6808:	66 c7 00 04 00       	movw   $0x4,(%eax)
    680d:	c9                   	leave  
    680e:	c3                   	ret    

0000680f <scheme_apply_prim_proc>:
    680f:	55                   	push   %ebp
    6810:	89 e5                	mov    %esp,%ebp
    6812:	57                   	push   %edi
    6813:	56                   	push   %esi
    6814:	53                   	push   %ebx
    6815:	83 ec 0c             	sub    $0xc,%esp
    6818:	8b 7d 08             	mov    0x8(%ebp),%edi
    681b:	8b 75 0c             	mov    0xc(%ebp),%esi
    681e:	bb 00 00 00 00       	mov    $0x0,%ebx
    6823:	89 f0                	mov    %esi,%eax
    6825:	81 fe 10 cd 12 00    	cmp    $0x12cd10,%esi
    682b:	74 0b                	je     6838 <scheme_apply_prim_proc+0x29>
    682d:	8b 40 08             	mov    0x8(%eax),%eax
    6830:	43                   	inc    %ebx
    6831:	3d 10 cd 12 00       	cmp    $0x12cd10,%eax
    6836:	75 f5                	jne    682d <scheme_apply_prim_proc+0x1e>
    6838:	83 7f 0c 00          	cmpl   $0x0,0xc(%edi)
    683c:	7e 0a                	jle    6848 <scheme_apply_prim_proc+0x39>
    683e:	b8 00 cd 12 00       	mov    $0x12cd00,%eax
    6843:	39 5f 0c             	cmp    %ebx,0xc(%edi)
    6846:	7c 40                	jl     6888 <scheme_apply_prim_proc+0x79>
    6848:	b8 00 cd 12 00       	mov    $0x12cd00,%eax
    684d:	39 5f 08             	cmp    %ebx,0x8(%edi)
    6850:	7f 36                	jg     6888 <scheme_apply_prim_proc+0x79>
    6852:	8d 04 9d 00 00 00 00 	lea    0x0(,%ebx,4),%eax
    6859:	89 04 24             	mov    %eax,(%esp)
    685c:	e8 f4 14 00 00       	call   7d55 <kmalloc>
    6861:	89 45 f0             	mov    %eax,0xfffffff0(%ebp)
    6864:	89 c1                	mov    %eax,%ecx
    6866:	85 db                	test   %ebx,%ebx
    6868:	7e 11                	jle    687b <scheme_apply_prim_proc+0x6c>
    686a:	8d 53 00             	lea    0x0(%ebx),%edx
    686d:	8b 46 04             	mov    0x4(%esi),%eax
    6870:	89 01                	mov    %eax,(%ecx)
    6872:	83 c1 04             	add    $0x4,%ecx
    6875:	8b 76 08             	mov    0x8(%esi),%esi
    6878:	4a                   	dec    %edx
    6879:	75 f2                	jne    686d <scheme_apply_prim_proc+0x5e>
    687b:	8b 45 f0             	mov    0xfffffff0(%ebp),%eax
    687e:	89 44 24 04          	mov    %eax,0x4(%esp)
    6882:	89 1c 24             	mov    %ebx,(%esp)
    6885:	ff 57 04             	call   *0x4(%edi)
    6888:	83 c4 0c             	add    $0xc,%esp
    688b:	5b                   	pop    %ebx
    688c:	5e                   	pop    %esi
    688d:	5f                   	pop    %edi
    688e:	5d                   	pop    %ebp
    688f:	c3                   	ret    

00006890 <scheme_make_procedure>:
    6890:	55                   	push   %ebp
    6891:	89 e5                	mov    %esp,%ebp
    6893:	83 ec 08             	sub    $0x8,%esp
    6896:	c7 04 24 10 00 00 00 	movl   $0x10,(%esp)
    689d:	e8 b3 14 00 00       	call   7d55 <kmalloc>
    68a2:	8b 55 0c             	mov    0xc(%ebp),%edx
    68a5:	89 50 08             	mov    %edx,0x8(%eax)
    68a8:	8b 55 08             	mov    0x8(%ebp),%edx
    68ab:	89 50 04             	mov    %edx,0x4(%eax)
    68ae:	8b 55 10             	mov    0x10(%ebp),%edx
    68b1:	89 50 0c             	mov    %edx,0xc(%eax)
    68b4:	66 c7 00 05 00       	movw   $0x5,(%eax)
    68b9:	c9                   	leave  
    68ba:	c3                   	ret    

000068bb <apply>:
    68bb:	55                   	push   %ebp
    68bc:	89 e5                	mov    %esp,%ebp
    68be:	53                   	push   %ebx
    68bf:	83 ec 14             	sub    $0x14,%esp
    68c2:	8b 45 0c             	mov    0xc(%ebp),%eax
    68c5:	8b 18                	mov    (%eax),%ebx
    68c7:	8b 50 04             	mov    0x4(%eax),%edx
    68ca:	b8 08 00 00 00       	mov    $0x8,%eax
    68cf:	f6 c3 01             	test   $0x1,%bl
    68d2:	75 03                	jne    68d7 <apply+0x1c>
    68d4:	0f bf 03             	movswl (%ebx),%eax
    68d7:	83 f8 04             	cmp    $0x4,%eax
    68da:	74 07                	je     68e3 <apply+0x28>
    68dc:	83 f8 05             	cmp    $0x5,%eax
    68df:	74 10                	je     68f1 <apply+0x36>
    68e1:	eb 35                	jmp    6918 <apply+0x5d>
    68e3:	89 54 24 04          	mov    %edx,0x4(%esp)
    68e7:	89 1c 24             	mov    %ebx,(%esp)
    68ea:	e8 20 ff ff ff       	call   680f <scheme_apply_prim_proc>
    68ef:	eb 38                	jmp    6929 <apply+0x6e>
    68f1:	8b 43 0c             	mov    0xc(%ebx),%eax
    68f4:	89 44 24 08          	mov    %eax,0x8(%esp)
    68f8:	89 54 24 04          	mov    %edx,0x4(%esp)
    68fc:	8b 43 04             	mov    0x4(%ebx),%eax
    68ff:	89 04 24             	mov    %eax,(%esp)
    6902:	e8 44 fa ff ff       	call   634b <scheme_extend_env>
    6907:	89 44 24 04          	mov    %eax,0x4(%esp)
    690b:	8b 43 08             	mov    0x8(%ebx),%eax
    690e:	89 04 24             	mov    %eax,(%esp)
    6911:	e8 7c 00 00 00       	call   6992 <scheme_eval_sequence>
    6916:	eb 11                	jmp    6929 <apply+0x6e>
    6918:	c7 04 24 74 8e 00 00 	movl   $0x8e74,(%esp)
    691f:	e8 30 17 00 00       	call   8054 <printf>
    6924:	b8 00 cd 12 00       	mov    $0x12cd00,%eax
    6929:	83 c4 14             	add    $0x14,%esp
    692c:	5b                   	pop    %ebx
    692d:	5d                   	pop    %ebp
    692e:	c3                   	ret    
    692f:	90                   	nop    

00006930 <scheme_eval>:
    6930:	55                   	push   %ebp
    6931:	89 e5                	mov    %esp,%ebp
    6933:	83 ec 08             	sub    $0x8,%esp
    6936:	8b 55 08             	mov    0x8(%ebp),%edx
    6939:	b8 10 cd 12 00       	mov    $0x12cd10,%eax
    693e:	39 c2                	cmp    %eax,%edx
    6940:	74 4e                	je     6990 <scheme_eval+0x60>
    6942:	89 14 24             	mov    %edx,(%esp)
    6945:	e8 28 01 00 00       	call   6a72 <_analyze>
    694a:	89 c2                	mov    %eax,%edx
    694c:	a8 01                	test   $0x1,%al
    694e:	75 11                	jne    6961 <scheme_eval+0x31>
    6950:	0f b7 00             	movzwl (%eax),%eax
    6953:	83 e8 1d             	sub    $0x1d,%eax
    6956:	66 83 f8 01          	cmp    $0x1,%ax
    695a:	77 05                	ja     6961 <scheme_eval+0x31>
    695c:	8b 42 04             	mov    0x4(%edx),%eax
    695f:	eb 2f                	jmp    6990 <scheme_eval+0x60>
    6961:	b8 b0 ff ff ff       	mov    $0xffffffb0,%eax
    6966:	f6 c2 01             	test   $0x1,%dl
    6969:	75 0a                	jne    6975 <scheme_eval+0x45>
    696b:	0f bf 02             	movswl (%edx),%eax
    696e:	8d 04 85 90 ff ff ff 	lea    0xffffff90(,%eax,4),%eax
    6975:	8b 88 e0 93 00 00    	mov    0x93e0(%eax),%ecx
    697b:	b8 00 cd 12 00       	mov    $0x12cd00,%eax
    6980:	85 c9                	test   %ecx,%ecx
    6982:	74 0c                	je     6990 <scheme_eval+0x60>
    6984:	8b 45 0c             	mov    0xc(%ebp),%eax
    6987:	89 44 24 04          	mov    %eax,0x4(%esp)
    698b:	89 14 24             	mov    %edx,(%esp)
    698e:	ff d1                	call   *%ecx
    6990:	c9                   	leave  
    6991:	c3                   	ret    

00006992 <scheme_eval_sequence>:
    6992:	55                   	push   %ebp
    6993:	89 e5                	mov    %esp,%ebp
    6995:	57                   	push   %edi
    6996:	56                   	push   %esi
    6997:	53                   	push   %ebx
    6998:	83 ec 0c             	sub    $0xc,%esp
    699b:	8b 5d 08             	mov    0x8(%ebp),%ebx
    699e:	8b 7d 0c             	mov    0xc(%ebp),%edi
    69a1:	b8 10 cd 12 00       	mov    $0x12cd10,%eax
    69a6:	39 c3                	cmp    %eax,%ebx
    69a8:	0f 84 bc 00 00 00    	je     6a6a <scheme_eval_sequence+0xd8>
    69ae:	81 7b 08 10 cd 12 00 	cmpl   $0x12cd10,0x8(%ebx)
    69b5:	74 5a                	je     6a11 <scheme_eval_sequence+0x7f>
    69b7:	89 fe                	mov    %edi,%esi
    69b9:	8b 53 04             	mov    0x4(%ebx),%edx
    69bc:	81 fa 10 cd 12 00    	cmp    $0x12cd10,%edx
    69c2:	74 41                	je     6a05 <scheme_eval_sequence+0x73>
    69c4:	89 14 24             	mov    %edx,(%esp)
    69c7:	e8 a6 00 00 00       	call   6a72 <_analyze>
    69cc:	89 c2                	mov    %eax,%edx
    69ce:	a8 01                	test   $0x1,%al
    69d0:	75 0c                	jne    69de <scheme_eval_sequence+0x4c>
    69d2:	0f b7 00             	movzwl (%eax),%eax
    69d5:	83 e8 1d             	sub    $0x1d,%eax
    69d8:	66 83 f8 01          	cmp    $0x1,%ax
    69dc:	76 27                	jbe    6a05 <scheme_eval_sequence+0x73>
    69de:	b8 b0 ff ff ff       	mov    $0xffffffb0,%eax
    69e3:	f6 c2 01             	test   $0x1,%dl
    69e6:	75 0a                	jne    69f2 <scheme_eval_sequence+0x60>
    69e8:	0f bf 02             	movswl (%edx),%eax
    69eb:	8d 04 85 90 ff ff ff 	lea    0xffffff90(,%eax,4),%eax
    69f2:	8b 80 e0 93 00 00    	mov    0x93e0(%eax),%eax
    69f8:	85 c0                	test   %eax,%eax
    69fa:	74 09                	je     6a05 <scheme_eval_sequence+0x73>
    69fc:	89 74 24 04          	mov    %esi,0x4(%esp)
    6a00:	89 14 24             	mov    %edx,(%esp)
    6a03:	ff d0                	call   *%eax
    6a05:	8b 5b 08             	mov    0x8(%ebx),%ebx
    6a08:	81 7b 08 10 cd 12 00 	cmpl   $0x12cd10,0x8(%ebx)
    6a0f:	75 a8                	jne    69b9 <scheme_eval_sequence+0x27>
    6a11:	8b 53 04             	mov    0x4(%ebx),%edx
    6a14:	89 fb                	mov    %edi,%ebx
    6a16:	b8 10 cd 12 00       	mov    $0x12cd10,%eax
    6a1b:	39 c2                	cmp    %eax,%edx
    6a1d:	74 4b                	je     6a6a <scheme_eval_sequence+0xd8>
    6a1f:	89 14 24             	mov    %edx,(%esp)
    6a22:	e8 4b 00 00 00       	call   6a72 <_analyze>
    6a27:	89 c2                	mov    %eax,%edx
    6a29:	a8 01                	test   $0x1,%al
    6a2b:	75 11                	jne    6a3e <scheme_eval_sequence+0xac>
    6a2d:	0f b7 00             	movzwl (%eax),%eax
    6a30:	83 e8 1d             	sub    $0x1d,%eax
    6a33:	66 83 f8 01          	cmp    $0x1,%ax
    6a37:	77 05                	ja     6a3e <scheme_eval_sequence+0xac>
    6a39:	8b 42 04             	mov    0x4(%edx),%eax
    6a3c:	eb 2c                	jmp    6a6a <scheme_eval_sequence+0xd8>
    6a3e:	b8 b0 ff ff ff       	mov    $0xffffffb0,%eax
    6a43:	f6 c2 01             	test   $0x1,%dl
    6a46:	75 0a                	jne    6a52 <scheme_eval_sequence+0xc0>
    6a48:	0f bf 02             	movswl (%edx),%eax
    6a4b:	8d 04 85 90 ff ff ff 	lea    0xffffff90(,%eax,4),%eax
    6a52:	8b 88 e0 93 00 00    	mov    0x93e0(%eax),%ecx
    6a58:	b8 00 cd 12 00       	mov    $0x12cd00,%eax
    6a5d:	85 c9                	test   %ecx,%ecx
    6a5f:	74 09                	je     6a6a <scheme_eval_sequence+0xd8>
    6a61:	89 5c 24 04          	mov    %ebx,0x4(%esp)
    6a65:	89 14 24             	mov    %edx,(%esp)
    6a68:	ff d1                	call   *%ecx
    6a6a:	83 c4 0c             	add    $0xc,%esp
    6a6d:	5b                   	pop    %ebx
    6a6e:	5e                   	pop    %esi
    6a6f:	5f                   	pop    %edi
    6a70:	5d                   	pop    %ebp
    6a71:	c3                   	ret    

00006a72 <_analyze>:
    6a72:	55                   	push   %ebp
    6a73:	89 e5                	mov    %esp,%ebp
    6a75:	53                   	push   %ebx
    6a76:	83 ec 04             	sub    $0x4,%esp
    6a79:	8b 5d 08             	mov    0x8(%ebp),%ebx
    6a7c:	ba 00 cd 12 00       	mov    $0x12cd00,%edx
    6a81:	f6 c3 01             	test   $0x1,%bl
    6a84:	75 0c                	jne    6a92 <_analyze+0x20>
    6a86:	89 d8                	mov    %ebx,%eax
    6a88:	66 83 3b 1c          	cmpw   $0x1c,(%ebx)
    6a8c:	0f 8f ad 00 00 00    	jg     6b3f <_analyze+0xcd>
    6a92:	b9 08 00 00 00       	mov    $0x8,%ecx
    6a97:	f6 c3 01             	test   $0x1,%bl
    6a9a:	75 03                	jne    6a9f <_analyze+0x2d>
    6a9c:	0f bf 0b             	movswl (%ebx),%ecx
    6a9f:	83 f9 19             	cmp    $0x19,%ecx
    6aa2:	0f 87 90 00 00 00    	ja     6b38 <_analyze+0xc6>
    6aa8:	b8 01 00 00 00       	mov    $0x1,%eax
    6aad:	d3 e0                	shl    %cl,%eax
    6aaf:	a9 00 ff 2a 02       	test   $0x22aff00,%eax
    6ab4:	75 10                	jne    6ac6 <_analyze+0x54>
    6ab6:	a9 00 00 04 00       	test   $0x40000,%eax
    6abb:	75 21                	jne    6ade <_analyze+0x6c>
    6abd:	a9 00 00 10 00       	test   $0x100000,%eax
    6ac2:	75 32                	jne    6af6 <_analyze+0x84>
    6ac4:	eb 72                	jmp    6b38 <_analyze+0xc6>
    6ac6:	c7 04 24 10 00 00 00 	movl   $0x10,(%esp)
    6acd:	e8 83 12 00 00       	call   7d55 <kmalloc>
    6ad2:	89 c2                	mov    %eax,%edx
    6ad4:	66 c7 00 1d 00       	movw   $0x1d,(%eax)
    6ad9:	89 58 04             	mov    %ebx,0x4(%eax)
    6adc:	eb 5f                	jmp    6b3d <_analyze+0xcb>
    6ade:	c7 04 24 10 00 00 00 	movl   $0x10,(%esp)
    6ae5:	e8 6b 12 00 00       	call   7d55 <kmalloc>
    6aea:	89 c2                	mov    %eax,%edx
    6aec:	66 c7 00 1f 00       	movw   $0x1f,(%eax)
    6af1:	89 58 04             	mov    %ebx,0x4(%eax)
    6af4:	eb 47                	jmp    6b3d <_analyze+0xcb>
    6af6:	8b 43 04             	mov    0x4(%ebx),%eax
    6af9:	b9 08 00 00 00       	mov    $0x8,%ecx
    6afe:	a8 01                	test   $0x1,%al
    6b00:	75 03                	jne    6b05 <_analyze+0x93>
    6b02:	0f bf 08             	movswl (%eax),%ecx
    6b05:	83 f9 12             	cmp    $0x12,%ecx
    6b08:	74 07                	je     6b11 <_analyze+0x9f>
    6b0a:	83 f9 14             	cmp    $0x14,%ecx
    6b0d:	74 1d                	je     6b2c <_analyze+0xba>
    6b0f:	eb 2c                	jmp    6b3d <_analyze+0xcb>
    6b11:	8b 43 04             	mov    0x4(%ebx),%eax
    6b14:	8b 40 04             	mov    0x4(%eax),%eax
    6b17:	89 04 24             	mov    %eax,(%esp)
    6b1a:	e8 ac 0f 00 00       	call   7acb <_find_keyword>
    6b1f:	85 c0                	test   %eax,%eax
    6b21:	74 09                	je     6b2c <_analyze+0xba>
    6b23:	89 1c 24             	mov    %ebx,(%esp)
    6b26:	ff d0                	call   *%eax
    6b28:	89 c2                	mov    %eax,%edx
    6b2a:	eb 11                	jmp    6b3d <_analyze+0xcb>
    6b2c:	89 1c 24             	mov    %ebx,(%esp)
    6b2f:	e8 93 06 00 00       	call   71c7 <_analyze_application>
    6b34:	89 c2                	mov    %eax,%edx
    6b36:	eb 05                	jmp    6b3d <_analyze+0xcb>
    6b38:	ba 00 cd 12 00       	mov    $0x12cd00,%edx
    6b3d:	89 d0                	mov    %edx,%eax
    6b3f:	83 c4 04             	add    $0x4,%esp
    6b42:	5b                   	pop    %ebx
    6b43:	5d                   	pop    %ebp
    6b44:	c3                   	ret    

00006b45 <eval>:
    6b45:	55                   	push   %ebp
    6b46:	89 e5                	mov    %esp,%ebp
    6b48:	53                   	push   %ebx
    6b49:	83 ec 14             	sub    $0x14,%esp
    6b4c:	8b 45 0c             	mov    0xc(%ebp),%eax
    6b4f:	8b 10                	mov    (%eax),%edx
    6b51:	8b 58 04             	mov    0x4(%eax),%ebx
    6b54:	b8 10 cd 12 00       	mov    $0x12cd10,%eax
    6b59:	39 c2                	cmp    %eax,%edx
    6b5b:	74 4b                	je     6ba8 <eval+0x63>
    6b5d:	89 14 24             	mov    %edx,(%esp)
    6b60:	e8 0d ff ff ff       	call   6a72 <_analyze>
    6b65:	89 c2                	mov    %eax,%edx
    6b67:	a8 01                	test   $0x1,%al
    6b69:	75 11                	jne    6b7c <eval+0x37>
    6b6b:	0f b7 00             	movzwl (%eax),%eax
    6b6e:	83 e8 1d             	sub    $0x1d,%eax
    6b71:	66 83 f8 01          	cmp    $0x1,%ax
    6b75:	77 05                	ja     6b7c <eval+0x37>
    6b77:	8b 42 04             	mov    0x4(%edx),%eax
    6b7a:	eb 2c                	jmp    6ba8 <eval+0x63>
    6b7c:	b8 b0 ff ff ff       	mov    $0xffffffb0,%eax
    6b81:	f6 c2 01             	test   $0x1,%dl
    6b84:	75 0a                	jne    6b90 <eval+0x4b>
    6b86:	0f bf 02             	movswl (%edx),%eax
    6b89:	8d 04 85 90 ff ff ff 	lea    0xffffff90(,%eax,4),%eax
    6b90:	8b 88 e0 93 00 00    	mov    0x93e0(%eax),%ecx
    6b96:	b8 00 cd 12 00       	mov    $0x12cd00,%eax
    6b9b:	85 c9                	test   %ecx,%ecx
    6b9d:	74 09                	je     6ba8 <eval+0x63>
    6b9f:	89 5c 24 04          	mov    %ebx,0x4(%esp)
    6ba3:	89 14 24             	mov    %edx,(%esp)
    6ba6:	ff d1                	call   *%ecx
    6ba8:	83 c4 14             	add    $0x14,%esp
    6bab:	5b                   	pop    %ebx
    6bac:	5d                   	pop    %ebp
    6bad:	c3                   	ret    

00006bae <_eval_variable>:
    6bae:	55                   	push   %ebp
    6baf:	89 e5                	mov    %esp,%ebp
    6bb1:	83 ec 08             	sub    $0x8,%esp
    6bb4:	8b 45 0c             	mov    0xc(%ebp),%eax
    6bb7:	89 44 24 04          	mov    %eax,0x4(%esp)
    6bbb:	8b 45 08             	mov    0x8(%ebp),%eax
    6bbe:	8b 40 04             	mov    0x4(%eax),%eax
    6bc1:	89 04 24             	mov    %eax,(%esp)
    6bc4:	e8 36 f7 ff ff       	call   62ff <scheme_lookup_var>
    6bc9:	c9                   	leave  
    6bca:	c3                   	ret    

00006bcb <_eval_assignment>:
    6bcb:	55                   	push   %ebp
    6bcc:	89 e5                	mov    %esp,%ebp
    6bce:	83 ec 18             	sub    $0x18,%esp
    6bd1:	89 5d f4             	mov    %ebx,0xfffffff4(%ebp)
    6bd4:	89 75 f8             	mov    %esi,0xfffffff8(%ebp)
    6bd7:	89 7d fc             	mov    %edi,0xfffffffc(%ebp)
    6bda:	8b 7d 08             	mov    0x8(%ebp),%edi
    6bdd:	8b 75 0c             	mov    0xc(%ebp),%esi
    6be0:	8b 57 08             	mov    0x8(%edi),%edx
    6be3:	89 f3                	mov    %esi,%ebx
    6be5:	b8 10 cd 12 00       	mov    $0x12cd10,%eax
    6bea:	39 c2                	cmp    %eax,%edx
    6bec:	74 4b                	je     6c39 <_eval_assignment+0x6e>
    6bee:	89 14 24             	mov    %edx,(%esp)
    6bf1:	e8 7c fe ff ff       	call   6a72 <_analyze>
    6bf6:	89 c2                	mov    %eax,%edx
    6bf8:	a8 01                	test   $0x1,%al
    6bfa:	75 11                	jne    6c0d <_eval_assignment+0x42>
    6bfc:	0f b7 00             	movzwl (%eax),%eax
    6bff:	83 e8 1d             	sub    $0x1d,%eax
    6c02:	66 83 f8 01          	cmp    $0x1,%ax
    6c06:	77 05                	ja     6c0d <_eval_assignment+0x42>
    6c08:	8b 42 04             	mov    0x4(%edx),%eax
    6c0b:	eb 2c                	jmp    6c39 <_eval_assignment+0x6e>
    6c0d:	b8 b0 ff ff ff       	mov    $0xffffffb0,%eax
    6c12:	f6 c2 01             	test   $0x1,%dl
    6c15:	75 0a                	jne    6c21 <_eval_assignment+0x56>
    6c17:	0f bf 02             	movswl (%edx),%eax
    6c1a:	8d 04 85 90 ff ff ff 	lea    0xffffff90(,%eax,4),%eax
    6c21:	8b 88 e0 93 00 00    	mov    0x93e0(%eax),%ecx
    6c27:	b8 00 cd 12 00       	mov    $0x12cd00,%eax
    6c2c:	85 c9                	test   %ecx,%ecx
    6c2e:	74 09                	je     6c39 <_eval_assignment+0x6e>
    6c30:	89 5c 24 04          	mov    %ebx,0x4(%esp)
    6c34:	89 14 24             	mov    %edx,(%esp)
    6c37:	ff d1                	call   *%ecx
    6c39:	89 74 24 08          	mov    %esi,0x8(%esp)
    6c3d:	89 44 24 04          	mov    %eax,0x4(%esp)
    6c41:	8b 47 04             	mov    0x4(%edi),%eax
    6c44:	89 04 24             	mov    %eax,(%esp)
    6c47:	e8 e4 f8 ff ff       	call   6530 <scheme_set_var>
    6c4c:	8b 5d f4             	mov    0xfffffff4(%ebp),%ebx
    6c4f:	8b 75 f8             	mov    0xfffffff8(%ebp),%esi
    6c52:	8b 7d fc             	mov    0xfffffffc(%ebp),%edi
    6c55:	89 ec                	mov    %ebp,%esp
    6c57:	5d                   	pop    %ebp
    6c58:	c3                   	ret    

00006c59 <_eval_defvar>:
    6c59:	55                   	push   %ebp
    6c5a:	89 e5                	mov    %esp,%ebp
    6c5c:	83 ec 18             	sub    $0x18,%esp
    6c5f:	89 5d f4             	mov    %ebx,0xfffffff4(%ebp)
    6c62:	89 75 f8             	mov    %esi,0xfffffff8(%ebp)
    6c65:	89 7d fc             	mov    %edi,0xfffffffc(%ebp)
    6c68:	8b 7d 08             	mov    0x8(%ebp),%edi
    6c6b:	8b 75 0c             	mov    0xc(%ebp),%esi
    6c6e:	8b 57 08             	mov    0x8(%edi),%edx
    6c71:	89 f3                	mov    %esi,%ebx
    6c73:	b8 10 cd 12 00       	mov    $0x12cd10,%eax
    6c78:	39 c2                	cmp    %eax,%edx
    6c7a:	74 4b                	je     6cc7 <_eval_defvar+0x6e>
    6c7c:	89 14 24             	mov    %edx,(%esp)
    6c7f:	e8 ee fd ff ff       	call   6a72 <_analyze>
    6c84:	89 c2                	mov    %eax,%edx
    6c86:	a8 01                	test   $0x1,%al
    6c88:	75 11                	jne    6c9b <_eval_defvar+0x42>
    6c8a:	0f b7 00             	movzwl (%eax),%eax
    6c8d:	83 e8 1d             	sub    $0x1d,%eax
    6c90:	66 83 f8 01          	cmp    $0x1,%ax
    6c94:	77 05                	ja     6c9b <_eval_defvar+0x42>
    6c96:	8b 42 04             	mov    0x4(%edx),%eax
    6c99:	eb 2c                	jmp    6cc7 <_eval_defvar+0x6e>
    6c9b:	b8 b0 ff ff ff       	mov    $0xffffffb0,%eax
    6ca0:	f6 c2 01             	test   $0x1,%dl
    6ca3:	75 0a                	jne    6caf <_eval_defvar+0x56>
    6ca5:	0f bf 02             	movswl (%edx),%eax
    6ca8:	8d 04 85 90 ff ff ff 	lea    0xffffff90(,%eax,4),%eax
    6caf:	8b 88 e0 93 00 00    	mov    0x93e0(%eax),%ecx
    6cb5:	b8 00 cd 12 00       	mov    $0x12cd00,%eax
    6cba:	85 c9                	test   %ecx,%ecx
    6cbc:	74 09                	je     6cc7 <_eval_defvar+0x6e>
    6cbe:	89 5c 24 04          	mov    %ebx,0x4(%esp)
    6cc2:	89 14 24             	mov    %edx,(%esp)
    6cc5:	ff d1                	call   *%ecx
    6cc7:	89 74 24 08          	mov    %esi,0x8(%esp)
    6ccb:	89 44 24 04          	mov    %eax,0x4(%esp)
    6ccf:	8b 47 04             	mov    0x4(%edi),%eax
    6cd2:	89 04 24             	mov    %eax,(%esp)
    6cd5:	e8 a3 f7 ff ff       	call   647d <scheme_define_var>
    6cda:	8b 5d f4             	mov    0xfffffff4(%ebp),%ebx
    6cdd:	8b 75 f8             	mov    0xfffffff8(%ebp),%esi
    6ce0:	8b 7d fc             	mov    0xfffffffc(%ebp),%edi
    6ce3:	89 ec                	mov    %ebp,%esp
    6ce5:	5d                   	pop    %ebp
    6ce6:	c3                   	ret    

00006ce7 <_eval_defun>:
    6ce7:	55                   	push   %ebp
    6ce8:	89 e5                	mov    %esp,%ebp
    6cea:	83 ec 18             	sub    $0x18,%esp
    6ced:	89 5d f8             	mov    %ebx,0xfffffff8(%ebp)
    6cf0:	89 75 fc             	mov    %esi,0xfffffffc(%ebp)
    6cf3:	8b 75 08             	mov    0x8(%ebp),%esi
    6cf6:	8b 5d 0c             	mov    0xc(%ebp),%ebx
    6cf9:	8b 46 08             	mov    0x8(%esi),%eax
    6cfc:	8b 50 04             	mov    0x4(%eax),%edx
    6cff:	8b 40 08             	mov    0x8(%eax),%eax
    6d02:	89 5c 24 08          	mov    %ebx,0x8(%esp)
    6d06:	89 44 24 04          	mov    %eax,0x4(%esp)
    6d0a:	89 14 24             	mov    %edx,(%esp)
    6d0d:	e8 7e fb ff ff       	call   6890 <scheme_make_procedure>
    6d12:	89 5c 24 08          	mov    %ebx,0x8(%esp)
    6d16:	89 44 24 04          	mov    %eax,0x4(%esp)
    6d1a:	8b 46 04             	mov    0x4(%esi),%eax
    6d1d:	89 04 24             	mov    %eax,(%esp)
    6d20:	e8 58 f7 ff ff       	call   647d <scheme_define_var>
    6d25:	8b 5d f8             	mov    0xfffffff8(%ebp),%ebx
    6d28:	8b 75 fc             	mov    0xfffffffc(%ebp),%esi
    6d2b:	89 ec                	mov    %ebp,%esp
    6d2d:	5d                   	pop    %ebp
    6d2e:	c3                   	ret    

00006d2f <_eval_if>:
    6d2f:	55                   	push   %ebp
    6d30:	89 e5                	mov    %esp,%ebp
    6d32:	57                   	push   %edi
    6d33:	56                   	push   %esi
    6d34:	53                   	push   %ebx
    6d35:	83 ec 0c             	sub    $0xc,%esp
    6d38:	8b 55 08             	mov    0x8(%ebp),%edx
    6d3b:	8b 5d 0c             	mov    0xc(%ebp),%ebx
    6d3e:	8b 42 08             	mov    0x8(%edx),%eax
    6d41:	8b 78 04             	mov    0x4(%eax),%edi
    6d44:	8b 40 08             	mov    0x8(%eax),%eax
    6d47:	89 45 f0             	mov    %eax,0xfffffff0(%ebp)
    6d4a:	8b 52 04             	mov    0x4(%edx),%edx
    6d4d:	89 de                	mov    %ebx,%esi
    6d4f:	b8 10 cd 12 00       	mov    $0x12cd10,%eax
    6d54:	39 c2                	cmp    %eax,%edx
    6d56:	74 4b                	je     6da3 <_eval_if+0x74>
    6d58:	89 14 24             	mov    %edx,(%esp)
    6d5b:	e8 12 fd ff ff       	call   6a72 <_analyze>
    6d60:	89 c2                	mov    %eax,%edx
    6d62:	a8 01                	test   $0x1,%al
    6d64:	75 11                	jne    6d77 <_eval_if+0x48>
    6d66:	0f b7 00             	movzwl (%eax),%eax
    6d69:	83 e8 1d             	sub    $0x1d,%eax
    6d6c:	66 83 f8 01          	cmp    $0x1,%ax
    6d70:	77 05                	ja     6d77 <_eval_if+0x48>
    6d72:	8b 42 04             	mov    0x4(%edx),%eax
    6d75:	eb 2c                	jmp    6da3 <_eval_if+0x74>
    6d77:	b8 b0 ff ff ff       	mov    $0xffffffb0,%eax
    6d7c:	f6 c2 01             	test   $0x1,%dl
    6d7f:	75 0a                	jne    6d8b <_eval_if+0x5c>
    6d81:	0f bf 02             	movswl (%edx),%eax
    6d84:	8d 04 85 90 ff ff ff 	lea    0xffffff90(,%eax,4),%eax
    6d8b:	8b 88 e0 93 00 00    	mov    0x93e0(%eax),%ecx
    6d91:	b8 00 cd 12 00       	mov    $0x12cd00,%eax
    6d96:	85 c9                	test   %ecx,%ecx
    6d98:	74 09                	je     6da3 <_eval_if+0x74>
    6d9a:	89 74 24 04          	mov    %esi,0x4(%esp)
    6d9e:	89 14 24             	mov    %edx,(%esp)
    6da1:	ff d1                	call   *%ecx
    6da3:	3d 40 cd 12 00       	cmp    $0x12cd40,%eax
    6da8:	74 5d                	je     6e07 <_eval_if+0xd8>
    6daa:	b8 10 cd 12 00       	mov    $0x12cd10,%eax
    6daf:	39 c7                	cmp    %eax,%edi
    6db1:	0f 84 a7 00 00 00    	je     6e5e <_eval_if+0x12f>
    6db7:	89 3c 24             	mov    %edi,(%esp)
    6dba:	e8 b3 fc ff ff       	call   6a72 <_analyze>
    6dbf:	89 c2                	mov    %eax,%edx
    6dc1:	a8 01                	test   $0x1,%al
    6dc3:	75 14                	jne    6dd9 <_eval_if+0xaa>
    6dc5:	0f b7 00             	movzwl (%eax),%eax
    6dc8:	83 e8 1d             	sub    $0x1d,%eax
    6dcb:	66 83 f8 01          	cmp    $0x1,%ax
    6dcf:	77 08                	ja     6dd9 <_eval_if+0xaa>
    6dd1:	8b 42 04             	mov    0x4(%edx),%eax
    6dd4:	e9 85 00 00 00       	jmp    6e5e <_eval_if+0x12f>
    6dd9:	b8 b0 ff ff ff       	mov    $0xffffffb0,%eax
    6dde:	f6 c2 01             	test   $0x1,%dl
    6de1:	75 0a                	jne    6ded <_eval_if+0xbe>
    6de3:	0f bf 02             	movswl (%edx),%eax
    6de6:	8d 04 85 90 ff ff ff 	lea    0xffffff90(,%eax,4),%eax
    6ded:	8b 88 e0 93 00 00    	mov    0x93e0(%eax),%ecx
    6df3:	b8 00 cd 12 00       	mov    $0x12cd00,%eax
    6df8:	85 c9                	test   %ecx,%ecx
    6dfa:	74 62                	je     6e5e <_eval_if+0x12f>
    6dfc:	89 5c 24 04          	mov    %ebx,0x4(%esp)
    6e00:	89 14 24             	mov    %edx,(%esp)
    6e03:	ff d1                	call   *%ecx
    6e05:	eb 57                	jmp    6e5e <_eval_if+0x12f>
    6e07:	8b 55 f0             	mov    0xfffffff0(%ebp),%edx
    6e0a:	b8 10 cd 12 00       	mov    $0x12cd10,%eax
    6e0f:	39 c2                	cmp    %eax,%edx
    6e11:	74 4b                	je     6e5e <_eval_if+0x12f>
    6e13:	89 14 24             	mov    %edx,(%esp)
    6e16:	e8 57 fc ff ff       	call   6a72 <_analyze>
    6e1b:	89 c2                	mov    %eax,%edx
    6e1d:	a8 01                	test   $0x1,%al
    6e1f:	75 11                	jne    6e32 <_eval_if+0x103>
    6e21:	0f b7 00             	movzwl (%eax),%eax
    6e24:	83 e8 1d             	sub    $0x1d,%eax
    6e27:	66 83 f8 01          	cmp    $0x1,%ax
    6e2b:	77 05                	ja     6e32 <_eval_if+0x103>
    6e2d:	8b 42 04             	mov    0x4(%edx),%eax
    6e30:	eb 2c                	jmp    6e5e <_eval_if+0x12f>
    6e32:	b8 b0 ff ff ff       	mov    $0xffffffb0,%eax
    6e37:	f6 c2 01             	test   $0x1,%dl
    6e3a:	75 0a                	jne    6e46 <_eval_if+0x117>
    6e3c:	0f bf 02             	movswl (%edx),%eax
    6e3f:	8d 04 85 90 ff ff ff 	lea    0xffffff90(,%eax,4),%eax
    6e46:	8b 88 e0 93 00 00    	mov    0x93e0(%eax),%ecx
    6e4c:	b8 00 cd 12 00       	mov    $0x12cd00,%eax
    6e51:	85 c9                	test   %ecx,%ecx
    6e53:	74 09                	je     6e5e <_eval_if+0x12f>
    6e55:	89 5c 24 04          	mov    %ebx,0x4(%esp)
    6e59:	89 14 24             	mov    %edx,(%esp)
    6e5c:	ff d1                	call   *%ecx
    6e5e:	83 c4 0c             	add    $0xc,%esp
    6e61:	5b                   	pop    %ebx
    6e62:	5e                   	pop    %esi
    6e63:	5f                   	pop    %edi
    6e64:	5d                   	pop    %ebp
    6e65:	c3                   	ret    

00006e66 <_eval_lambda>:
    6e66:	55                   	push   %ebp
    6e67:	89 e5                	mov    %esp,%ebp
    6e69:	83 ec 18             	sub    $0x18,%esp
    6e6c:	8b 55 08             	mov    0x8(%ebp),%edx
    6e6f:	8b 45 0c             	mov    0xc(%ebp),%eax
    6e72:	89 44 24 08          	mov    %eax,0x8(%esp)
    6e76:	8b 42 08             	mov    0x8(%edx),%eax
    6e79:	89 44 24 04          	mov    %eax,0x4(%esp)
    6e7d:	8b 42 04             	mov    0x4(%edx),%eax
    6e80:	89 04 24             	mov    %eax,(%esp)
    6e83:	e8 08 fa ff ff       	call   6890 <scheme_make_procedure>
    6e88:	c9                   	leave  
    6e89:	c3                   	ret    

00006e8a <_eval_cond>:
    6e8a:	55                   	push   %ebp
    6e8b:	89 e5                	mov    %esp,%ebp
    6e8d:	57                   	push   %edi
    6e8e:	56                   	push   %esi
    6e8f:	53                   	push   %ebx
    6e90:	83 ec 0c             	sub    $0xc,%esp
    6e93:	8b 5d 08             	mov    0x8(%ebp),%ebx
    6e96:	81 fb 10 cd 12 00    	cmp    $0x12cd10,%ebx
    6e9c:	0f 84 90 00 00 00    	je     6f32 <_eval_cond+0xa8>
    6ea2:	8b 73 04             	mov    0x4(%ebx),%esi
    6ea5:	81 7e 04 54 cd 12 00 	cmpl   $0x12cd54,0x4(%esi)
    6eac:	74 61                	je     6f0f <_eval_cond+0x85>
    6eae:	8b 56 04             	mov    0x4(%esi),%edx
    6eb1:	8b 7d 0c             	mov    0xc(%ebp),%edi
    6eb4:	b8 10 cd 12 00       	mov    $0x12cd10,%eax
    6eb9:	39 c2                	cmp    %eax,%edx
    6ebb:	74 4b                	je     6f08 <_eval_cond+0x7e>
    6ebd:	89 14 24             	mov    %edx,(%esp)
    6ec0:	e8 ad fb ff ff       	call   6a72 <_analyze>
    6ec5:	89 c2                	mov    %eax,%edx
    6ec7:	a8 01                	test   $0x1,%al
    6ec9:	75 11                	jne    6edc <_eval_cond+0x52>
    6ecb:	0f b7 00             	movzwl (%eax),%eax
    6ece:	83 e8 1d             	sub    $0x1d,%eax
    6ed1:	66 83 f8 01          	cmp    $0x1,%ax
    6ed5:	77 05                	ja     6edc <_eval_cond+0x52>
    6ed7:	8b 42 04             	mov    0x4(%edx),%eax
    6eda:	eb 2c                	jmp    6f08 <_eval_cond+0x7e>
    6edc:	b8 b0 ff ff ff       	mov    $0xffffffb0,%eax
    6ee1:	f6 c2 01             	test   $0x1,%dl
    6ee4:	75 0a                	jne    6ef0 <_eval_cond+0x66>
    6ee6:	0f bf 02             	movswl (%edx),%eax
    6ee9:	8d 04 85 90 ff ff ff 	lea    0xffffff90(,%eax,4),%eax
    6ef0:	8b 88 e0 93 00 00    	mov    0x93e0(%eax),%ecx
    6ef6:	b8 00 cd 12 00       	mov    $0x12cd00,%eax
    6efb:	85 c9                	test   %ecx,%ecx
    6efd:	74 09                	je     6f08 <_eval_cond+0x7e>
    6eff:	89 7c 24 04          	mov    %edi,0x4(%esp)
    6f03:	89 14 24             	mov    %edx,(%esp)
    6f06:	ff d1                	call   *%ecx
    6f08:	3d 40 cd 12 00       	cmp    $0x12cd40,%eax
    6f0d:	74 14                	je     6f23 <_eval_cond+0x99>
    6f0f:	8b 45 0c             	mov    0xc(%ebp),%eax
    6f12:	89 44 24 04          	mov    %eax,0x4(%esp)
    6f16:	8b 46 08             	mov    0x8(%esi),%eax
    6f19:	89 04 24             	mov    %eax,(%esp)
    6f1c:	e8 71 fa ff ff       	call   6992 <scheme_eval_sequence>
    6f21:	eb 14                	jmp    6f37 <_eval_cond+0xad>
    6f23:	8b 5b 08             	mov    0x8(%ebx),%ebx
    6f26:	81 fb 10 cd 12 00    	cmp    $0x12cd10,%ebx
    6f2c:	0f 85 70 ff ff ff    	jne    6ea2 <_eval_cond+0x18>
    6f32:	b8 00 cd 12 00       	mov    $0x12cd00,%eax
    6f37:	83 c4 0c             	add    $0xc,%esp
    6f3a:	5b                   	pop    %ebx
    6f3b:	5e                   	pop    %esi
    6f3c:	5f                   	pop    %edi
    6f3d:	5d                   	pop    %ebp
    6f3e:	c3                   	ret    

00006f3f <_eval_application>:
    6f3f:	55                   	push   %ebp
    6f40:	89 e5                	mov    %esp,%ebp
    6f42:	83 ec 18             	sub    $0x18,%esp
    6f45:	89 5d f4             	mov    %ebx,0xfffffff4(%ebp)
    6f48:	89 75 f8             	mov    %esi,0xfffffff8(%ebp)
    6f4b:	89 7d fc             	mov    %edi,0xfffffffc(%ebp)
    6f4e:	8b 7d 08             	mov    0x8(%ebp),%edi
    6f51:	8b 75 0c             	mov    0xc(%ebp),%esi
    6f54:	8b 57 04             	mov    0x4(%edi),%edx
    6f57:	89 f3                	mov    %esi,%ebx
    6f59:	b8 10 cd 12 00       	mov    $0x12cd10,%eax
    6f5e:	39 c2                	cmp    %eax,%edx
    6f60:	74 4b                	je     6fad <_eval_application+0x6e>
    6f62:	89 14 24             	mov    %edx,(%esp)
    6f65:	e8 08 fb ff ff       	call   6a72 <_analyze>
    6f6a:	89 c2                	mov    %eax,%edx
    6f6c:	a8 01                	test   $0x1,%al
    6f6e:	75 11                	jne    6f81 <_eval_application+0x42>
    6f70:	0f b7 00             	movzwl (%eax),%eax
    6f73:	83 e8 1d             	sub    $0x1d,%eax
    6f76:	66 83 f8 01          	cmp    $0x1,%ax
    6f7a:	77 05                	ja     6f81 <_eval_application+0x42>
    6f7c:	8b 42 04             	mov    0x4(%edx),%eax
    6f7f:	eb 2c                	jmp    6fad <_eval_application+0x6e>
    6f81:	b8 b0 ff ff ff       	mov    $0xffffffb0,%eax
    6f86:	f6 c2 01             	test   $0x1,%dl
    6f89:	75 0a                	jne    6f95 <_eval_application+0x56>
    6f8b:	0f bf 02             	movswl (%edx),%eax
    6f8e:	8d 04 85 90 ff ff ff 	lea    0xffffff90(,%eax,4),%eax
    6f95:	8b 88 e0 93 00 00    	mov    0x93e0(%eax),%ecx
    6f9b:	b8 00 cd 12 00       	mov    $0x12cd00,%eax
    6fa0:	85 c9                	test   %ecx,%ecx
    6fa2:	74 09                	je     6fad <_eval_application+0x6e>
    6fa4:	89 5c 24 04          	mov    %ebx,0x4(%esp)
    6fa8:	89 14 24             	mov    %edx,(%esp)
    6fab:	ff d1                	call   *%ecx
    6fad:	89 c3                	mov    %eax,%ebx
    6faf:	3d 00 cd 12 00       	cmp    $0x12cd00,%eax
    6fb4:	75 13                	jne    6fc9 <_eval_application+0x8a>
    6fb6:	c7 04 24 fa 8d 00 00 	movl   $0x8dfa,(%esp)
    6fbd:	e8 92 10 00 00       	call   8054 <printf>
    6fc2:	b8 00 cd 12 00       	mov    $0x12cd00,%eax
    6fc7:	eb 1b                	jmp    6fe4 <_eval_application+0xa5>
    6fc9:	89 74 24 04          	mov    %esi,0x4(%esp)
    6fcd:	8b 47 08             	mov    0x8(%edi),%eax
    6fd0:	89 04 24             	mov    %eax,(%esp)
    6fd3:	e8 3d 01 00 00       	call   7115 <_eval_list>
    6fd8:	89 44 24 04          	mov    %eax,0x4(%esp)
    6fdc:	89 1c 24             	mov    %ebx,(%esp)
    6fdf:	e8 8e f7 ff ff       	call   6772 <scheme_apply>
    6fe4:	8b 5d f4             	mov    0xfffffff4(%ebp),%ebx
    6fe7:	8b 75 f8             	mov    0xfffffff8(%ebp),%esi
    6fea:	8b 7d fc             	mov    0xfffffffc(%ebp),%edi
    6fed:	89 ec                	mov    %ebp,%esp
    6fef:	5d                   	pop    %ebp
    6ff0:	c3                   	ret    

00006ff1 <_eval_and>:
    6ff1:	55                   	push   %ebp
    6ff2:	89 e5                	mov    %esp,%ebp
    6ff4:	56                   	push   %esi
    6ff5:	53                   	push   %ebx
    6ff6:	83 ec 10             	sub    $0x10,%esp
    6ff9:	8b 5d 08             	mov    0x8(%ebp),%ebx
    6ffc:	81 fb 10 cd 12 00    	cmp    $0x12cd10,%ebx
    7002:	74 73                	je     7077 <_eval_and+0x86>
    7004:	8b 75 0c             	mov    0xc(%ebp),%esi
    7007:	8b 53 04             	mov    0x4(%ebx),%edx
    700a:	b8 10 cd 12 00       	mov    $0x12cd10,%eax
    700f:	39 c2                	cmp    %eax,%edx
    7011:	74 4b                	je     705e <_eval_and+0x6d>
    7013:	89 14 24             	mov    %edx,(%esp)
    7016:	e8 57 fa ff ff       	call   6a72 <_analyze>
    701b:	89 c2                	mov    %eax,%edx
    701d:	a8 01                	test   $0x1,%al
    701f:	75 11                	jne    7032 <_eval_and+0x41>
    7021:	0f b7 00             	movzwl (%eax),%eax
    7024:	83 e8 1d             	sub    $0x1d,%eax
    7027:	66 83 f8 01          	cmp    $0x1,%ax
    702b:	77 05                	ja     7032 <_eval_and+0x41>
    702d:	8b 42 04             	mov    0x4(%edx),%eax
    7030:	eb 2c                	jmp    705e <_eval_and+0x6d>
    7032:	b8 b0 ff ff ff       	mov    $0xffffffb0,%eax
    7037:	f6 c2 01             	test   $0x1,%dl
    703a:	75 0a                	jne    7046 <_eval_and+0x55>
    703c:	0f bf 02             	movswl (%edx),%eax
    703f:	8d 04 85 90 ff ff ff 	lea    0xffffff90(,%eax,4),%eax
    7046:	8b 88 e0 93 00 00    	mov    0x93e0(%eax),%ecx
    704c:	b8 00 cd 12 00       	mov    $0x12cd00,%eax
    7051:	85 c9                	test   %ecx,%ecx
    7053:	74 09                	je     705e <_eval_and+0x6d>
    7055:	89 74 24 04          	mov    %esi,0x4(%esp)
    7059:	89 14 24             	mov    %edx,(%esp)
    705c:	ff d1                	call   *%ecx
    705e:	3d 40 cd 12 00       	cmp    $0x12cd40,%eax
    7063:	75 07                	jne    706c <_eval_and+0x7b>
    7065:	b8 40 cd 12 00       	mov    $0x12cd40,%eax
    706a:	eb 10                	jmp    707c <_eval_and+0x8b>
    706c:	8b 5b 08             	mov    0x8(%ebx),%ebx
    706f:	81 fb 10 cd 12 00    	cmp    $0x12cd10,%ebx
    7075:	75 90                	jne    7007 <_eval_and+0x16>
    7077:	b8 54 cd 12 00       	mov    $0x12cd54,%eax
    707c:	83 c4 10             	add    $0x10,%esp
    707f:	5b                   	pop    %ebx
    7080:	5e                   	pop    %esi
    7081:	5d                   	pop    %ebp
    7082:	c3                   	ret    

00007083 <_eval_or>:
    7083:	55                   	push   %ebp
    7084:	89 e5                	mov    %esp,%ebp
    7086:	56                   	push   %esi
    7087:	53                   	push   %ebx
    7088:	83 ec 10             	sub    $0x10,%esp
    708b:	8b 5d 08             	mov    0x8(%ebp),%ebx
    708e:	81 fb 10 cd 12 00    	cmp    $0x12cd10,%ebx
    7094:	74 73                	je     7109 <_eval_or+0x86>
    7096:	8b 75 0c             	mov    0xc(%ebp),%esi
    7099:	8b 53 04             	mov    0x4(%ebx),%edx
    709c:	b8 10 cd 12 00       	mov    $0x12cd10,%eax
    70a1:	39 c2                	cmp    %eax,%edx
    70a3:	74 4b                	je     70f0 <_eval_or+0x6d>
    70a5:	89 14 24             	mov    %edx,(%esp)
    70a8:	e8 c5 f9 ff ff       	call   6a72 <_analyze>
    70ad:	89 c2                	mov    %eax,%edx
    70af:	a8 01                	test   $0x1,%al
    70b1:	75 11                	jne    70c4 <_eval_or+0x41>
    70b3:	0f b7 00             	movzwl (%eax),%eax
    70b6:	83 e8 1d             	sub    $0x1d,%eax
    70b9:	66 83 f8 01          	cmp    $0x1,%ax
    70bd:	77 05                	ja     70c4 <_eval_or+0x41>
    70bf:	8b 42 04             	mov    0x4(%edx),%eax
    70c2:	eb 2c                	jmp    70f0 <_eval_or+0x6d>
    70c4:	b8 b0 ff ff ff       	mov    $0xffffffb0,%eax
    70c9:	f6 c2 01             	test   $0x1,%dl
    70cc:	75 0a                	jne    70d8 <_eval_or+0x55>
    70ce:	0f bf 02             	movswl (%edx),%eax
    70d1:	8d 04 85 90 ff ff ff 	lea    0xffffff90(,%eax,4),%eax
    70d8:	8b 88 e0 93 00 00    	mov    0x93e0(%eax),%ecx
    70de:	b8 00 cd 12 00       	mov    $0x12cd00,%eax
    70e3:	85 c9                	test   %ecx,%ecx
    70e5:	74 09                	je     70f0 <_eval_or+0x6d>
    70e7:	89 74 24 04          	mov    %esi,0x4(%esp)
    70eb:	89 14 24             	mov    %edx,(%esp)
    70ee:	ff d1                	call   *%ecx
    70f0:	3d 40 cd 12 00       	cmp    $0x12cd40,%eax
    70f5:	74 07                	je     70fe <_eval_or+0x7b>
    70f7:	b8 54 cd 12 00       	mov    $0x12cd54,%eax
    70fc:	eb 10                	jmp    710e <_eval_or+0x8b>
    70fe:	8b 5b 08             	mov    0x8(%ebx),%ebx
    7101:	81 fb 10 cd 12 00    	cmp    $0x12cd10,%ebx
    7107:	75 90                	jne    7099 <_eval_or+0x16>
    7109:	b8 40 cd 12 00       	mov    $0x12cd40,%eax
    710e:	83 c4 10             	add    $0x10,%esp
    7111:	5b                   	pop    %ebx
    7112:	5e                   	pop    %esi
    7113:	5d                   	pop    %ebp
    7114:	c3                   	ret    

00007115 <_eval_list>:
    7115:	55                   	push   %ebp
    7116:	89 e5                	mov    %esp,%ebp
    7118:	57                   	push   %edi
    7119:	56                   	push   %esi
    711a:	53                   	push   %ebx
    711b:	83 ec 0c             	sub    $0xc,%esp
    711e:	8b 5d 08             	mov    0x8(%ebp),%ebx
    7121:	be 10 cd 12 00       	mov    $0x12cd10,%esi
    7126:	89 75 f0             	mov    %esi,0xfffffff0(%ebp)
    7129:	39 f3                	cmp    %esi,%ebx
    712b:	0f 84 8b 00 00 00    	je     71bc <_eval_list+0xa7>
    7131:	8b 7d 0c             	mov    0xc(%ebp),%edi
    7134:	8b 53 04             	mov    0x4(%ebx),%edx
    7137:	b8 10 cd 12 00       	mov    $0x12cd10,%eax
    713c:	39 c2                	cmp    %eax,%edx
    713e:	74 4b                	je     718b <_eval_list+0x76>
    7140:	89 14 24             	mov    %edx,(%esp)
    7143:	e8 2a f9 ff ff       	call   6a72 <_analyze>
    7148:	89 c2                	mov    %eax,%edx
    714a:	a8 01                	test   $0x1,%al
    714c:	75 11                	jne    715f <_eval_list+0x4a>
    714e:	0f b7 00             	movzwl (%eax),%eax
    7151:	83 e8 1d             	sub    $0x1d,%eax
    7154:	66 83 f8 01          	cmp    $0x1,%ax
    7158:	77 05                	ja     715f <_eval_list+0x4a>
    715a:	8b 42 04             	mov    0x4(%edx),%eax
    715d:	eb 2c                	jmp    718b <_eval_list+0x76>
    715f:	b8 b0 ff ff ff       	mov    $0xffffffb0,%eax
    7164:	f6 c2 01             	test   $0x1,%dl
    7167:	75 0a                	jne    7173 <_eval_list+0x5e>
    7169:	0f bf 02             	movswl (%edx),%eax
    716c:	8d 04 85 90 ff ff ff 	lea    0xffffff90(,%eax,4),%eax
    7173:	8b 88 e0 93 00 00    	mov    0x93e0(%eax),%ecx
    7179:	b8 00 cd 12 00       	mov    $0x12cd00,%eax
    717e:	85 c9                	test   %ecx,%ecx
    7180:	74 09                	je     718b <_eval_list+0x76>
    7182:	89 7c 24 04          	mov    %edi,0x4(%esp)
    7186:	89 14 24             	mov    %edx,(%esp)
    7189:	ff d1                	call   *%ecx
    718b:	c7 44 24 04 10 cd 12 	movl   $0x12cd10,0x4(%esp)
    7192:	00 
    7193:	89 04 24             	mov    %eax,(%esp)
    7196:	e8 d2 cf ff ff       	call   416d <scheme_make_pair>
    719b:	81 fe 10 cd 12 00    	cmp    $0x12cd10,%esi
    71a1:	75 05                	jne    71a8 <_eval_list+0x93>
    71a3:	89 45 f0             	mov    %eax,0xfffffff0(%ebp)
    71a6:	eb 03                	jmp    71ab <_eval_list+0x96>
    71a8:	89 46 08             	mov    %eax,0x8(%esi)
    71ab:	89 c6                	mov    %eax,%esi
    71ad:	8b 5b 08             	mov    0x8(%ebx),%ebx
    71b0:	81 fb 10 cd 12 00    	cmp    $0x12cd10,%ebx
    71b6:	0f 85 78 ff ff ff    	jne    7134 <_eval_list+0x1f>
    71bc:	8b 45 f0             	mov    0xfffffff0(%ebp),%eax
    71bf:	83 c4 0c             	add    $0xc,%esp
    71c2:	5b                   	pop    %ebx
    71c3:	5e                   	pop    %esi
    71c4:	5f                   	pop    %edi
    71c5:	5d                   	pop    %ebp
    71c6:	c3                   	ret    

000071c7 <_analyze_application>:
    71c7:	55                   	push   %ebp
    71c8:	89 e5                	mov    %esp,%ebp
    71ca:	83 ec 08             	sub    $0x8,%esp
    71cd:	8b 45 08             	mov    0x8(%ebp),%eax
    71d0:	89 04 24             	mov    %eax,(%esp)
    71d3:	e8 07 00 00 00       	call   71df <_analyze_sequence>
    71d8:	66 c7 00 28 00       	movw   $0x28,(%eax)
    71dd:	c9                   	leave  
    71de:	c3                   	ret    

000071df <_analyze_sequence>:
    71df:	55                   	push   %ebp
    71e0:	89 e5                	mov    %esp,%ebp
    71e2:	57                   	push   %edi
    71e3:	56                   	push   %esi
    71e4:	53                   	push   %ebx
    71e5:	83 ec 0c             	sub    $0xc,%esp
    71e8:	8b 75 08             	mov    0x8(%ebp),%esi
    71eb:	c7 45 f0 10 cd 12 00 	movl   $0x12cd10,0xfffffff0(%ebp)
    71f2:	bf 10 cd 12 00       	mov    $0x12cd10,%edi
    71f7:	39 fe                	cmp    %edi,%esi
    71f9:	0f 84 fa 00 00 00    	je     72f9 <_analyze_sequence+0x11a>
    71ff:	8b 5e 04             	mov    0x4(%esi),%ebx
    7202:	ba 00 cd 12 00       	mov    $0x12cd00,%edx
    7207:	f6 c3 01             	test   $0x1,%bl
    720a:	75 0c                	jne    7218 <_analyze_sequence+0x39>
    720c:	89 d8                	mov    %ebx,%eax
    720e:	66 83 3b 1c          	cmpw   $0x1c,(%ebx)
    7212:	0f 8f ad 00 00 00    	jg     72c5 <_analyze_sequence+0xe6>
    7218:	b9 08 00 00 00       	mov    $0x8,%ecx
    721d:	f6 c3 01             	test   $0x1,%bl
    7220:	75 03                	jne    7225 <_analyze_sequence+0x46>
    7222:	0f bf 0b             	movswl (%ebx),%ecx
    7225:	83 f9 19             	cmp    $0x19,%ecx
    7228:	0f 87 90 00 00 00    	ja     72be <_analyze_sequence+0xdf>
    722e:	b8 01 00 00 00       	mov    $0x1,%eax
    7233:	d3 e0                	shl    %cl,%eax
    7235:	a9 00 ff 2a 02       	test   $0x22aff00,%eax
    723a:	75 10                	jne    724c <_analyze_sequence+0x6d>
    723c:	a9 00 00 04 00       	test   $0x40000,%eax
    7241:	75 21                	jne    7264 <_analyze_sequence+0x85>
    7243:	a9 00 00 10 00       	test   $0x100000,%eax
    7248:	75 32                	jne    727c <_analyze_sequence+0x9d>
    724a:	eb 72                	jmp    72be <_analyze_sequence+0xdf>
    724c:	c7 04 24 10 00 00 00 	movl   $0x10,(%esp)
    7253:	e8 fd 0a 00 00       	call   7d55 <kmalloc>
    7258:	89 c2                	mov    %eax,%edx
    725a:	66 c7 00 1d 00       	movw   $0x1d,(%eax)
    725f:	89 58 04             	mov    %ebx,0x4(%eax)
    7262:	eb 5f                	jmp    72c3 <_analyze_sequence+0xe4>
    7264:	c7 04 24 10 00 00 00 	movl   $0x10,(%esp)
    726b:	e8 e5 0a 00 00       	call   7d55 <kmalloc>
    7270:	89 c2                	mov    %eax,%edx
    7272:	66 c7 00 1f 00       	movw   $0x1f,(%eax)
    7277:	89 58 04             	mov    %ebx,0x4(%eax)
    727a:	eb 47                	jmp    72c3 <_analyze_sequence+0xe4>
    727c:	8b 43 04             	mov    0x4(%ebx),%eax
    727f:	b9 08 00 00 00       	mov    $0x8,%ecx
    7284:	a8 01                	test   $0x1,%al
    7286:	75 03                	jne    728b <_analyze_sequence+0xac>
    7288:	0f bf 08             	movswl (%eax),%ecx
    728b:	83 f9 12             	cmp    $0x12,%ecx
    728e:	74 07                	je     7297 <_analyze_sequence+0xb8>
    7290:	83 f9 14             	cmp    $0x14,%ecx
    7293:	74 1d                	je     72b2 <_analyze_sequence+0xd3>
    7295:	eb 2c                	jmp    72c3 <_analyze_sequence+0xe4>
    7297:	8b 43 04             	mov    0x4(%ebx),%eax
    729a:	8b 40 04             	mov    0x4(%eax),%eax
    729d:	89 04 24             	mov    %eax,(%esp)
    72a0:	e8 26 08 00 00       	call   7acb <_find_keyword>
    72a5:	85 c0                	test   %eax,%eax
    72a7:	74 09                	je     72b2 <_analyze_sequence+0xd3>
    72a9:	89 1c 24             	mov    %ebx,(%esp)
    72ac:	ff d0                	call   *%eax
    72ae:	89 c2                	mov    %eax,%edx
    72b0:	eb 11                	jmp    72c3 <_analyze_sequence+0xe4>
    72b2:	89 1c 24             	mov    %ebx,(%esp)
    72b5:	e8 0d ff ff ff       	call   71c7 <_analyze_application>
    72ba:	89 c2                	mov    %eax,%edx
    72bc:	eb 05                	jmp    72c3 <_analyze_sequence+0xe4>
    72be:	ba 00 cd 12 00       	mov    $0x12cd00,%edx
    72c3:	89 d0                	mov    %edx,%eax
    72c5:	c7 44 24 04 10 cd 12 	movl   $0x12cd10,0x4(%esp)
    72cc:	00 
    72cd:	89 04 24             	mov    %eax,(%esp)
    72d0:	e8 98 ce ff ff       	call   416d <scheme_make_pair>
    72d5:	81 ff 10 cd 12 00    	cmp    $0x12cd10,%edi
    72db:	75 04                	jne    72e1 <_analyze_sequence+0x102>
    72dd:	89 c7                	mov    %eax,%edi
    72df:	eb 06                	jmp    72e7 <_analyze_sequence+0x108>
    72e1:	8b 55 f0             	mov    0xfffffff0(%ebp),%edx
    72e4:	89 42 08             	mov    %eax,0x8(%edx)
    72e7:	89 45 f0             	mov    %eax,0xfffffff0(%ebp)
    72ea:	8b 76 08             	mov    0x8(%esi),%esi
    72ed:	81 fe 10 cd 12 00    	cmp    $0x12cd10,%esi
    72f3:	0f 85 06 ff ff ff    	jne    71ff <_analyze_sequence+0x20>
    72f9:	66 c7 07 26 00       	movw   $0x26,(%edi)
    72fe:	89 f8                	mov    %edi,%eax
    7300:	83 c4 0c             	add    $0xc,%esp
    7303:	5b                   	pop    %ebx
    7304:	5e                   	pop    %esi
    7305:	5f                   	pop    %edi
    7306:	5d                   	pop    %ebp
    7307:	c3                   	ret    

00007308 <_analyze_and>:
    7308:	55                   	push   %ebp
    7309:	89 e5                	mov    %esp,%ebp
    730b:	83 ec 08             	sub    $0x8,%esp
    730e:	8b 45 08             	mov    0x8(%ebp),%eax
    7311:	8b 40 08             	mov    0x8(%eax),%eax
    7314:	89 04 24             	mov    %eax,(%esp)
    7317:	e8 c3 fe ff ff       	call   71df <_analyze_sequence>
    731c:	66 c7 00 29 00       	movw   $0x29,(%eax)
    7321:	c9                   	leave  
    7322:	c3                   	ret    

00007323 <_analyze_begin>:
    7323:	55                   	push   %ebp
    7324:	89 e5                	mov    %esp,%ebp
    7326:	83 ec 08             	sub    $0x8,%esp
    7329:	8b 45 08             	mov    0x8(%ebp),%eax
    732c:	8b 40 08             	mov    0x8(%eax),%eax
    732f:	89 04 24             	mov    %eax,(%esp)
    7332:	e8 a8 fe ff ff       	call   71df <_analyze_sequence>
    7337:	66 c7 00 25 00       	movw   $0x25,(%eax)
    733c:	c9                   	leave  
    733d:	c3                   	ret    

0000733e <_analyze_case>:
    733e:	55                   	push   %ebp
    733f:	89 e5                	mov    %esp,%ebp
    7341:	5d                   	pop    %ebp
    7342:	c3                   	ret    

00007343 <_analyze_cond>:
    7343:	55                   	push   %ebp
    7344:	89 e5                	mov    %esp,%ebp
    7346:	57                   	push   %edi
    7347:	56                   	push   %esi
    7348:	53                   	push   %ebx
    7349:	83 ec 1c             	sub    $0x1c,%esp
    734c:	8b 7d 08             	mov    0x8(%ebp),%edi
    734f:	8b 7f 08             	mov    0x8(%edi),%edi
    7352:	c7 45 f0 10 cd 12 00 	movl   $0x12cd10,0xfffffff0(%ebp)
    7359:	c7 45 e8 10 cd 12 00 	movl   $0x12cd10,0xffffffe8(%ebp)
    7360:	81 ff 10 cd 12 00    	cmp    $0x12cd10,%edi
    7366:	0f 84 1c 01 00 00    	je     7488 <_analyze_cond+0x145>
    736c:	8b 47 04             	mov    0x4(%edi),%eax
    736f:	89 45 ec             	mov    %eax,0xffffffec(%ebp)
    7372:	8b 58 04             	mov    0x4(%eax),%ebx
    7375:	ba 00 cd 12 00       	mov    $0x12cd00,%edx
    737a:	f6 c3 01             	test   $0x1,%bl
    737d:	75 0c                	jne    738b <_analyze_cond+0x48>
    737f:	89 de                	mov    %ebx,%esi
    7381:	66 83 3b 1c          	cmpw   $0x1c,(%ebx)
    7385:	0f 8f ad 00 00 00    	jg     7438 <_analyze_cond+0xf5>
    738b:	b9 08 00 00 00       	mov    $0x8,%ecx
    7390:	f6 c3 01             	test   $0x1,%bl
    7393:	75 03                	jne    7398 <_analyze_cond+0x55>
    7395:	0f bf 0b             	movswl (%ebx),%ecx
    7398:	83 f9 19             	cmp    $0x19,%ecx
    739b:	0f 87 90 00 00 00    	ja     7431 <_analyze_cond+0xee>
    73a1:	b8 01 00 00 00       	mov    $0x1,%eax
    73a6:	d3 e0                	shl    %cl,%eax
    73a8:	a9 00 ff 2a 02       	test   $0x22aff00,%eax
    73ad:	75 10                	jne    73bf <_analyze_cond+0x7c>
    73af:	a9 00 00 04 00       	test   $0x40000,%eax
    73b4:	75 21                	jne    73d7 <_analyze_cond+0x94>
    73b6:	a9 00 00 10 00       	test   $0x100000,%eax
    73bb:	75 32                	jne    73ef <_analyze_cond+0xac>
    73bd:	eb 72                	jmp    7431 <_analyze_cond+0xee>
    73bf:	c7 04 24 10 00 00 00 	movl   $0x10,(%esp)
    73c6:	e8 8a 09 00 00       	call   7d55 <kmalloc>
    73cb:	89 c2                	mov    %eax,%edx
    73cd:	66 c7 00 1d 00       	movw   $0x1d,(%eax)
    73d2:	89 58 04             	mov    %ebx,0x4(%eax)
    73d5:	eb 5f                	jmp    7436 <_analyze_cond+0xf3>
    73d7:	c7 04 24 10 00 00 00 	movl   $0x10,(%esp)
    73de:	e8 72 09 00 00       	call   7d55 <kmalloc>
    73e3:	89 c2                	mov    %eax,%edx
    73e5:	66 c7 00 1f 00       	movw   $0x1f,(%eax)
    73ea:	89 58 04             	mov    %ebx,0x4(%eax)
    73ed:	eb 47                	jmp    7436 <_analyze_cond+0xf3>
    73ef:	8b 43 04             	mov    0x4(%ebx),%eax
    73f2:	b9 08 00 00 00       	mov    $0x8,%ecx
    73f7:	a8 01                	test   $0x1,%al
    73f9:	75 03                	jne    73fe <_analyze_cond+0xbb>
    73fb:	0f bf 08             	movswl (%eax),%ecx
    73fe:	83 f9 12             	cmp    $0x12,%ecx
    7401:	74 07                	je     740a <_analyze_cond+0xc7>
    7403:	83 f9 14             	cmp    $0x14,%ecx
    7406:	74 1d                	je     7425 <_analyze_cond+0xe2>
    7408:	eb 2c                	jmp    7436 <_analyze_cond+0xf3>
    740a:	8b 43 04             	mov    0x4(%ebx),%eax
    740d:	8b 40 04             	mov    0x4(%eax),%eax
    7410:	89 04 24             	mov    %eax,(%esp)
    7413:	e8 b3 06 00 00       	call   7acb <_find_keyword>
    7418:	85 c0                	test   %eax,%eax
    741a:	74 09                	je     7425 <_analyze_cond+0xe2>
    741c:	89 1c 24             	mov    %ebx,(%esp)
    741f:	ff d0                	call   *%eax
    7421:	89 c2                	mov    %eax,%edx
    7423:	eb 11                	jmp    7436 <_analyze_cond+0xf3>
    7425:	89 1c 24             	mov    %ebx,(%esp)
    7428:	e8 9a fd ff ff       	call   71c7 <_analyze_application>
    742d:	89 c2                	mov    %eax,%edx
    742f:	eb 05                	jmp    7436 <_analyze_cond+0xf3>
    7431:	ba 00 cd 12 00       	mov    $0x12cd00,%edx
    7436:	89 d6                	mov    %edx,%esi
    7438:	8b 55 ec             	mov    0xffffffec(%ebp),%edx
    743b:	8b 42 08             	mov    0x8(%edx),%eax
    743e:	89 04 24             	mov    %eax,(%esp)
    7441:	e8 99 fd ff ff       	call   71df <_analyze_sequence>
    7446:	89 44 24 04          	mov    %eax,0x4(%esp)
    744a:	89 34 24             	mov    %esi,(%esp)
    744d:	e8 1b cd ff ff       	call   416d <scheme_make_pair>
    7452:	c7 44 24 04 10 cd 12 	movl   $0x12cd10,0x4(%esp)
    7459:	00 
    745a:	89 04 24             	mov    %eax,(%esp)
    745d:	e8 0b cd ff ff       	call   416d <scheme_make_pair>
    7462:	81 7d f0 10 cd 12 00 	cmpl   $0x12cd10,0xfffffff0(%ebp)
    7469:	75 05                	jne    7470 <_analyze_cond+0x12d>
    746b:	89 45 f0             	mov    %eax,0xfffffff0(%ebp)
    746e:	eb 06                	jmp    7476 <_analyze_cond+0x133>
    7470:	8b 55 e8             	mov    0xffffffe8(%ebp),%edx
    7473:	89 42 08             	mov    %eax,0x8(%edx)
    7476:	89 45 e8             	mov    %eax,0xffffffe8(%ebp)
    7479:	8b 7f 08             	mov    0x8(%edi),%edi
    747c:	81 ff 10 cd 12 00    	cmp    $0x12cd10,%edi
    7482:	0f 85 e4 fe ff ff    	jne    736c <_analyze_cond+0x29>
    7488:	8b 45 f0             	mov    0xfffffff0(%ebp),%eax
    748b:	66 c7 00 27 00       	movw   $0x27,(%eax)
    7490:	8b 45 f0             	mov    0xfffffff0(%ebp),%eax
    7493:	83 c4 1c             	add    $0x1c,%esp
    7496:	5b                   	pop    %ebx
    7497:	5e                   	pop    %esi
    7498:	5f                   	pop    %edi
    7499:	5d                   	pop    %ebp
    749a:	c3                   	ret    

0000749b <_analyze_definition>:
    749b:	55                   	push   %ebp
    749c:	89 e5                	mov    %esp,%ebp
    749e:	83 ec 18             	sub    $0x18,%esp
    74a1:	89 5d f8             	mov    %ebx,0xfffffff8(%ebp)
    74a4:	89 75 fc             	mov    %esi,0xfffffffc(%ebp)
    74a7:	8b 4d 08             	mov    0x8(%ebp),%ecx
    74aa:	8b 51 08             	mov    0x8(%ecx),%edx
    74ad:	8b 5a 04             	mov    0x4(%edx),%ebx
    74b0:	f6 c3 01             	test   $0x1,%bl
    74b3:	0f 85 e8 00 00 00    	jne    75a1 <_analyze_definition+0x106>
    74b9:	66 83 3b 12          	cmpw   $0x12,(%ebx)
    74bd:	0f 85 de 00 00 00    	jne    75a1 <_analyze_definition+0x106>
    74c3:	89 de                	mov    %ebx,%esi
    74c5:	8b 42 08             	mov    0x8(%edx),%eax
    74c8:	8b 58 04             	mov    0x4(%eax),%ebx
    74cb:	ba 00 cd 12 00       	mov    $0x12cd00,%edx
    74d0:	f6 c3 01             	test   $0x1,%bl
    74d3:	75 0c                	jne    74e1 <_analyze_definition+0x46>
    74d5:	89 d8                	mov    %ebx,%eax
    74d7:	66 83 3b 1c          	cmpw   $0x1c,(%ebx)
    74db:	0f 8f ad 00 00 00    	jg     758e <_analyze_definition+0xf3>
    74e1:	b9 08 00 00 00       	mov    $0x8,%ecx
    74e6:	f6 c3 01             	test   $0x1,%bl
    74e9:	75 03                	jne    74ee <_analyze_definition+0x53>
    74eb:	0f bf 0b             	movswl (%ebx),%ecx
    74ee:	83 f9 19             	cmp    $0x19,%ecx
    74f1:	0f 87 90 00 00 00    	ja     7587 <_analyze_definition+0xec>
    74f7:	b8 01 00 00 00       	mov    $0x1,%eax
    74fc:	d3 e0                	shl    %cl,%eax
    74fe:	a9 00 ff 2a 02       	test   $0x22aff00,%eax
    7503:	75 10                	jne    7515 <_analyze_definition+0x7a>
    7505:	a9 00 00 04 00       	test   $0x40000,%eax
    750a:	75 21                	jne    752d <_analyze_definition+0x92>
    750c:	a9 00 00 10 00       	test   $0x100000,%eax
    7511:	75 32                	jne    7545 <_analyze_definition+0xaa>
    7513:	eb 72                	jmp    7587 <_analyze_definition+0xec>
    7515:	c7 04 24 10 00 00 00 	movl   $0x10,(%esp)
    751c:	e8 34 08 00 00       	call   7d55 <kmalloc>
    7521:	89 c2                	mov    %eax,%edx
    7523:	66 c7 00 1d 00       	movw   $0x1d,(%eax)
    7528:	89 58 04             	mov    %ebx,0x4(%eax)
    752b:	eb 5f                	jmp    758c <_analyze_definition+0xf1>
    752d:	c7 04 24 10 00 00 00 	movl   $0x10,(%esp)
    7534:	e8 1c 08 00 00       	call   7d55 <kmalloc>
    7539:	89 c2                	mov    %eax,%edx
    753b:	66 c7 00 1f 00       	movw   $0x1f,(%eax)
    7540:	89 58 04             	mov    %ebx,0x4(%eax)
    7543:	eb 47                	jmp    758c <_analyze_definition+0xf1>
    7545:	8b 43 04             	mov    0x4(%ebx),%eax
    7548:	b9 08 00 00 00       	mov    $0x8,%ecx
    754d:	a8 01                	test   $0x1,%al
    754f:	75 03                	jne    7554 <_analyze_definition+0xb9>
    7551:	0f bf 08             	movswl (%eax),%ecx
    7554:	83 f9 12             	cmp    $0x12,%ecx
    7557:	74 07                	je     7560 <_analyze_definition+0xc5>
    7559:	83 f9 14             	cmp    $0x14,%ecx
    755c:	74 1d                	je     757b <_analyze_definition+0xe0>
    755e:	eb 2c                	jmp    758c <_analyze_definition+0xf1>
    7560:	8b 43 04             	mov    0x4(%ebx),%eax
    7563:	8b 40 04             	mov    0x4(%eax),%eax
    7566:	89 04 24             	mov    %eax,(%esp)
    7569:	e8 5d 05 00 00       	call   7acb <_find_keyword>
    756e:	85 c0                	test   %eax,%eax
    7570:	74 09                	je     757b <_analyze_definition+0xe0>
    7572:	89 1c 24             	mov    %ebx,(%esp)
    7575:	ff d0                	call   *%eax
    7577:	89 c2                	mov    %eax,%edx
    7579:	eb 11                	jmp    758c <_analyze_definition+0xf1>
    757b:	89 1c 24             	mov    %ebx,(%esp)
    757e:	e8 44 fc ff ff       	call   71c7 <_analyze_application>
    7583:	89 c2                	mov    %eax,%edx
    7585:	eb 05                	jmp    758c <_analyze_definition+0xf1>
    7587:	ba 00 cd 12 00       	mov    $0x12cd00,%edx
    758c:	89 d0                	mov    %edx,%eax
    758e:	89 44 24 04          	mov    %eax,0x4(%esp)
    7592:	89 34 24             	mov    %esi,(%esp)
    7595:	e8 d3 cb ff ff       	call   416d <scheme_make_pair>
    759a:	66 c7 00 21 00       	movw   $0x21,(%eax)
    759f:	eb 3c                	jmp    75dd <_analyze_definition+0x142>
    75a1:	f6 c3 01             	test   $0x1,%bl
    75a4:	75 37                	jne    75dd <_analyze_definition+0x142>
    75a6:	66 83 3b 14          	cmpw   $0x14,(%ebx)
    75aa:	75 31                	jne    75dd <_analyze_definition+0x142>
    75ac:	8b 73 04             	mov    0x4(%ebx),%esi
    75af:	8b 41 08             	mov    0x8(%ecx),%eax
    75b2:	8b 40 08             	mov    0x8(%eax),%eax
    75b5:	89 04 24             	mov    %eax,(%esp)
    75b8:	e8 22 fc ff ff       	call   71df <_analyze_sequence>
    75bd:	89 44 24 04          	mov    %eax,0x4(%esp)
    75c1:	8b 43 08             	mov    0x8(%ebx),%eax
    75c4:	89 04 24             	mov    %eax,(%esp)
    75c7:	e8 a1 cb ff ff       	call   416d <scheme_make_pair>
    75cc:	89 44 24 04          	mov    %eax,0x4(%esp)
    75d0:	89 34 24             	mov    %esi,(%esp)
    75d3:	e8 95 cb ff ff       	call   416d <scheme_make_pair>
    75d8:	66 c7 00 22 00       	movw   $0x22,(%eax)
    75dd:	8b 5d f8             	mov    0xfffffff8(%ebp),%ebx
    75e0:	8b 75 fc             	mov    0xfffffffc(%ebp),%esi
    75e3:	89 ec                	mov    %ebp,%esp
    75e5:	5d                   	pop    %ebp
    75e6:	c3                   	ret    

000075e7 <_analyze_delay>:
    75e7:	55                   	push   %ebp
    75e8:	89 e5                	mov    %esp,%ebp
    75ea:	5d                   	pop    %ebp
    75eb:	c3                   	ret    

000075ec <_analyze_loop>:
    75ec:	55                   	push   %ebp
    75ed:	89 e5                	mov    %esp,%ebp
    75ef:	5d                   	pop    %ebp
    75f0:	c3                   	ret    

000075f1 <_analyze_else>:
    75f1:	55                   	push   %ebp
    75f2:	89 e5                	mov    %esp,%ebp
    75f4:	b8 54 cd 12 00       	mov    $0x12cd54,%eax
    75f9:	5d                   	pop    %ebp
    75fa:	c3                   	ret    

000075fb <_analyze_if>:
    75fb:	55                   	push   %ebp
    75fc:	89 e5                	mov    %esp,%ebp
    75fe:	83 ec 18             	sub    $0x18,%esp
    7601:	89 5d f4             	mov    %ebx,0xfffffff4(%ebp)
    7604:	89 75 f8             	mov    %esi,0xfffffff8(%ebp)
    7607:	89 7d fc             	mov    %edi,0xfffffffc(%ebp)
    760a:	8b 5d 08             	mov    0x8(%ebp),%ebx
    760d:	8b 5b 08             	mov    0x8(%ebx),%ebx
    7610:	f6 c3 01             	test   $0x1,%bl
    7613:	0f 85 d8 00 00 00    	jne    76f1 <_analyze_if+0xf6>
    7619:	66 83 3b 14          	cmpw   $0x14,(%ebx)
    761d:	0f 85 ce 00 00 00    	jne    76f1 <_analyze_if+0xf6>
    7623:	8b 73 04             	mov    0x4(%ebx),%esi
    7626:	ba 00 cd 12 00       	mov    $0x12cd00,%edx
    762b:	f7 c6 01 00 00 00    	test   $0x1,%esi
    7631:	75 0c                	jne    763f <_analyze_if+0x44>
    7633:	89 f0                	mov    %esi,%eax
    7635:	66 83 3e 1c          	cmpw   $0x1c,(%esi)
    7639:	0f 8f bc 00 00 00    	jg     76fb <_analyze_if+0x100>
    763f:	b9 08 00 00 00       	mov    $0x8,%ecx
    7644:	f7 c6 01 00 00 00    	test   $0x1,%esi
    764a:	75 03                	jne    764f <_analyze_if+0x54>
    764c:	0f bf 0e             	movswl (%esi),%ecx
    764f:	83 f9 19             	cmp    $0x19,%ecx
    7652:	0f 87 90 00 00 00    	ja     76e8 <_analyze_if+0xed>
    7658:	b8 01 00 00 00       	mov    $0x1,%eax
    765d:	d3 e0                	shl    %cl,%eax
    765f:	a9 00 ff 2a 02       	test   $0x22aff00,%eax
    7664:	75 10                	jne    7676 <_analyze_if+0x7b>
    7666:	a9 00 00 04 00       	test   $0x40000,%eax
    766b:	75 21                	jne    768e <_analyze_if+0x93>
    766d:	a9 00 00 10 00       	test   $0x100000,%eax
    7672:	75 32                	jne    76a6 <_analyze_if+0xab>
    7674:	eb 72                	jmp    76e8 <_analyze_if+0xed>
    7676:	c7 04 24 10 00 00 00 	movl   $0x10,(%esp)
    767d:	e8 d3 06 00 00       	call   7d55 <kmalloc>
    7682:	89 c2                	mov    %eax,%edx
    7684:	66 c7 00 1d 00       	movw   $0x1d,(%eax)
    7689:	89 70 04             	mov    %esi,0x4(%eax)
    768c:	eb 5f                	jmp    76ed <_analyze_if+0xf2>
    768e:	c7 04 24 10 00 00 00 	movl   $0x10,(%esp)
    7695:	e8 bb 06 00 00       	call   7d55 <kmalloc>
    769a:	89 c2                	mov    %eax,%edx
    769c:	66 c7 00 1f 00       	movw   $0x1f,(%eax)
    76a1:	89 70 04             	mov    %esi,0x4(%eax)
    76a4:	eb 47                	jmp    76ed <_analyze_if+0xf2>
    76a6:	8b 46 04             	mov    0x4(%esi),%eax
    76a9:	b9 08 00 00 00       	mov    $0x8,%ecx
    76ae:	a8 01                	test   $0x1,%al
    76b0:	75 03                	jne    76b5 <_analyze_if+0xba>
    76b2:	0f bf 08             	movswl (%eax),%ecx
    76b5:	83 f9 12             	cmp    $0x12,%ecx
    76b8:	74 07                	je     76c1 <_analyze_if+0xc6>
    76ba:	83 f9 14             	cmp    $0x14,%ecx
    76bd:	74 1d                	je     76dc <_analyze_if+0xe1>
    76bf:	eb 2c                	jmp    76ed <_analyze_if+0xf2>
    76c1:	8b 46 04             	mov    0x4(%esi),%eax
    76c4:	8b 40 04             	mov    0x4(%eax),%eax
    76c7:	89 04 24             	mov    %eax,(%esp)
    76ca:	e8 fc 03 00 00       	call   7acb <_find_keyword>
    76cf:	85 c0                	test   %eax,%eax
    76d1:	74 09                	je     76dc <_analyze_if+0xe1>
    76d3:	89 34 24             	mov    %esi,(%esp)
    76d6:	ff d0                	call   *%eax
    76d8:	89 c2                	mov    %eax,%edx
    76da:	eb 11                	jmp    76ed <_analyze_if+0xf2>
    76dc:	89 34 24             	mov    %esi,(%esp)
    76df:	e8 e3 fa ff ff       	call   71c7 <_analyze_application>
    76e4:	89 c2                	mov    %eax,%edx
    76e6:	eb 05                	jmp    76ed <_analyze_if+0xf2>
    76e8:	ba 00 cd 12 00       	mov    $0x12cd00,%edx
    76ed:	89 d0                	mov    %edx,%eax
    76ef:	eb 0a                	jmp    76fb <_analyze_if+0x100>
    76f1:	b8 00 cd 12 00       	mov    $0x12cd00,%eax
    76f6:	e9 26 02 00 00       	jmp    7921 <_analyze_if+0x326>
    76fb:	89 c7                	mov    %eax,%edi
    76fd:	8b 5b 08             	mov    0x8(%ebx),%ebx
    7700:	f6 c3 01             	test   $0x1,%bl
    7703:	0f 85 dc 00 00 00    	jne    77e5 <_analyze_if+0x1ea>
    7709:	66 83 3b 14          	cmpw   $0x14,(%ebx)
    770d:	0f 85 d2 00 00 00    	jne    77e5 <_analyze_if+0x1ea>
    7713:	8b 73 04             	mov    0x4(%ebx),%esi
    7716:	ba 00 cd 12 00       	mov    $0x12cd00,%edx
    771b:	f7 c6 01 00 00 00    	test   $0x1,%esi
    7721:	75 0c                	jne    772f <_analyze_if+0x134>
    7723:	89 f0                	mov    %esi,%eax
    7725:	66 83 3e 1c          	cmpw   $0x1c,(%esi)
    7729:	0f 8f b0 00 00 00    	jg     77df <_analyze_if+0x1e4>
    772f:	b9 08 00 00 00       	mov    $0x8,%ecx
    7734:	f7 c6 01 00 00 00    	test   $0x1,%esi
    773a:	75 03                	jne    773f <_analyze_if+0x144>
    773c:	0f bf 0e             	movswl (%esi),%ecx
    773f:	83 f9 19             	cmp    $0x19,%ecx
    7742:	0f 87 90 00 00 00    	ja     77d8 <_analyze_if+0x1dd>
    7748:	b8 01 00 00 00       	mov    $0x1,%eax
    774d:	d3 e0                	shl    %cl,%eax
    774f:	a9 00 ff 2a 02       	test   $0x22aff00,%eax
    7754:	75 10                	jne    7766 <_analyze_if+0x16b>
    7756:	a9 00 00 04 00       	test   $0x40000,%eax
    775b:	75 21                	jne    777e <_analyze_if+0x183>
    775d:	a9 00 00 10 00       	test   $0x100000,%eax
    7762:	75 32                	jne    7796 <_analyze_if+0x19b>
    7764:	eb 72                	jmp    77d8 <_analyze_if+0x1dd>
    7766:	c7 04 24 10 00 00 00 	movl   $0x10,(%esp)
    776d:	e8 e3 05 00 00       	call   7d55 <kmalloc>
    7772:	89 c2                	mov    %eax,%edx
    7774:	66 c7 00 1d 00       	movw   $0x1d,(%eax)
    7779:	89 70 04             	mov    %esi,0x4(%eax)
    777c:	eb 5f                	jmp    77dd <_analyze_if+0x1e2>
    777e:	c7 04 24 10 00 00 00 	movl   $0x10,(%esp)
    7785:	e8 cb 05 00 00       	call   7d55 <kmalloc>
    778a:	89 c2                	mov    %eax,%edx
    778c:	66 c7 00 1f 00       	movw   $0x1f,(%eax)
    7791:	89 70 04             	mov    %esi,0x4(%eax)
    7794:	eb 47                	jmp    77dd <_analyze_if+0x1e2>
    7796:	8b 46 04             	mov    0x4(%esi),%eax
    7799:	b9 08 00 00 00       	mov    $0x8,%ecx
    779e:	a8 01                	test   $0x1,%al
    77a0:	75 03                	jne    77a5 <_analyze_if+0x1aa>
    77a2:	0f bf 08             	movswl (%eax),%ecx
    77a5:	83 f9 12             	cmp    $0x12,%ecx
    77a8:	74 07                	je     77b1 <_analyze_if+0x1b6>
    77aa:	83 f9 14             	cmp    $0x14,%ecx
    77ad:	74 1d                	je     77cc <_analyze_if+0x1d1>
    77af:	eb 2c                	jmp    77dd <_analyze_if+0x1e2>
    77b1:	8b 46 04             	mov    0x4(%esi),%eax
    77b4:	8b 40 04             	mov    0x4(%eax),%eax
    77b7:	89 04 24             	mov    %eax,(%esp)
    77ba:	e8 0c 03 00 00       	call   7acb <_find_keyword>
    77bf:	85 c0                	test   %eax,%eax
    77c1:	74 09                	je     77cc <_analyze_if+0x1d1>
    77c3:	89 34 24             	mov    %esi,(%esp)
    77c6:	ff d0                	call   *%eax
    77c8:	89 c2                	mov    %eax,%edx
    77ca:	eb 11                	jmp    77dd <_analyze_if+0x1e2>
    77cc:	89 34 24             	mov    %esi,(%esp)
    77cf:	e8 f3 f9 ff ff       	call   71c7 <_analyze_application>
    77d4:	89 c2                	mov    %eax,%edx
    77d6:	eb 05                	jmp    77dd <_analyze_if+0x1e2>
    77d8:	ba 00 cd 12 00       	mov    $0x12cd00,%edx
    77dd:	89 d0                	mov    %edx,%eax
    77df:	89 45 f0             	mov    %eax,0xfffffff0(%ebp)
    77e2:	8b 5b 08             	mov    0x8(%ebx),%ebx
    77e5:	f6 c3 01             	test   $0x1,%bl
    77e8:	0f 85 e4 00 00 00    	jne    78d2 <_analyze_if+0x2d7>
    77ee:	66 83 3b 14          	cmpw   $0x14,(%ebx)
    77f2:	0f 85 da 00 00 00    	jne    78d2 <_analyze_if+0x2d7>
    77f8:	b8 00 cd 12 00       	mov    $0x12cd00,%eax
    77fd:	81 7b 08 10 cd 12 00 	cmpl   $0x12cd10,0x8(%ebx)
    7804:	0f 85 17 01 00 00    	jne    7921 <_analyze_if+0x326>
    780a:	8b 5b 04             	mov    0x4(%ebx),%ebx
    780d:	ba 00 cd 12 00       	mov    $0x12cd00,%edx
    7812:	f6 c3 01             	test   $0x1,%bl
    7815:	75 0c                	jne    7823 <_analyze_if+0x228>
    7817:	89 d8                	mov    %ebx,%eax
    7819:	66 83 3b 1c          	cmpw   $0x1c,(%ebx)
    781d:	0f 8f bf 00 00 00    	jg     78e2 <_analyze_if+0x2e7>
    7823:	b9 08 00 00 00       	mov    $0x8,%ecx
    7828:	f6 c3 01             	test   $0x1,%bl
    782b:	75 03                	jne    7830 <_analyze_if+0x235>
    782d:	0f bf 0b             	movswl (%ebx),%ecx
    7830:	83 f9 19             	cmp    $0x19,%ecx
    7833:	0f 87 90 00 00 00    	ja     78c9 <_analyze_if+0x2ce>
    7839:	b8 01 00 00 00       	mov    $0x1,%eax
    783e:	d3 e0                	shl    %cl,%eax
    7840:	a9 00 ff 2a 02       	test   $0x22aff00,%eax
    7845:	75 10                	jne    7857 <_analyze_if+0x25c>
    7847:	a9 00 00 04 00       	test   $0x40000,%eax
    784c:	75 21                	jne    786f <_analyze_if+0x274>
    784e:	a9 00 00 10 00       	test   $0x100000,%eax
    7853:	75 32                	jne    7887 <_analyze_if+0x28c>
    7855:	eb 72                	jmp    78c9 <_analyze_if+0x2ce>
    7857:	c7 04 24 10 00 00 00 	movl   $0x10,(%esp)
    785e:	e8 f2 04 00 00       	call   7d55 <kmalloc>
    7863:	89 c2                	mov    %eax,%edx
    7865:	66 c7 00 1d 00       	movw   $0x1d,(%eax)
    786a:	89 58 04             	mov    %ebx,0x4(%eax)
    786d:	eb 5f                	jmp    78ce <_analyze_if+0x2d3>
    786f:	c7 04 24 10 00 00 00 	movl   $0x10,(%esp)
    7876:	e8 da 04 00 00       	call   7d55 <kmalloc>
    787b:	89 c2                	mov    %eax,%edx
    787d:	66 c7 00 1f 00       	movw   $0x1f,(%eax)
    7882:	89 58 04             	mov    %ebx,0x4(%eax)
    7885:	eb 47                	jmp    78ce <_analyze_if+0x2d3>
    7887:	8b 43 04             	mov    0x4(%ebx),%eax
    788a:	b9 08 00 00 00       	mov    $0x8,%ecx
    788f:	a8 01                	test   $0x1,%al
    7891:	75 03                	jne    7896 <_analyze_if+0x29b>
    7893:	0f bf 08             	movswl (%eax),%ecx
    7896:	83 f9 12             	cmp    $0x12,%ecx
    7899:	74 07                	je     78a2 <_analyze_if+0x2a7>
    789b:	83 f9 14             	cmp    $0x14,%ecx
    789e:	74 1d                	je     78bd <_analyze_if+0x2c2>
    78a0:	eb 2c                	jmp    78ce <_analyze_if+0x2d3>
    78a2:	8b 43 04             	mov    0x4(%ebx),%eax
    78a5:	8b 40 04             	mov    0x4(%eax),%eax
    78a8:	89 04 24             	mov    %eax,(%esp)
    78ab:	e8 1b 02 00 00       	call   7acb <_find_keyword>
    78b0:	85 c0                	test   %eax,%eax
    78b2:	74 09                	je     78bd <_analyze_if+0x2c2>
    78b4:	89 1c 24             	mov    %ebx,(%esp)
    78b7:	ff d0                	call   *%eax
    78b9:	89 c2                	mov    %eax,%edx
    78bb:	eb 11                	jmp    78ce <_analyze_if+0x2d3>
    78bd:	89 1c 24             	mov    %ebx,(%esp)
    78c0:	e8 02 f9 ff ff       	call   71c7 <_analyze_application>
    78c5:	89 c2                	mov    %eax,%edx
    78c7:	eb 05                	jmp    78ce <_analyze_if+0x2d3>
    78c9:	ba 00 cd 12 00       	mov    $0x12cd00,%edx
    78ce:	89 d0                	mov    %edx,%eax
    78d0:	eb 10                	jmp    78e2 <_analyze_if+0x2e7>
    78d2:	b8 10 cd 12 00       	mov    $0x12cd10,%eax
    78d7:	39 c3                	cmp    %eax,%ebx
    78d9:	74 07                	je     78e2 <_analyze_if+0x2e7>
    78db:	b8 00 cd 12 00       	mov    $0x12cd00,%eax
    78e0:	eb 3f                	jmp    7921 <_analyze_if+0x326>
    78e2:	81 ff 00 cd 12 00    	cmp    $0x12cd00,%edi
    78e8:	74 10                	je     78fa <_analyze_if+0x2ff>
    78ea:	81 7d f0 00 cd 12 00 	cmpl   $0x12cd00,0xfffffff0(%ebp)
    78f1:	74 07                	je     78fa <_analyze_if+0x2ff>
    78f3:	3d 00 cd 12 00       	cmp    $0x12cd00,%eax
    78f8:	75 07                	jne    7901 <_analyze_if+0x306>
    78fa:	b8 00 cd 12 00       	mov    $0x12cd00,%eax
    78ff:	eb 20                	jmp    7921 <_analyze_if+0x326>
    7901:	89 44 24 04          	mov    %eax,0x4(%esp)
    7905:	8b 45 f0             	mov    0xfffffff0(%ebp),%eax
    7908:	89 04 24             	mov    %eax,(%esp)
    790b:	e8 5d c8 ff ff       	call   416d <scheme_make_pair>
    7910:	89 44 24 04          	mov    %eax,0x4(%esp)
    7914:	89 3c 24             	mov    %edi,(%esp)
    7917:	e8 51 c8 ff ff       	call   416d <scheme_make_pair>
    791c:	66 c7 00 23 00       	movw   $0x23,(%eax)
    7921:	8b 5d f4             	mov    0xfffffff4(%ebp),%ebx
    7924:	8b 75 f8             	mov    0xfffffff8(%ebp),%esi
    7927:	8b 7d fc             	mov    0xfffffffc(%ebp),%edi
    792a:	89 ec                	mov    %ebp,%esp
    792c:	5d                   	pop    %ebp
    792d:	c3                   	ret    

0000792e <_analyze_lambda>:
    792e:	55                   	push   %ebp
    792f:	89 e5                	mov    %esp,%ebp
    7931:	53                   	push   %ebx
    7932:	83 ec 14             	sub    $0x14,%esp
    7935:	8b 45 08             	mov    0x8(%ebp),%eax
    7938:	8b 40 08             	mov    0x8(%eax),%eax
    793b:	8b 58 04             	mov    0x4(%eax),%ebx
    793e:	8b 40 08             	mov    0x8(%eax),%eax
    7941:	89 04 24             	mov    %eax,(%esp)
    7944:	e8 96 f8 ff ff       	call   71df <_analyze_sequence>
    7949:	89 44 24 04          	mov    %eax,0x4(%esp)
    794d:	89 1c 24             	mov    %ebx,(%esp)
    7950:	e8 18 c8 ff ff       	call   416d <scheme_make_pair>
    7955:	66 c7 00 24 00       	movw   $0x24,(%eax)
    795a:	83 c4 14             	add    $0x14,%esp
    795d:	5b                   	pop    %ebx
    795e:	5d                   	pop    %ebp
    795f:	c3                   	ret    

00007960 <_analyze_let>:
    7960:	55                   	push   %ebp
    7961:	89 e5                	mov    %esp,%ebp
    7963:	5d                   	pop    %ebp
    7964:	c3                   	ret    

00007965 <_analyze_letrec>:
    7965:	55                   	push   %ebp
    7966:	89 e5                	mov    %esp,%ebp
    7968:	5d                   	pop    %ebp
    7969:	c3                   	ret    

0000796a <_analyze_let_star>:
    796a:	55                   	push   %ebp
    796b:	89 e5                	mov    %esp,%ebp
    796d:	5d                   	pop    %ebp
    796e:	c3                   	ret    

0000796f <_analyze_or>:
    796f:	55                   	push   %ebp
    7970:	89 e5                	mov    %esp,%ebp
    7972:	83 ec 08             	sub    $0x8,%esp
    7975:	8b 45 08             	mov    0x8(%ebp),%eax
    7978:	8b 40 08             	mov    0x8(%eax),%eax
    797b:	89 04 24             	mov    %eax,(%esp)
    797e:	e8 5c f8 ff ff       	call   71df <_analyze_sequence>
    7983:	66 c7 00 2a 00       	movw   $0x2a,(%eax)
    7988:	c9                   	leave  
    7989:	c3                   	ret    

0000798a <_analyze_quasiquote>:
    798a:	55                   	push   %ebp
    798b:	89 e5                	mov    %esp,%ebp
    798d:	5d                   	pop    %ebp
    798e:	c3                   	ret    

0000798f <_analyze_quoted>:
    798f:	55                   	push   %ebp
    7990:	89 e5                	mov    %esp,%ebp
    7992:	83 ec 08             	sub    $0x8,%esp
    7995:	c7 04 24 10 00 00 00 	movl   $0x10,(%esp)
    799c:	e8 b4 03 00 00       	call   7d55 <kmalloc>
    79a1:	66 c7 00 1e 00       	movw   $0x1e,(%eax)
    79a6:	8b 55 08             	mov    0x8(%ebp),%edx
    79a9:	8b 52 08             	mov    0x8(%edx),%edx
    79ac:	8b 52 04             	mov    0x4(%edx),%edx
    79af:	89 50 04             	mov    %edx,0x4(%eax)
    79b2:	c9                   	leave  
    79b3:	c3                   	ret    

000079b4 <_analyze_assignment>:
    79b4:	55                   	push   %ebp
    79b5:	89 e5                	mov    %esp,%ebp
    79b7:	83 ec 18             	sub    $0x18,%esp
    79ba:	89 5d f8             	mov    %ebx,0xfffffff8(%ebp)
    79bd:	89 75 fc             	mov    %esi,0xfffffffc(%ebp)
    79c0:	8b 55 08             	mov    0x8(%ebp),%edx
    79c3:	8b 42 08             	mov    0x8(%edx),%eax
    79c6:	8b 58 04             	mov    0x4(%eax),%ebx
    79c9:	f6 c3 01             	test   $0x1,%bl
    79cc:	75 06                	jne    79d4 <_analyze_assignment+0x20>
    79ce:	66 83 3b 12          	cmpw   $0x12,(%ebx)
    79d2:	74 0a                	je     79de <_analyze_assignment+0x2a>
    79d4:	b8 00 cd 12 00       	mov    $0x12cd00,%eax
    79d9:	e9 e3 00 00 00       	jmp    7ac1 <_analyze_assignment+0x10d>
    79de:	8b 42 08             	mov    0x8(%edx),%eax
    79e1:	8b 40 08             	mov    0x8(%eax),%eax
    79e4:	8b 70 04             	mov    0x4(%eax),%esi
    79e7:	ba 00 cd 12 00       	mov    $0x12cd00,%edx
    79ec:	f7 c6 01 00 00 00    	test   $0x1,%esi
    79f2:	75 0c                	jne    7a00 <_analyze_assignment+0x4c>
    79f4:	89 f0                	mov    %esi,%eax
    79f6:	66 83 3e 1c          	cmpw   $0x1c,(%esi)
    79fa:	0f 8f b0 00 00 00    	jg     7ab0 <_analyze_assignment+0xfc>
    7a00:	b9 08 00 00 00       	mov    $0x8,%ecx
    7a05:	f7 c6 01 00 00 00    	test   $0x1,%esi
    7a0b:	75 03                	jne    7a10 <_analyze_assignment+0x5c>
    7a0d:	0f bf 0e             	movswl (%esi),%ecx
    7a10:	83 f9 19             	cmp    $0x19,%ecx
    7a13:	0f 87 90 00 00 00    	ja     7aa9 <_analyze_assignment+0xf5>
    7a19:	b8 01 00 00 00       	mov    $0x1,%eax
    7a1e:	d3 e0                	shl    %cl,%eax
    7a20:	a9 00 ff 2a 02       	test   $0x22aff00,%eax
    7a25:	75 10                	jne    7a37 <_analyze_assignment+0x83>
    7a27:	a9 00 00 04 00       	test   $0x40000,%eax
    7a2c:	75 21                	jne    7a4f <_analyze_assignment+0x9b>
    7a2e:	a9 00 00 10 00       	test   $0x100000,%eax
    7a33:	75 32                	jne    7a67 <_analyze_assignment+0xb3>
    7a35:	eb 72                	jmp    7aa9 <_analyze_assignment+0xf5>
    7a37:	c7 04 24 10 00 00 00 	movl   $0x10,(%esp)
    7a3e:	e8 12 03 00 00       	call   7d55 <kmalloc>
    7a43:	89 c2                	mov    %eax,%edx
    7a45:	66 c7 00 1d 00       	movw   $0x1d,(%eax)
    7a4a:	89 70 04             	mov    %esi,0x4(%eax)
    7a4d:	eb 5f                	jmp    7aae <_analyze_assignment+0xfa>
    7a4f:	c7 04 24 10 00 00 00 	movl   $0x10,(%esp)
    7a56:	e8 fa 02 00 00       	call   7d55 <kmalloc>
    7a5b:	89 c2                	mov    %eax,%edx
    7a5d:	66 c7 00 1f 00       	movw   $0x1f,(%eax)
    7a62:	89 70 04             	mov    %esi,0x4(%eax)
    7a65:	eb 47                	jmp    7aae <_analyze_assignment+0xfa>
    7a67:	8b 46 04             	mov    0x4(%esi),%eax
    7a6a:	b9 08 00 00 00       	mov    $0x8,%ecx
    7a6f:	a8 01                	test   $0x1,%al
    7a71:	75 03                	jne    7a76 <_analyze_assignment+0xc2>
    7a73:	0f bf 08             	movswl (%eax),%ecx
    7a76:	83 f9 12             	cmp    $0x12,%ecx
    7a79:	74 07                	je     7a82 <_analyze_assignment+0xce>
    7a7b:	83 f9 14             	cmp    $0x14,%ecx
    7a7e:	74 1d                	je     7a9d <_analyze_assignment+0xe9>
    7a80:	eb 2c                	jmp    7aae <_analyze_assignment+0xfa>
    7a82:	8b 46 04             	mov    0x4(%esi),%eax
    7a85:	8b 40 04             	mov    0x4(%eax),%eax
    7a88:	89 04 24             	mov    %eax,(%esp)
    7a8b:	e8 3b 00 00 00       	call   7acb <_find_keyword>
    7a90:	85 c0                	test   %eax,%eax
    7a92:	74 09                	je     7a9d <_analyze_assignment+0xe9>
    7a94:	89 34 24             	mov    %esi,(%esp)
    7a97:	ff d0                	call   *%eax
    7a99:	89 c2                	mov    %eax,%edx
    7a9b:	eb 11                	jmp    7aae <_analyze_assignment+0xfa>
    7a9d:	89 34 24             	mov    %esi,(%esp)
    7aa0:	e8 22 f7 ff ff       	call   71c7 <_analyze_application>
    7aa5:	89 c2                	mov    %eax,%edx
    7aa7:	eb 05                	jmp    7aae <_analyze_assignment+0xfa>
    7aa9:	ba 00 cd 12 00       	mov    $0x12cd00,%edx
    7aae:	89 d0                	mov    %edx,%eax
    7ab0:	89 44 24 04          	mov    %eax,0x4(%esp)
    7ab4:	89 1c 24             	mov    %ebx,(%esp)
    7ab7:	e8 b1 c6 ff ff       	call   416d <scheme_make_pair>
    7abc:	66 c7 00 20 00       	movw   $0x20,(%eax)
    7ac1:	8b 5d f8             	mov    0xfffffff8(%ebp),%ebx
    7ac4:	8b 75 fc             	mov    0xfffffffc(%ebp),%esi
    7ac7:	89 ec                	mov    %ebp,%esp
    7ac9:	5d                   	pop    %ebp
    7aca:	c3                   	ret    

00007acb <_find_keyword>:
    7acb:	55                   	push   %ebp
    7acc:	89 e5                	mov    %esp,%ebp
    7ace:	57                   	push   %edi
    7acf:	56                   	push   %esi
    7ad0:	53                   	push   %ebx
    7ad1:	8b 7d 08             	mov    0x8(%ebp),%edi
    7ad4:	ba 11 00 00 00       	mov    $0x11,%edx
    7ad9:	bb 00 00 00 00       	mov    $0x0,%ebx
    7ade:	b9 00 00 00 00       	mov    $0x0,%ecx
    7ae3:	80 3f 00             	cmpb   $0x0,(%edi)
    7ae6:	74 51                	je     7b39 <_find_keyword+0x6e>
    7ae8:	39 d1                	cmp    %edx,%ecx
    7aea:	7d 16                	jge    7b02 <_find_keyword+0x37>
    7aec:	be 20 94 00 00       	mov    $0x9420,%esi
    7af1:	8b 04 ce             	mov    (%esi,%ecx,8),%eax
    7af4:	0f b6 04 18          	movzbl (%eax,%ebx,1),%eax
    7af8:	3a 04 1f             	cmp    (%edi,%ebx,1),%al
    7afb:	74 05                	je     7b02 <_find_keyword+0x37>
    7afd:	41                   	inc    %ecx
    7afe:	39 d1                	cmp    %edx,%ecx
    7b00:	7c ef                	jl     7af1 <_find_keyword+0x26>
    7b02:	39 d1                	cmp    %edx,%ecx
    7b04:	75 07                	jne    7b0d <_find_keyword+0x42>
    7b06:	b8 00 00 00 00       	mov    $0x0,%eax
    7b0b:	eb 33                	jmp    7b40 <_find_keyword+0x75>
    7b0d:	8d 51 01             	lea    0x1(%ecx),%edx
    7b10:	83 3c d5 20 94 00 00 	cmpl   $0x0,0x9420(,%edx,8)
    7b17:	00 
    7b18:	74 18                	je     7b32 <_find_keyword+0x67>
    7b1a:	be 20 94 00 00       	mov    $0x9420,%esi
    7b1f:	8b 04 d6             	mov    (%esi,%edx,8),%eax
    7b22:	0f b6 04 18          	movzbl (%eax,%ebx,1),%eax
    7b26:	3a 04 1f             	cmp    (%edi,%ebx,1),%al
    7b29:	75 07                	jne    7b32 <_find_keyword+0x67>
    7b2b:	42                   	inc    %edx
    7b2c:	83 3c d6 00          	cmpl   $0x0,(%esi,%edx,8)
    7b30:	75 ed                	jne    7b1f <_find_keyword+0x54>
    7b32:	43                   	inc    %ebx
    7b33:	80 3c 1f 00          	cmpb   $0x0,(%edi,%ebx,1)
    7b37:	75 af                	jne    7ae8 <_find_keyword+0x1d>
    7b39:	8b 04 cd 24 94 00 00 	mov    0x9424(,%ecx,8),%eax
    7b40:	5b                   	pop    %ebx
    7b41:	5e                   	pop    %esi
    7b42:	5f                   	pop    %edi
    7b43:	5d                   	pop    %ebp
    7b44:	c3                   	ret    
    7b45:	90                   	nop    
    7b46:	90                   	nop    
    7b47:	90                   	nop    

00007b48 <scheme_init>:
    7b48:	55                   	push   %ebp
    7b49:	89 e5                	mov    %esp,%ebp
    7b4b:	83 ec 08             	sub    $0x8,%esp
    7b4e:	c7 04 24 00 00 00 00 	movl   $0x0,(%esp)
    7b55:	e8 aa e6 ff ff       	call   6204 <scheme_init_env>
    7b5a:	c7 04 24 30 cd 12 00 	movl   $0x12cd30,(%esp)
    7b61:	e8 32 ca ff ff       	call   4598 <scheme_init_read>
    7b66:	c7 04 24 30 cd 12 00 	movl   $0x12cd30,(%esp)
    7b6d:	e8 0e d5 ff ff       	call   5080 <scheme_init_port>
    7b72:	c7 04 24 30 cd 12 00 	movl   $0x12cd30,(%esp)
    7b79:	e8 3a bb ff ff       	call   36b8 <scheme_init_bool>
    7b7e:	c7 04 24 30 cd 12 00 	movl   $0x12cd30,(%esp)
    7b85:	e8 72 d9 ff ff       	call   54fc <scheme_init_number>
    7b8a:	c7 04 24 30 cd 12 00 	movl   $0x12cd30,(%esp)
    7b91:	e8 22 bc ff ff       	call   37b8 <scheme_init_string>
    7b96:	c7 04 24 30 cd 12 00 	movl   $0x12cd30,(%esp)
    7b9d:	e8 fa c3 ff ff       	call   3f9c <scheme_init_list>
    7ba2:	c9                   	leave  
    7ba3:	c3                   	ret    

00007ba4 <scheme_driven_loop>:
    7ba4:	55                   	push   %ebp
    7ba5:	89 e5                	mov    %esp,%ebp
    7ba7:	5d                   	pop    %ebp
    7ba8:	c3                   	ret    
    7ba9:	90                   	nop    
    7baa:	90                   	nop    
    7bab:	90                   	nop    

00007bac <scheme_init_arch>:
    7bac:	55                   	push   %ebp
    7bad:	89 e5                	mov    %esp,%ebp
    7baf:	5d                   	pop    %ebp
    7bb0:	c3                   	ret    
    7bb1:	90                   	nop    
    7bb2:	90                   	nop    
    7bb3:	90                   	nop    

00007bb4 <atoi>:
    7bb4:	55                   	push   %ebp
    7bb5:	89 e5                	mov    %esp,%ebp
    7bb7:	83 ec 18             	sub    $0x18,%esp
    7bba:	c7 44 24 08 0a 00 00 	movl   $0xa,0x8(%esp)
    7bc1:	00 
    7bc2:	c7 44 24 04 00 00 00 	movl   $0x0,0x4(%esp)
    7bc9:	00 
    7bca:	8b 45 08             	mov    0x8(%ebp),%eax
    7bcd:	89 04 24             	mov    %eax,(%esp)
    7bd0:	e8 9b 02 00 00       	call   7e70 <strtol>
    7bd5:	c9                   	leave  
    7bd6:	c3                   	ret    

00007bd7 <atol>:
    7bd7:	55                   	push   %ebp
    7bd8:	89 e5                	mov    %esp,%ebp
    7bda:	83 ec 18             	sub    $0x18,%esp
    7bdd:	c7 44 24 08 0a 00 00 	movl   $0xa,0x8(%esp)
    7be4:	00 
    7be5:	c7 44 24 04 00 00 00 	movl   $0x0,0x4(%esp)
    7bec:	00 
    7bed:	8b 45 08             	mov    0x8(%ebp),%eax
    7bf0:	89 04 24             	mov    %eax,(%esp)
    7bf3:	e8 78 02 00 00       	call   7e70 <strtol>
    7bf8:	c9                   	leave  
    7bf9:	c3                   	ret    

00007bfa <_itoa>:
    7bfa:	55                   	push   %ebp
    7bfb:	89 e5                	mov    %esp,%ebp
    7bfd:	8b 45 0c             	mov    0xc(%ebp),%eax
    7c00:	5d                   	pop    %ebp
    7c01:	c3                   	ret    

00007c02 <_itoaU>:
    7c02:	55                   	push   %ebp
    7c03:	89 e5                	mov    %esp,%ebp
    7c05:	57                   	push   %edi
    7c06:	56                   	push   %esi
    7c07:	53                   	push   %ebx
    7c08:	8b 45 08             	mov    0x8(%ebp),%eax
    7c0b:	8b 7d 0c             	mov    0xc(%ebp),%edi
    7c0e:	8b 4d 10             	mov    0x10(%ebp),%ecx
    7c11:	83 f9 08             	cmp    $0x8,%ecx
    7c14:	0f 84 05 01 00 00    	je     7d1f <_itoaU+0x11d>
    7c1a:	83 f9 10             	cmp    $0x10,%ecx
    7c1d:	75 6e                	jne    7c8d <_itoaU+0x8b>
    7c1f:	89 c1                	mov    %eax,%ecx
    7c21:	bb 08 00 00 00       	mov    $0x8,%ebx
    7c26:	89 fe                	mov    %edi,%esi
    7c28:	c6 07 30             	movb   $0x30,(%edi)
    7c2b:	c6 47 01 00          	movb   $0x0,0x1(%edi)
    7c2f:	85 c0                	test   %eax,%eax
    7c31:	0f 84 e8 00 00 00    	je     7d1f <_itoaU+0x11d>
    7c37:	a9 00 00 00 f0       	test   $0xf0000000,%eax
    7c3c:	75 19                	jne    7c57 <_itoaU+0x55>
    7c3e:	c1 e1 04             	shl    $0x4,%ecx
    7c41:	4b                   	dec    %ebx
    7c42:	f7 c1 00 00 00 f0    	test   $0xf0000000,%ecx
    7c48:	0f 94 c0             	sete   %al
    7c4b:	85 db                	test   %ebx,%ebx
    7c4d:	0f 9f c2             	setg   %dl
    7c50:	0f b6 c0             	movzbl %al,%eax
    7c53:	85 c2                	test   %eax,%edx
    7c55:	75 e7                	jne    7c3e <_itoaU+0x3c>
    7c57:	85 db                	test   %ebx,%ebx
    7c59:	74 2a                	je     7c85 <_itoaU+0x83>
    7c5b:	89 f2                	mov    %esi,%edx
    7c5d:	46                   	inc    %esi
    7c5e:	b8 00 00 00 f0       	mov    $0xf0000000,%eax
    7c63:	21 c8                	and    %ecx,%eax
    7c65:	c1 e8 1c             	shr    $0x1c,%eax
    7c68:	83 f8 09             	cmp    $0x9,%eax
    7c6b:	77 04                	ja     7c71 <_itoaU+0x6f>
    7c6d:	04 30                	add    $0x30,%al
    7c6f:	eb 0c                	jmp    7c7d <_itoaU+0x7b>
    7c71:	b8 00 00 00 f0       	mov    $0xf0000000,%eax
    7c76:	21 c8                	and    %ecx,%eax
    7c78:	c1 e8 1c             	shr    $0x1c,%eax
    7c7b:	04 37                	add    $0x37,%al
    7c7d:	88 02                	mov    %al,(%edx)
    7c7f:	c1 e1 04             	shl    $0x4,%ecx
    7c82:	4b                   	dec    %ebx
    7c83:	75 d6                	jne    7c5b <_itoaU+0x59>
    7c85:	c6 06 00             	movb   $0x0,(%esi)
    7c88:	e9 92 00 00 00       	jmp    7d1f <_itoaU+0x11d>
    7c8d:	89 c3                	mov    %eax,%ebx
    7c8f:	b9 00 ca 9a 3b       	mov    $0x3b9aca00,%ecx
    7c94:	89 fe                	mov    %edi,%esi
    7c96:	c6 07 30             	movb   $0x30,(%edi)
    7c99:	c6 47 01 00          	movb   $0x0,0x1(%edi)
    7c9d:	85 c0                	test   %eax,%eax
    7c9f:	74 7e                	je     7d1f <_itoaU+0x11d>
    7ca1:	ba 00 00 00 00       	mov    $0x0,%edx
    7ca6:	f7 f1                	div    %ecx
    7ca8:	85 c0                	test   %eax,%eax
    7caa:	75 24                	jne    7cd0 <_itoaU+0xce>
    7cac:	b8 67 66 66 66       	mov    $0x66666667,%eax
    7cb1:	f7 e9                	imul   %ecx
    7cb3:	c1 fa 02             	sar    $0x2,%edx
    7cb6:	89 c8                	mov    %ecx,%eax
    7cb8:	c1 f8 1f             	sar    $0x1f,%eax
    7cbb:	89 d1                	mov    %edx,%ecx
    7cbd:	29 c1                	sub    %eax,%ecx
    7cbf:	85 c9                	test   %ecx,%ecx
    7cc1:	7e 0d                	jle    7cd0 <_itoaU+0xce>
    7cc3:	89 d8                	mov    %ebx,%eax
    7cc5:	ba 00 00 00 00       	mov    $0x0,%edx
    7cca:	f7 f1                	div    %ecx
    7ccc:	85 c0                	test   %eax,%eax
    7cce:	74 dc                	je     7cac <_itoaU+0xaa>
    7cd0:	89 d8                	mov    %ebx,%eax
    7cd2:	ba 00 00 00 00       	mov    $0x0,%edx
    7cd7:	f7 f1                	div    %ecx
    7cd9:	04 30                	add    $0x30,%al
    7cdb:	88 06                	mov    %al,(%esi)
    7cdd:	46                   	inc    %esi
    7cde:	89 d3                	mov    %edx,%ebx
    7ce0:	ba 67 66 66 66       	mov    $0x66666667,%edx
    7ce5:	89 c8                	mov    %ecx,%eax
    7ce7:	f7 ea                	imul   %edx
    7ce9:	c1 fa 02             	sar    $0x2,%edx
    7cec:	89 c8                	mov    %ecx,%eax
    7cee:	c1 f8 1f             	sar    $0x1f,%eax
    7cf1:	89 d1                	mov    %edx,%ecx
    7cf3:	29 c1                	sub    %eax,%ecx
    7cf5:	74 25                	je     7d1c <_itoaU+0x11a>
    7cf7:	89 d8                	mov    %ebx,%eax
    7cf9:	ba 00 00 00 00       	mov    $0x0,%edx
    7cfe:	f7 f1                	div    %ecx
    7d00:	04 30                	add    $0x30,%al
    7d02:	88 06                	mov    %al,(%esi)
    7d04:	46                   	inc    %esi
    7d05:	89 d3                	mov    %edx,%ebx
    7d07:	b8 67 66 66 66       	mov    $0x66666667,%eax
    7d0c:	f7 e9                	imul   %ecx
    7d0e:	c1 fa 02             	sar    $0x2,%edx
    7d11:	89 c8                	mov    %ecx,%eax
    7d13:	c1 f8 1f             	sar    $0x1f,%eax
    7d16:	89 d1                	mov    %edx,%ecx
    7d18:	29 c1                	sub    %eax,%ecx
    7d1a:	75 db                	jne    7cf7 <_itoaU+0xf5>
    7d1c:	c6 06 00             	movb   $0x0,(%esi)
    7d1f:	89 f8                	mov    %edi,%eax
    7d21:	5b                   	pop    %ebx
    7d22:	5e                   	pop    %esi
    7d23:	5f                   	pop    %edi
    7d24:	5d                   	pop    %ebp
    7d25:	c3                   	ret    
    7d26:	90                   	nop    
    7d27:	90                   	nop    

00007d28 <kscm_init_heap>:
    7d28:	55                   	push   %ebp
    7d29:	89 e5                	mov    %esp,%ebp
    7d2b:	c7 05 8c b9 11 00 fe 	movl   $0x1fe,0x11b98c
    7d32:	01 00 00 
    7d35:	c7 05 88 b9 11 00 00 	movl   $0x800000,0x11b988
    7d3c:	00 80 00 
    7d3f:	c7 05 00 00 80 00 00 	movl   $0x200,0x800000
    7d46:	02 00 00 
    7d49:	c7 05 04 00 80 00 00 	movl   $0x800000,0x800004
    7d50:	00 80 00 
    7d53:	5d                   	pop    %ebp
    7d54:	c3                   	ret    

00007d55 <kmalloc>:
    7d55:	55                   	push   %ebp
    7d56:	89 e5                	mov    %esp,%ebp
    7d58:	57                   	push   %edi
    7d59:	56                   	push   %esi
    7d5a:	53                   	push   %ebx
    7d5b:	83 ec 0c             	sub    $0xc,%esp
    7d5e:	8b 7d 08             	mov    0x8(%ebp),%edi
    7d61:	83 c7 07             	add    $0x7,%edi
    7d64:	89 f8                	mov    %edi,%eax
    7d66:	c1 e8 03             	shr    $0x3,%eax
    7d69:	8d 78 01             	lea    0x1(%eax),%edi
    7d6c:	83 3d 88 b9 11 00 00 	cmpl   $0x0,0x11b988
    7d73:	75 1f                	jne    7d94 <kmalloc+0x3f>
    7d75:	c7 04 24 01 00 00 00 	movl   $0x1,(%esp)
    7d7c:	e8 9b 07 00 00       	call   851c <expand_region>
    7d81:	a3 88 b9 11 00       	mov    %eax,0x11b988
    7d86:	c7 00 00 02 00 00    	movl   $0x200,(%eax)
    7d8c:	a1 88 b9 11 00       	mov    0x11b988,%eax
    7d91:	89 40 04             	mov    %eax,0x4(%eax)
    7d94:	8b 35 88 b9 11 00    	mov    0x11b988,%esi
    7d9a:	8b 5e 04             	mov    0x4(%esi),%ebx
    7d9d:	39 3b                	cmp    %edi,(%ebx)
    7d9f:	72 2a                	jb     7dcb <kmalloc+0x76>
    7da1:	39 3b                	cmp    %edi,(%ebx)
    7da3:	75 16                	jne    7dbb <kmalloc+0x66>
    7da5:	8b 43 04             	mov    0x4(%ebx),%eax
    7da8:	89 46 04             	mov    %eax,0x4(%esi)
    7dab:	39 de                	cmp    %ebx,%esi
    7dad:	75 17                	jne    7dc6 <kmalloc+0x71>
    7daf:	c7 05 88 b9 11 00 00 	movl   $0x0,0x11b988
    7db6:	00 00 00 
    7db9:	eb 0b                	jmp    7dc6 <kmalloc+0x71>
    7dbb:	8b 03                	mov    (%ebx),%eax
    7dbd:	29 f8                	sub    %edi,%eax
    7dbf:	89 03                	mov    %eax,(%ebx)
    7dc1:	8d 1c c3             	lea    (%ebx,%eax,8),%ebx
    7dc4:	89 3b                	mov    %edi,(%ebx)
    7dc6:	8d 43 08             	lea    0x8(%ebx),%eax
    7dc9:	eb 30                	jmp    7dfb <kmalloc+0xa6>
    7dcb:	3b 1d 88 b9 11 00    	cmp    0x11b988,%ebx
    7dd1:	75 1c                	jne    7def <kmalloc+0x9a>
    7dd3:	c7 04 24 01 00 00 00 	movl   $0x1,(%esp)
    7dda:	e8 3d 07 00 00       	call   851c <expand_region>
    7ddf:	85 c0                	test   %eax,%eax
    7de1:	74 13                	je     7df6 <kmalloc+0xa1>
    7de3:	89 46 04             	mov    %eax,0x4(%esi)
    7de6:	c7 00 00 02 00 00    	movl   $0x200,(%eax)
    7dec:	89 58 04             	mov    %ebx,0x4(%eax)
    7def:	89 de                	mov    %ebx,%esi
    7df1:	8b 5b 04             	mov    0x4(%ebx),%ebx
    7df4:	eb a7                	jmp    7d9d <kmalloc+0x48>
    7df6:	b8 00 00 00 00       	mov    $0x0,%eax
    7dfb:	83 c4 0c             	add    $0xc,%esp
    7dfe:	5b                   	pop    %ebx
    7dff:	5e                   	pop    %esi
    7e00:	5f                   	pop    %edi
    7e01:	5d                   	pop    %ebp
    7e02:	c3                   	ret    

00007e03 <kfree>:
    7e03:	55                   	push   %ebp
    7e04:	89 e5                	mov    %esp,%ebp
    7e06:	53                   	push   %ebx
    7e07:	8b 4d 08             	mov    0x8(%ebp),%ecx
    7e0a:	83 e9 08             	sub    $0x8,%ecx
    7e0d:	8b 15 88 b9 11 00    	mov    0x11b988,%edx
    7e13:	39 d1                	cmp    %edx,%ecx
    7e15:	76 05                	jbe    7e1c <kfree+0x19>
    7e17:	39 4a 04             	cmp    %ecx,0x4(%edx)
    7e1a:	77 1a                	ja     7e36 <kfree+0x33>
    7e1c:	39 52 04             	cmp    %edx,0x4(%edx)
    7e1f:	77 09                	ja     7e2a <kfree+0x27>
    7e21:	39 d1                	cmp    %edx,%ecx
    7e23:	77 11                	ja     7e36 <kfree+0x33>
    7e25:	39 4a 04             	cmp    %ecx,0x4(%edx)
    7e28:	77 0c                	ja     7e36 <kfree+0x33>
    7e2a:	8b 52 04             	mov    0x4(%edx),%edx
    7e2d:	39 d1                	cmp    %edx,%ecx
    7e2f:	76 eb                	jbe    7e1c <kfree+0x19>
    7e31:	39 4a 04             	cmp    %ecx,0x4(%edx)
    7e34:	76 e6                	jbe    7e1c <kfree+0x19>
    7e36:	8b 1a                	mov    (%edx),%ebx
    7e38:	8d 04 da             	lea    (%edx,%ebx,8),%eax
    7e3b:	39 c8                	cmp    %ecx,%eax
    7e3d:	75 0a                	jne    7e49 <kfree+0x46>
    7e3f:	89 d8                	mov    %ebx,%eax
    7e41:	03 01                	add    (%ecx),%eax
    7e43:	89 02                	mov    %eax,(%edx)
    7e45:	89 d1                	mov    %edx,%ecx
    7e47:	eb 03                	jmp    7e4c <kfree+0x49>
    7e49:	89 4a 04             	mov    %ecx,0x4(%edx)
    7e4c:	8b 01                	mov    (%ecx),%eax
    7e4e:	8d 1c c1             	lea    (%ecx,%eax,8),%ebx
    7e51:	3b 5a 04             	cmp    0x4(%edx),%ebx
    7e54:	75 0c                	jne    7e62 <kfree+0x5f>
    7e56:	03 03                	add    (%ebx),%eax
    7e58:	89 01                	mov    %eax,(%ecx)
    7e5a:	8b 43 04             	mov    0x4(%ebx),%eax
    7e5d:	89 41 04             	mov    %eax,0x4(%ecx)
    7e60:	eb 06                	jmp    7e68 <kfree+0x65>
    7e62:	8b 42 04             	mov    0x4(%edx),%eax
    7e65:	89 41 04             	mov    %eax,0x4(%ecx)
    7e68:	5b                   	pop    %ebx
    7e69:	5d                   	pop    %ebp
    7e6a:	c3                   	ret    

00007e6b <alloc_memory>:
    7e6b:	55                   	push   %ebp
    7e6c:	89 e5                	mov    %esp,%ebp
    7e6e:	5d                   	pop    %ebp
    7e6f:	c3                   	ret    

00007e70 <strtol>:
    7e70:	55                   	push   %ebp
    7e71:	89 e5                	mov    %esp,%ebp
    7e73:	57                   	push   %edi
    7e74:	56                   	push   %esi
    7e75:	53                   	push   %ebx
    7e76:	83 ec 10             	sub    $0x10,%esp
    7e79:	8b 5d 10             	mov    0x10(%ebp),%ebx
    7e7c:	89 d8                	mov    %ebx,%eax
    7e7e:	c1 e8 1f             	shr    $0x1f,%eax
    7e81:	83 fb 01             	cmp    $0x1,%ebx
    7e84:	0f 94 c2             	sete   %dl
    7e87:	0f b6 d2             	movzbl %dl,%edx
    7e8a:	09 d0                	or     %edx,%eax
    7e8c:	75 05                	jne    7e93 <strtol+0x23>
    7e8e:	83 fb 24             	cmp    $0x24,%ebx
    7e91:	7e 05                	jle    7e98 <strtol+0x28>
    7e93:	bb 0a 00 00 00       	mov    $0xa,%ebx
    7e98:	8b 4d 08             	mov    0x8(%ebp),%ecx
    7e9b:	80 39 0b             	cmpb   $0xb,(%ecx)
    7e9e:	0f 94 c0             	sete   %al
    7ea1:	80 39 09             	cmpb   $0x9,(%ecx)
    7ea4:	0f 94 c2             	sete   %dl
    7ea7:	09 d0                	or     %edx,%eax
    7ea9:	a8 01                	test   $0x1,%al
    7eab:	75 14                	jne    7ec1 <strtol+0x51>
    7ead:	80 39 20             	cmpb   $0x20,(%ecx)
    7eb0:	74 0f                	je     7ec1 <strtol+0x51>
    7eb2:	80 39 0a             	cmpb   $0xa,(%ecx)
    7eb5:	74 0a                	je     7ec1 <strtol+0x51>
    7eb7:	80 39 0d             	cmpb   $0xd,(%ecx)
    7eba:	74 05                	je     7ec1 <strtol+0x51>
    7ebc:	80 39 0c             	cmpb   $0xc,(%ecx)
    7ebf:	75 27                	jne    7ee8 <strtol+0x78>
    7ec1:	41                   	inc    %ecx
    7ec2:	80 39 0b             	cmpb   $0xb,(%ecx)
    7ec5:	0f 94 c0             	sete   %al
    7ec8:	80 39 09             	cmpb   $0x9,(%ecx)
    7ecb:	0f 94 c2             	sete   %dl
    7ece:	09 d0                	or     %edx,%eax
    7ed0:	a8 01                	test   $0x1,%al
    7ed2:	75 ed                	jne    7ec1 <strtol+0x51>
    7ed4:	80 39 20             	cmpb   $0x20,(%ecx)
    7ed7:	74 e8                	je     7ec1 <strtol+0x51>
    7ed9:	80 39 0a             	cmpb   $0xa,(%ecx)
    7edc:	74 e3                	je     7ec1 <strtol+0x51>
    7ede:	80 39 0d             	cmpb   $0xd,(%ecx)
    7ee1:	74 de                	je     7ec1 <strtol+0x51>
    7ee3:	80 39 0c             	cmpb   $0xc,(%ecx)
    7ee6:	74 d9                	je     7ec1 <strtol+0x51>
    7ee8:	80 39 00             	cmpb   $0x0,(%ecx)
    7eeb:	0f 84 fe 00 00 00    	je     7fef <strtol+0x17f>
    7ef1:	80 39 2d             	cmpb   $0x2d,(%ecx)
    7ef4:	75 0a                	jne    7f00 <strtol+0x90>
    7ef6:	c7 45 f0 01 00 00 00 	movl   $0x1,0xfffffff0(%ebp)
    7efd:	41                   	inc    %ecx
    7efe:	eb 0d                	jmp    7f0d <strtol+0x9d>
    7f00:	c7 45 f0 00 00 00 00 	movl   $0x0,0xfffffff0(%ebp)
    7f07:	80 39 2b             	cmpb   $0x2b,(%ecx)
    7f0a:	75 01                	jne    7f0d <strtol+0x9d>
    7f0c:	41                   	inc    %ecx
    7f0d:	83 fb 10             	cmp    $0x10,%ebx
    7f10:	75 0e                	jne    7f20 <strtol+0xb0>
    7f12:	80 39 30             	cmpb   $0x30,(%ecx)
    7f15:	75 09                	jne    7f20 <strtol+0xb0>
    7f17:	80 79 01 58          	cmpb   $0x58,0x1(%ecx)
    7f1b:	75 03                	jne    7f20 <strtol+0xb0>
    7f1d:	83 c1 02             	add    $0x2,%ecx
    7f20:	85 db                	test   %ebx,%ebx
    7f22:	75 1d                	jne    7f41 <strtol+0xd1>
    7f24:	bb 0a 00 00 00       	mov    $0xa,%ebx
    7f29:	80 39 30             	cmpb   $0x30,(%ecx)
    7f2c:	75 13                	jne    7f41 <strtol+0xd1>
    7f2e:	bb 08 00 00 00       	mov    $0x8,%ebx
    7f33:	80 79 01 58          	cmpb   $0x58,0x1(%ecx)
    7f37:	75 08                	jne    7f41 <strtol+0xd1>
    7f39:	83 c1 02             	add    $0x2,%ecx
    7f3c:	bb 10 00 00 00       	mov    $0x10,%ebx
    7f41:	89 4d e8             	mov    %ecx,0xffffffe8(%ebp)
    7f44:	b8 ff ff ff ff       	mov    $0xffffffff,%eax
    7f49:	ba 00 00 00 00       	mov    $0x0,%edx
    7f4e:	f7 f3                	div    %ebx
    7f50:	89 55 ec             	mov    %edx,0xffffffec(%ebp)
    7f53:	89 c7                	mov    %eax,%edi
    7f55:	c7 45 e4 00 00 00 00 	movl   $0x0,0xffffffe4(%ebp)
    7f5c:	be 00 00 00 00       	mov    $0x0,%esi
    7f61:	0f b6 01             	movzbl (%ecx),%eax
    7f64:	84 c0                	test   %al,%al
    7f66:	74 33                	je     7f9b <strtol+0x12b>
    7f68:	2c 30                	sub    $0x30,%al
    7f6a:	3c 09                	cmp    $0x9,%al
    7f6c:	77 2d                	ja     7f9b <strtol+0x12b>
    7f6e:	0f b6 d0             	movzbl %al,%edx
    7f71:	39 da                	cmp    %ebx,%edx
    7f73:	7d 26                	jge    7f9b <strtol+0x12b>
    7f75:	39 fe                	cmp    %edi,%esi
    7f77:	77 09                	ja     7f82 <strtol+0x112>
    7f79:	39 fe                	cmp    %edi,%esi
    7f7b:	75 0e                	jne    7f8b <strtol+0x11b>
    7f7d:	3b 55 ec             	cmp    0xffffffec(%ebp),%edx
    7f80:	76 09                	jbe    7f8b <strtol+0x11b>
    7f82:	c7 45 e4 01 00 00 00 	movl   $0x1,0xffffffe4(%ebp)
    7f89:	eb 08                	jmp    7f93 <strtol+0x123>
    7f8b:	0f af f3             	imul   %ebx,%esi
    7f8e:	0f b6 c0             	movzbl %al,%eax
    7f91:	01 c6                	add    %eax,%esi
    7f93:	41                   	inc    %ecx
    7f94:	0f b6 01             	movzbl (%ecx),%eax
    7f97:	84 c0                	test   %al,%al
    7f99:	75 cd                	jne    7f68 <strtol+0xf8>
    7f9b:	3b 4d e8             	cmp    0xffffffe8(%ebp),%ecx
    7f9e:	74 4f                	je     7fef <strtol+0x17f>
    7fa0:	83 7d 0c 00          	cmpl   $0x0,0xc(%ebp)
    7fa4:	74 05                	je     7fab <strtol+0x13b>
    7fa6:	8b 45 0c             	mov    0xc(%ebp),%eax
    7fa9:	89 08                	mov    %ecx,(%eax)
    7fab:	83 7d f0 00          	cmpl   $0x0,0xfffffff0(%ebp)
    7faf:	74 0a                	je     7fbb <strtol+0x14b>
    7fb1:	81 fe 00 00 00 80    	cmp    $0x80000000,%esi
    7fb7:	77 06                	ja     7fbf <strtol+0x14f>
    7fb9:	eb 0b                	jmp    7fc6 <strtol+0x156>
    7fbb:	85 f6                	test   %esi,%esi
    7fbd:	79 07                	jns    7fc6 <strtol+0x156>
    7fbf:	c7 45 e4 01 00 00 00 	movl   $0x1,0xffffffe4(%ebp)
    7fc6:	83 7d e4 00          	cmpl   $0x0,0xffffffe4(%ebp)
    7fca:	74 17                	je     7fe3 <strtol+0x173>
    7fcc:	c7 05 64 cd 12 00 00 	movl   $0x0,0x12cd64
    7fd3:	00 00 00 
    7fd6:	83 7d f0 01          	cmpl   $0x1,0xfffffff0(%ebp)
    7fda:	19 c0                	sbb    %eax,%eax
    7fdc:	2d 00 00 00 80       	sub    $0x80000000,%eax
    7fe1:	eb 1f                	jmp    8002 <strtol+0x192>
    7fe3:	89 f0                	mov    %esi,%eax
    7fe5:	83 7d f0 00          	cmpl   $0x0,0xfffffff0(%ebp)
    7fe9:	74 17                	je     8002 <strtol+0x192>
    7feb:	f7 d8                	neg    %eax
    7fed:	eb 13                	jmp    8002 <strtol+0x192>
    7fef:	83 7d 0c 00          	cmpl   $0x0,0xc(%ebp)
    7ff3:	74 08                	je     7ffd <strtol+0x18d>
    7ff5:	8b 45 08             	mov    0x8(%ebp),%eax
    7ff8:	8b 55 0c             	mov    0xc(%ebp),%edx
    7ffb:	89 02                	mov    %eax,(%edx)
    7ffd:	b8 00 00 00 00       	mov    $0x0,%eax
    8002:	83 c4 10             	add    $0x10,%esp
    8005:	5b                   	pop    %ebx
    8006:	5e                   	pop    %esi
    8007:	5f                   	pop    %edi
    8008:	5d                   	pop    %ebp
    8009:	c3                   	ret    
    800a:	90                   	nop    
    800b:	90                   	nop    

0000800c <memset>:
    800c:	55                   	push   %ebp
    800d:	89 e5                	mov    %esp,%ebp
    800f:	83 ec 08             	sub    $0x8,%esp
    8012:	89 1c 24             	mov    %ebx,(%esp)
    8015:	89 7c 24 04          	mov    %edi,0x4(%esp)
    8019:	8b 7d 08             	mov    0x8(%ebp),%edi
    801c:	8b 5d 10             	mov    0x10(%ebp),%ebx
    801f:	0f b6 45 0c          	movzbl 0xc(%ebp),%eax
    8023:	89 c2                	mov    %eax,%edx
    8025:	c1 e2 08             	shl    $0x8,%edx
    8028:	09 d0                	or     %edx,%eax
    802a:	89 c2                	mov    %eax,%edx
    802c:	c1 e2 10             	shl    $0x10,%edx
    802f:	09 d0                	or     %edx,%eax
    8031:	89 d9                	mov    %ebx,%ecx
    8033:	83 e1 fc             	and    $0xfffffffc,%ecx
    8036:	89 da                	mov    %ebx,%edx
    8038:	83 e2 03             	and    $0x3,%edx
    803b:	57                   	push   %edi
    803c:	51                   	push   %ecx
    803d:	fc                   	cld    
    803e:	f3 ab                	repz stos %eax,%es:(%edi)
    8040:	89 d1                	mov    %edx,%ecx
    8042:	f3 aa                	repz stos %al,%es:(%edi)
    8044:	59                   	pop    %ecx
    8045:	5f                   	pop    %edi
    8046:	89 f8                	mov    %edi,%eax
    8048:	8b 1c 24             	mov    (%esp),%ebx
    804b:	8b 7c 24 04          	mov    0x4(%esp),%edi
    804f:	89 ec                	mov    %ebp,%esp
    8051:	5d                   	pop    %ebp
    8052:	c3                   	ret    
    8053:	90                   	nop    

00008054 <printf>:
    8054:	55                   	push   %ebp
    8055:	89 e5                	mov    %esp,%ebp
    8057:	53                   	push   %ebx
    8058:	83 ec 14             	sub    $0x14,%esp
    805b:	8d 45 0c             	lea    0xc(%ebp),%eax
    805e:	89 44 24 08          	mov    %eax,0x8(%esp)
    8062:	8b 45 08             	mov    0x8(%ebp),%eax
    8065:	89 44 24 04          	mov    %eax,0x4(%esp)
    8069:	c7 04 24 a0 b9 11 00 	movl   $0x11b9a0,(%esp)
    8070:	e8 37 00 00 00       	call   80ac <vsprintf>
    8075:	89 c3                	mov    %eax,%ebx
    8077:	c7 04 24 a0 b9 11 00 	movl   $0x11b9a0,(%esp)
    807e:	e8 c2 b1 ff ff       	call   3245 <console_print>
    8083:	89 d8                	mov    %ebx,%eax
    8085:	83 c4 14             	add    $0x14,%esp
    8088:	5b                   	pop    %ebx
    8089:	5d                   	pop    %ebp
    808a:	c3                   	ret    

0000808b <sprintf>:
    808b:	55                   	push   %ebp
    808c:	89 e5                	mov    %esp,%ebp
    808e:	83 ec 18             	sub    $0x18,%esp
    8091:	8d 45 10             	lea    0x10(%ebp),%eax
    8094:	89 44 24 08          	mov    %eax,0x8(%esp)
    8098:	8b 45 0c             	mov    0xc(%ebp),%eax
    809b:	89 44 24 04          	mov    %eax,0x4(%esp)
    809f:	8b 45 08             	mov    0x8(%ebp),%eax
    80a2:	89 04 24             	mov    %eax,(%esp)
    80a5:	e8 02 00 00 00       	call   80ac <vsprintf>
    80aa:	c9                   	leave  
    80ab:	c3                   	ret    

000080ac <vsprintf>:
    80ac:	55                   	push   %ebp
    80ad:	89 e5                	mov    %esp,%ebp
    80af:	57                   	push   %edi
    80b0:	56                   	push   %esi
    80b1:	53                   	push   %ebx
    80b2:	83 ec 0c             	sub    $0xc,%esp
    80b5:	8b 75 08             	mov    0x8(%ebp),%esi
    80b8:	bf 00 00 00 00       	mov    $0x0,%edi
    80bd:	8b 5d 0c             	mov    0xc(%ebp),%ebx
    80c0:	80 3b 00             	cmpb   $0x0,(%ebx)
    80c3:	0f 84 ed 00 00 00    	je     81b6 <vsprintf+0x10a>
    80c9:	80 3b 25             	cmpb   $0x25,(%ebx)
    80cc:	74 0c                	je     80da <vsprintf+0x2e>
    80ce:	0f b6 03             	movzbl (%ebx),%eax
    80d1:	88 06                	mov    %al,(%esi)
    80d3:	46                   	inc    %esi
    80d4:	47                   	inc    %edi
    80d5:	e9 d2 00 00 00       	jmp    81ac <vsprintf+0x100>
    80da:	43                   	inc    %ebx
    80db:	0f be 03             	movsbl (%ebx),%eax
    80de:	83 f8 69             	cmp    $0x69,%eax
    80e1:	74 3c                	je     811f <vsprintf+0x73>
    80e3:	83 f8 69             	cmp    $0x69,%eax
    80e6:	7f 1e                	jg     8106 <vsprintf+0x5a>
    80e8:	83 f8 63             	cmp    $0x63,%eax
    80eb:	74 5e                	je     814b <vsprintf+0x9f>
    80ed:	83 f8 63             	cmp    $0x63,%eax
    80f0:	7f 0a                	jg     80fc <vsprintf+0x50>
    80f2:	83 f8 25             	cmp    $0x25,%eax
    80f5:	74 1e                	je     8115 <vsprintf+0x69>
    80f7:	e9 b0 00 00 00       	jmp    81ac <vsprintf+0x100>
    80fc:	83 f8 64             	cmp    $0x64,%eax
    80ff:	74 1e                	je     811f <vsprintf+0x73>
    8101:	e9 a6 00 00 00       	jmp    81ac <vsprintf+0x100>
    8106:	83 f8 73             	cmp    $0x73,%eax
    8109:	74 53                	je     815e <vsprintf+0xb2>
    810b:	83 f8 78             	cmp    $0x78,%eax
    810e:	74 72                	je     8182 <vsprintf+0xd6>
    8110:	e9 97 00 00 00       	jmp    81ac <vsprintf+0x100>
    8115:	c6 06 25             	movb   $0x25,(%esi)
    8118:	46                   	inc    %esi
    8119:	47                   	inc    %edi
    811a:	e9 8d 00 00 00       	jmp    81ac <vsprintf+0x100>
    811f:	c7 44 24 08 0a 00 00 	movl   $0xa,0x8(%esp)
    8126:	00 
    8127:	89 74 24 04          	mov    %esi,0x4(%esp)
    812b:	83 45 10 04          	addl   $0x4,0x10(%ebp)
    812f:	8b 55 10             	mov    0x10(%ebp),%edx
    8132:	8b 42 fc             	mov    0xfffffffc(%edx),%eax
    8135:	89 04 24             	mov    %eax,(%esp)
    8138:	e8 c5 fa ff ff       	call   7c02 <_itoaU>
    813d:	80 3e 00             	cmpb   $0x0,(%esi)
    8140:	74 6a                	je     81ac <vsprintf+0x100>
    8142:	46                   	inc    %esi
    8143:	47                   	inc    %edi
    8144:	80 3e 00             	cmpb   $0x0,(%esi)
    8147:	75 f9                	jne    8142 <vsprintf+0x96>
    8149:	eb 61                	jmp    81ac <vsprintf+0x100>
    814b:	83 45 10 04          	addl   $0x4,0x10(%ebp)
    814f:	89 f2                	mov    %esi,%edx
    8151:	46                   	inc    %esi
    8152:	8b 4d 10             	mov    0x10(%ebp),%ecx
    8155:	0f b6 41 fc          	movzbl 0xfffffffc(%ecx),%eax
    8159:	88 02                	mov    %al,(%edx)
    815b:	47                   	inc    %edi
    815c:	eb 4e                	jmp    81ac <vsprintf+0x100>
    815e:	83 45 10 04          	addl   $0x4,0x10(%ebp)
    8162:	8b 45 10             	mov    0x10(%ebp),%eax
    8165:	8b 50 fc             	mov    0xfffffffc(%eax),%edx
    8168:	0f b6 02             	movzbl (%edx),%eax
    816b:	42                   	inc    %edx
    816c:	88 06                	mov    %al,(%esi)
    816e:	46                   	inc    %esi
    816f:	84 c0                	test   %al,%al
    8171:	74 0c                	je     817f <vsprintf+0xd3>
    8173:	47                   	inc    %edi
    8174:	0f b6 02             	movzbl (%edx),%eax
    8177:	42                   	inc    %edx
    8178:	88 06                	mov    %al,(%esi)
    817a:	46                   	inc    %esi
    817b:	84 c0                	test   %al,%al
    817d:	75 f4                	jne    8173 <vsprintf+0xc7>
    817f:	4e                   	dec    %esi
    8180:	eb 2a                	jmp    81ac <vsprintf+0x100>
    8182:	c7 44 24 08 10 00 00 	movl   $0x10,0x8(%esp)
    8189:	00 
    818a:	89 74 24 04          	mov    %esi,0x4(%esp)
    818e:	83 45 10 04          	addl   $0x4,0x10(%ebp)
    8192:	8b 55 10             	mov    0x10(%ebp),%edx
    8195:	8b 42 fc             	mov    0xfffffffc(%edx),%eax
    8198:	89 04 24             	mov    %eax,(%esp)
    819b:	e8 62 fa ff ff       	call   7c02 <_itoaU>
    81a0:	80 3e 00             	cmpb   $0x0,(%esi)
    81a3:	74 07                	je     81ac <vsprintf+0x100>
    81a5:	46                   	inc    %esi
    81a6:	47                   	inc    %edi
    81a7:	80 3e 00             	cmpb   $0x0,(%esi)
    81aa:	75 f9                	jne    81a5 <vsprintf+0xf9>
    81ac:	43                   	inc    %ebx
    81ad:	80 3b 00             	cmpb   $0x0,(%ebx)
    81b0:	0f 85 13 ff ff ff    	jne    80c9 <vsprintf+0x1d>
    81b6:	c6 06 00             	movb   $0x0,(%esi)
    81b9:	89 f8                	mov    %edi,%eax
    81bb:	83 c4 0c             	add    $0xc,%esp
    81be:	5b                   	pop    %ebx
    81bf:	5e                   	pop    %esi
    81c0:	5f                   	pop    %edi
    81c1:	5d                   	pop    %ebp
    81c2:	c3                   	ret    
    81c3:	90                   	nop    

000081c4 <kscm_init_paging>:
    81c4:	55                   	push   %ebp
    81c5:	89 e5                	mov    %esp,%ebp
    81c7:	57                   	push   %edi
    81c8:	56                   	push   %esi
    81c9:	83 ec 10             	sub    $0x10,%esp
    81cc:	be 00 00 00 00       	mov    $0x0,%esi
    81d1:	0f b7 05 02 00 09 00 	movzwl 0x90002,%eax
    81d8:	c1 e0 0a             	shl    $0xa,%eax
    81db:	05 00 00 10 00       	add    $0x100000,%eax
    81e0:	a3 a0 bd 11 00       	mov    %eax,0x11bda0
    81e5:	c7 05 c0 94 00 00 00 	movl   $0x0,0x94c0
    81ec:	00 00 00 
    81ef:	c7 05 c4 94 00 00 00 	movl   $0x400000,0x94c4
    81f6:	00 40 00 
    81f9:	66 c7 05 c8 94 00 00 	movw   $0xffff,0x94c8
    8200:	ff ff 
    8202:	c7 05 cc 94 00 00 00 	movl   $0x800000,0x94cc
    8209:	00 80 00 
    820c:	c7 05 d0 94 00 00 00 	movl   $0x1000,0x94d0
    8213:	10 00 00 
    8216:	66 c7 05 d4 94 00 00 	movw   $0x0,0x94d4
    821d:	00 00 
    821f:	c7 05 d8 94 00 00 00 	movl   $0x3fbff000,0x94d8
    8226:	f0 bf 3f 
    8229:	c7 05 dc 94 00 00 00 	movl   $0x1000,0x94dc
    8230:	10 00 00 
    8233:	66 c7 05 e0 94 00 00 	movw   $0x1,0x94e0
    823a:	01 00 
    823c:	c7 05 e4 94 00 00 00 	movl   $0x40000000,0x94e4
    8243:	00 00 40 
    8246:	c7 05 e8 94 00 00 00 	movl   $0x1000,0x94e8
    824d:	10 00 00 
    8250:	66 c7 05 ec 94 00 00 	movw   $0x0,0x94ec
    8257:	00 00 
    8259:	a1 fc cc 12 00       	mov    0x12ccfc,%eax
    825e:	c7 00 c0 94 00 00    	movl   $0x94c0,(%eax)
    8264:	b8 00 00 00 00       	mov    $0x0,%eax
    8269:	ba c0 bd 11 00       	mov    $0x11bdc0,%edx
    826e:	c7 04 82 ff ff ff ff 	movl   $0xffffffff,(%edx,%eax,4)
    8275:	40                   	inc    %eax
    8276:	3d bf 3f 00 00       	cmp    $0x3fbf,%eax
    827b:	76 f1                	jbe    826e <kscm_init_paging+0xaa>
    827d:	b8 02 00 00 00       	mov    $0x2,%eax
    8282:	c7 04 86 00 00 00 00 	movl   $0x0,(%esi,%eax,4)
    8289:	40                   	inc    %eax
    828a:	3d ff 03 00 00       	cmp    $0x3ff,%eax
    828f:	76 f1                	jbe    8282 <kscm_init_paging+0xbe>
    8291:	8b 3d d8 94 00 00    	mov    0x94d8,%edi
    8297:	e8 b1 00 00 00       	call   834d <get_free_frame>
    829c:	89 c1                	mov    %eax,%ecx
    829e:	89 fa                	mov    %edi,%edx
    82a0:	c1 ea 16             	shr    $0x16,%edx
    82a3:	83 c8 07             	or     $0x7,%eax
    82a6:	89 04 96             	mov    %eax,(%esi,%edx,4)
    82a9:	89 c8                	mov    %ecx,%eax
    82ab:	25 00 00 c0 ff       	and    $0xffc00000,%eax
    82b0:	0d 87 00 00 00       	or     $0x87,%eax
    82b5:	a3 fc 03 00 00       	mov    %eax,0x3fc
    82ba:	89 c8                	mov    %ecx,%eax
    82bc:	25 ff ff 3f 00       	and    $0x3fffff,%eax
    82c1:	89 c6                	mov    %eax,%esi
    82c3:	81 ce 00 00 c0 3f    	or     $0x3fc00000,%esi
    82c9:	89 f0                	mov    %esi,%eax
    82cb:	ba ff 03 00 00       	mov    $0x3ff,%edx
    82d0:	c7 00 00 00 00 00    	movl   $0x0,(%eax)
    82d6:	83 c0 04             	add    $0x4,%eax
    82d9:	4a                   	dec    %edx
    82da:	79 f4                	jns    82d0 <kscm_init_paging+0x10c>
    82dc:	e8 6c 00 00 00       	call   834d <get_free_frame>
    82e1:	89 c1                	mov    %eax,%ecx
    82e3:	89 f8                	mov    %edi,%eax
    82e5:	c1 e8 0c             	shr    $0xc,%eax
    82e8:	25 ff 03 00 00       	and    $0x3ff,%eax
    82ed:	89 ca                	mov    %ecx,%edx
    82ef:	83 ca 07             	or     $0x7,%edx
    82f2:	89 14 86             	mov    %edx,(%esi,%eax,4)
    82f5:	a1 c0 94 00 00       	mov    0x94c0,%eax
    82fa:	03 05 c4 94 00 00    	add    0x94c4,%eax
    8300:	8d b0 00 f0 ff ff    	lea    0xfffff000(%eax),%esi
    8306:	b9 00 04 00 00       	mov    $0x400,%ecx
    830b:	56                   	push   %esi
    830c:	57                   	push   %edi
    830d:	fc                   	cld    
    830e:	f3 a5                	repz movsl %ds:(%esi),%es:(%edi)
    8310:	5f                   	pop    %edi
    8311:	5e                   	pop    %esi
    8312:	a1 d8 94 00 00       	mov    0x94d8,%eax
    8317:	89 c7                	mov    %eax,%edi
    8319:	03 3d dc 94 00 00    	add    0x94dc,%edi
    831f:	89 f8                	mov    %edi,%eax
    8321:	2b 05 c0 94 00 00    	sub    0x94c0,%eax
    8327:	2b 05 c4 94 00 00    	sub    0x94c4,%eax
    832d:	01 c4                	add    %eax,%esp
    832f:	01 c5                	add    %eax,%ebp
    8331:	e8 17 00 00 00       	call   834d <get_free_frame>
    8336:	89 44 24 04          	mov    %eax,0x4(%esp)
    833a:	c7 04 24 00 00 80 00 	movl   $0x800000,(%esp)
    8341:	e8 9b 00 00 00       	call   83e1 <put_page>
    8346:	83 c4 10             	add    $0x10,%esp
    8349:	5e                   	pop    %esi
    834a:	5f                   	pop    %edi
    834b:	5d                   	pop    %ebp
    834c:	c3                   	ret    

0000834d <get_free_frame>:
    834d:	55                   	push   %ebp
    834e:	89 e5                	mov    %esp,%ebp
    8350:	56                   	push   %esi
    8351:	53                   	push   %ebx
    8352:	ba 00 00 00 00       	mov    $0x0,%edx
    8357:	83 3d c0 bd 11 00 00 	cmpl   $0x0,0x11bdc0
    835e:	75 14                	jne    8374 <get_free_frame+0x27>
    8360:	b8 c0 bd 11 00       	mov    $0x11bdc0,%eax
    8365:	42                   	inc    %edx
    8366:	81 fa bf 3f 00 00    	cmp    $0x3fbf,%edx
    836c:	77 06                	ja     8374 <get_free_frame+0x27>
    836e:	83 3c 90 00          	cmpl   $0x0,(%eax,%edx,4)
    8372:	74 f1                	je     8365 <get_free_frame+0x18>
    8374:	b8 00 00 00 00       	mov    $0x0,%eax
    8379:	81 fa c0 3f 00 00    	cmp    $0x3fc0,%edx
    837f:	74 35                	je     83b6 <get_free_frame+0x69>
    8381:	eb 09                	jmp    838c <get_free_frame+0x3f>
    8383:	f7 d0                	not    %eax
    8385:	21 c8                	and    %ecx,%eax
    8387:	89 04 96             	mov    %eax,(%esi,%edx,4)
    838a:	eb 1b                	jmp    83a7 <get_free_frame+0x5a>
    838c:	bb 00 00 00 00       	mov    $0x0,%ebx
    8391:	b8 01 00 00 00       	mov    $0x1,%eax
    8396:	be c0 bd 11 00       	mov    $0x11bdc0,%esi
    839b:	8b 0c 96             	mov    (%esi,%edx,4),%ecx
    839e:	85 c1                	test   %eax,%ecx
    83a0:	75 e1                	jne    8383 <get_free_frame+0x36>
    83a2:	43                   	inc    %ebx
    83a3:	01 c0                	add    %eax,%eax
    83a5:	75 f7                	jne    839e <get_free_frame+0x51>
    83a7:	89 d0                	mov    %edx,%eax
    83a9:	c1 e0 05             	shl    $0x5,%eax
    83ac:	01 d8                	add    %ebx,%eax
    83ae:	c1 e0 0c             	shl    $0xc,%eax
    83b1:	05 00 00 80 00       	add    $0x800000,%eax
    83b6:	5b                   	pop    %ebx
    83b7:	5e                   	pop    %esi
    83b8:	5d                   	pop    %ebp
    83b9:	c3                   	ret    

000083ba <free_frame>:
    83ba:	55                   	push   %ebp
    83bb:	89 e5                	mov    %esp,%ebp
    83bd:	8b 4d 08             	mov    0x8(%ebp),%ecx
    83c0:	81 e9 00 00 80 00    	sub    $0x800000,%ecx
    83c6:	c1 e9 0c             	shr    $0xc,%ecx
    83c9:	89 ca                	mov    %ecx,%edx
    83cb:	c1 ea 05             	shr    $0x5,%edx
    83ce:	83 e1 1f             	and    $0x1f,%ecx
    83d1:	b8 01 00 00 00       	mov    $0x1,%eax
    83d6:	d3 e0                	shl    %cl,%eax
    83d8:	09 04 95 c0 bd 11 00 	or     %eax,0x11bdc0(,%edx,4)
    83df:	5d                   	pop    %ebp
    83e0:	c3                   	ret    

000083e1 <put_page>:
    83e1:	55                   	push   %ebp
    83e2:	89 e5                	mov    %esp,%ebp
    83e4:	57                   	push   %edi
    83e5:	56                   	push   %esi
    83e6:	53                   	push   %ebx
    83e7:	8b 7d 08             	mov    0x8(%ebp),%edi
    83ea:	8b 75 0c             	mov    0xc(%ebp),%esi
    83ed:	81 fe ff ff 7f 00    	cmp    $0x7fffff,%esi
    83f3:	76 08                	jbe    83fd <put_page+0x1c>
    83f5:	3b 35 a0 bd 11 00    	cmp    0x11bda0,%esi
    83fb:	72 0a                	jb     8407 <put_page+0x26>
    83fd:	b8 00 00 00 00       	mov    $0x0,%eax
    8402:	e9 10 01 00 00       	jmp    8517 <put_page+0x136>
    8407:	89 f8                	mov    %edi,%eax
    8409:	c1 e8 16             	shr    $0x16,%eax
    840c:	83 3c 85 00 00 00 00 	cmpl   $0x0,0x0(,%eax,4)
    8413:	00 
    8414:	0f 85 ac 00 00 00    	jne    84c6 <put_page+0xe5>
    841a:	b9 00 00 00 00       	mov    $0x0,%ecx
    841f:	83 3d c0 bd 11 00 00 	cmpl   $0x0,0x11bdc0
    8426:	75 14                	jne    843c <put_page+0x5b>
    8428:	b8 c0 bd 11 00       	mov    $0x11bdc0,%eax
    842d:	41                   	inc    %ecx
    842e:	81 f9 bf 3f 00 00    	cmp    $0x3fbf,%ecx
    8434:	77 06                	ja     843c <put_page+0x5b>
    8436:	83 3c 88 00          	cmpl   $0x0,(%eax,%ecx,4)
    843a:	74 f1                	je     842d <put_page+0x4c>
    843c:	b8 00 00 00 00       	mov    $0x0,%eax
    8441:	81 f9 c0 3f 00 00    	cmp    $0x3fc0,%ecx
    8447:	74 38                	je     8481 <put_page+0xa0>
    8449:	eb 0d                	jmp    8458 <put_page+0x77>
    844b:	f7 d0                	not    %eax
    844d:	21 d0                	and    %edx,%eax
    844f:	89 04 8d c0 bd 11 00 	mov    %eax,0x11bdc0(,%ecx,4)
    8456:	eb 1a                	jmp    8472 <put_page+0x91>
    8458:	bb 00 00 00 00       	mov    $0x0,%ebx
    845d:	b8 01 00 00 00       	mov    $0x1,%eax
    8462:	8b 14 8d c0 bd 11 00 	mov    0x11bdc0(,%ecx,4),%edx
    8469:	85 c2                	test   %eax,%edx
    846b:	75 de                	jne    844b <put_page+0x6a>
    846d:	43                   	inc    %ebx
    846e:	01 c0                	add    %eax,%eax
    8470:	75 f7                	jne    8469 <put_page+0x88>
    8472:	89 c8                	mov    %ecx,%eax
    8474:	c1 e0 05             	shl    $0x5,%eax
    8477:	01 d8                	add    %ebx,%eax
    8479:	c1 e0 0c             	shl    $0xc,%eax
    847c:	05 00 00 80 00       	add    $0x800000,%eax
    8481:	89 c2                	mov    %eax,%edx
    8483:	89 f9                	mov    %edi,%ecx
    8485:	c1 e9 16             	shr    $0x16,%ecx
    8488:	83 c8 03             	or     $0x3,%eax
    848b:	89 04 8d 00 00 00 00 	mov    %eax,0x0(,%ecx,4)
    8492:	89 d0                	mov    %edx,%eax
    8494:	25 00 00 c0 ff       	and    $0xffc00000,%eax
    8499:	0d 87 00 00 00       	or     $0x87,%eax
    849e:	a3 fc 03 00 00       	mov    %eax,0x3fc
    84a3:	81 e2 ff ff 3f 00    	and    $0x3fffff,%edx
    84a9:	89 d1                	mov    %edx,%ecx
    84ab:	81 c9 00 00 c0 3f    	or     $0x3fc00000,%ecx
    84b1:	89 c8                	mov    %ecx,%eax
    84b3:	ba ff 03 00 00       	mov    $0x3ff,%edx
    84b8:	c7 00 00 00 00 00    	movl   $0x0,(%eax)
    84be:	83 c0 04             	add    $0x4,%eax
    84c1:	4a                   	dec    %edx
    84c2:	79 f4                	jns    84b8 <put_page+0xd7>
    84c4:	eb 35                	jmp    84fb <put_page+0x11a>
    84c6:	89 f8                	mov    %edi,%eax
    84c8:	c1 e8 16             	shr    $0x16,%eax
    84cb:	f6 04 85 00 00 00 00 	testb  $0x1,0x0(,%eax,4)
    84d2:	01 
    84d3:	74 26                	je     84fb <put_page+0x11a>
    84d5:	8b 14 85 00 00 00 00 	mov    0x0(,%eax,4),%edx
    84dc:	89 d0                	mov    %edx,%eax
    84de:	25 00 00 c0 ff       	and    $0xffc00000,%eax
    84e3:	0d 87 00 00 00       	or     $0x87,%eax
    84e8:	a3 fc 03 00 00       	mov    %eax,0x3fc
    84ed:	81 e2 00 f0 3f 00    	and    $0x3ff000,%edx
    84f3:	89 d1                	mov    %edx,%ecx
    84f5:	81 c9 00 00 c0 3f    	or     $0x3fc00000,%ecx
    84fb:	89 f8                	mov    %edi,%eax
    84fd:	c1 e8 0c             	shr    $0xc,%eax
    8500:	25 ff 03 00 00       	and    $0x3ff,%eax
    8505:	89 f2                	mov    %esi,%edx
    8507:	83 ca 03             	or     $0x3,%edx
    850a:	89 14 81             	mov    %edx,(%ecx,%eax,4)
    850d:	b8 00 00 40 00       	mov    $0x400000,%eax
    8512:	0f 22 d8             	mov    %eax,%cr3
    8515:	89 f8                	mov    %edi,%eax
    8517:	5b                   	pop    %ebx
    8518:	5e                   	pop    %esi
    8519:	5f                   	pop    %edi
    851a:	5d                   	pop    %ebp
    851b:	c3                   	ret    

0000851c <expand_region>:
    851c:	55                   	push   %ebp
    851d:	89 e5                	mov    %esp,%ebp
    851f:	57                   	push   %edi
    8520:	56                   	push   %esi
    8521:	53                   	push   %ebx
    8522:	83 ec 08             	sub    $0x8,%esp
    8525:	8b 4d 08             	mov    0x8(%ebp),%ecx
    8528:	bf 00 00 00 00       	mov    $0x0,%edi
    852d:	ba 00 00 00 00       	mov    $0x0,%edx
    8532:	83 f9 03             	cmp    $0x3,%ecx
    8535:	0f 8f 24 01 00 00    	jg     865f <expand_region+0x143>
    853b:	8d 04 49             	lea    (%ecx,%ecx,2),%eax
    853e:	8b 15 fc cc 12 00    	mov    0x12ccfc,%edx
    8544:	8b 12                	mov    (%edx),%edx
    8546:	8d 34 82             	lea    (%edx,%eax,4),%esi
    8549:	66 83 7e 08 00       	cmpw   $0x0,0x8(%esi)
    854e:	75 21                	jne    8571 <expand_region+0x55>
    8550:	8b 06                	mov    (%esi),%eax
    8552:	03 46 04             	add    0x4(%esi),%eax
    8555:	05 00 10 00 00       	add    $0x1000,%eax
    855a:	ba 00 00 00 00       	mov    $0x0,%edx
    855f:	3b 46 0c             	cmp    0xc(%esi),%eax
    8562:	0f 87 f7 00 00 00    	ja     865f <expand_region+0x143>
    8568:	8b 06                	mov    (%esi),%eax
    856a:	89 c7                	mov    %eax,%edi
    856c:	03 7e 04             	add    0x4(%esi),%edi
    856f:	eb 4b                	jmp    85bc <expand_region+0xa0>
    8571:	66 83 7e 08 01       	cmpw   $0x1,0x8(%esi)
    8576:	75 34                	jne    85ac <expand_region+0x90>
    8578:	8d 0c 49             	lea    (%ecx,%ecx,2),%ecx
    857b:	a1 fc cc 12 00       	mov    0x12ccfc,%eax
    8580:	8b 10                	mov    (%eax),%edx
    8582:	8b 1e                	mov    (%esi),%ebx
    8584:	81 eb 00 10 00 00    	sub    $0x1000,%ebx
    858a:	8b 44 8a f4          	mov    0xfffffff4(%edx,%ecx,4),%eax
    858e:	03 44 8a f8          	add    0xfffffff8(%edx,%ecx,4),%eax
    8592:	ba 00 00 00 00       	mov    $0x0,%edx
    8597:	39 c3                	cmp    %eax,%ebx
    8599:	0f 82 c0 00 00 00    	jb     865f <expand_region+0x143>
    859f:	8b 06                	mov    (%esi),%eax
    85a1:	2d 00 10 00 00       	sub    $0x1000,%eax
    85a6:	89 06                	mov    %eax,(%esi)
    85a8:	89 c7                	mov    %eax,%edi
    85aa:	eb 10                	jmp    85bc <expand_region+0xa0>
    85ac:	ba 00 00 00 00       	mov    $0x0,%edx
    85b1:	66 83 7e 08 00       	cmpw   $0x0,0x8(%esi)
    85b6:	0f 88 a3 00 00 00    	js     865f <expand_region+0x143>
    85bc:	81 46 04 00 10 00 00 	addl   $0x1000,0x4(%esi)
    85c3:	ba 00 00 00 00       	mov    $0x0,%edx
    85c8:	83 3d c0 bd 11 00 00 	cmpl   $0x0,0x11bdc0
    85cf:	75 14                	jne    85e5 <expand_region+0xc9>
    85d1:	b8 c0 bd 11 00       	mov    $0x11bdc0,%eax
    85d6:	42                   	inc    %edx
    85d7:	81 fa bf 3f 00 00    	cmp    $0x3fbf,%edx
    85dd:	77 06                	ja     85e5 <expand_region+0xc9>
    85df:	83 3c 90 00          	cmpl   $0x0,(%eax,%edx,4)
    85e3:	74 f1                	je     85d6 <expand_region+0xba>
    85e5:	bb 00 00 00 00       	mov    $0x0,%ebx
    85ea:	81 fa c0 3f 00 00    	cmp    $0x3fc0,%edx
    85f0:	74 37                	je     8629 <expand_region+0x10d>
    85f2:	eb 09                	jmp    85fd <expand_region+0xe1>
    85f4:	f7 d0                	not    %eax
    85f6:	21 d8                	and    %ebx,%eax
    85f8:	89 04 96             	mov    %eax,(%esi,%edx,4)
    85fb:	eb 1b                	jmp    8618 <expand_region+0xfc>
    85fd:	b9 00 00 00 00       	mov    $0x0,%ecx
    8602:	b8 01 00 00 00       	mov    $0x1,%eax
    8607:	be c0 bd 11 00       	mov    $0x11bdc0,%esi
    860c:	8b 1c 96             	mov    (%esi,%edx,4),%ebx
    860f:	85 c3                	test   %eax,%ebx
    8611:	75 e1                	jne    85f4 <expand_region+0xd8>
    8613:	41                   	inc    %ecx
    8614:	01 c0                	add    %eax,%eax
    8616:	75 f7                	jne    860f <expand_region+0xf3>
    8618:	89 d0                	mov    %edx,%eax
    861a:	c1 e0 05             	shl    $0x5,%eax
    861d:	8d 1c 08             	lea    (%eax,%ecx,1),%ebx
    8620:	c1 e3 0c             	shl    $0xc,%ebx
    8623:	81 c3 00 00 80 00    	add    $0x800000,%ebx
    8629:	89 5c 24 04          	mov    %ebx,0x4(%esp)
    862d:	89 3c 24             	mov    %edi,(%esp)
    8630:	e8 ac fd ff ff       	call   83e1 <put_page>
    8635:	89 fa                	mov    %edi,%edx
    8637:	85 c0                	test   %eax,%eax
    8639:	75 24                	jne    865f <expand_region+0x143>
    863b:	8d 8b 00 00 80 ff    	lea    0xff800000(%ebx),%ecx
    8641:	c1 e9 0c             	shr    $0xc,%ecx
    8644:	89 ca                	mov    %ecx,%edx
    8646:	c1 ea 05             	shr    $0x5,%edx
    8649:	83 e1 1f             	and    $0x1f,%ecx
    864c:	b8 01 00 00 00       	mov    $0x1,%eax
    8651:	d3 e0                	shl    %cl,%eax
    8653:	09 04 95 c0 bd 11 00 	or     %eax,0x11bdc0(,%edx,4)
    865a:	ba 00 00 00 00       	mov    $0x0,%edx
    865f:	89 d0                	mov    %edx,%eax
    8661:	83 c4 08             	add    $0x8,%esp
    8664:	5b                   	pop    %ebx
    8665:	5e                   	pop    %esi
    8666:	5f                   	pop    %edi
    8667:	5d                   	pop    %ebp
    8668:	c3                   	ret    
